
Memory Configuration

Name             Origin             Length             Attributes
*default*        0x0000000000000000 0xffffffffffffffff

Linker script and memory map


.internal_rom   0xffffffff81e00000     0x51f0
 hex/app/SW_V2112_csdk.elf(.internal_rom)
 .internal_rom  0xffffffff81e00000     0x51f0 hex/app/SW_V2112_csdk.elf
                0xffffffff81e00000                __xcpu_start
                0xffffffff81e00180                _boot_IrqHandler
                0xffffffff81e002d0                boot_HstMonitorX
                0xffffffff81e00330                boot_DbgExlTrigFunction0
                0xffffffff81e00358                monitor_entry
                0xffffffff81e0035c                initial_stack_top_var
                0xffffffff81e00360                boot_InvalidCache
                0xffffffff81e00378                boot_InvalidICache
                0xffffffff81e00398                boot_InvalidDCache
                0xffffffff81e003b8                boot_DisableInterrupt
                0xffffffff81e00401                boot_MonitorDoMonitoring
                0xffffffff81e00551                boot_Monitor
                0xffffffff81e00589                boot_UartMonitorGetBaudRate
                0xffffffff81e0059d                boot_UartMonitorSend
                0xffffffff81e00601                boot_UartMonitorGet
                0xffffffff81e00665                boot_UartMonitorOpen
                0xffffffff81e006cd                boot_UartMonitorClose
                0xffffffff81e006dd                boot_UartMonitorAck
                0xffffffff81e00769                boot_UartMonitorTimeOut
                0xffffffff81e00791                boot_UartMonitorWriteProcess
                0xffffffff81e008d9                boot_UartMonitorRpcProcess
                0xffffffff81e00a21                boot_UartMonitorReadProcess
                0xffffffff81e00be1                boot_UartMonitorExitProcess
                0xffffffff81e00c35                boot_UartMonitorProcess
                0xffffffff81e00cdd                boot_UartMonitor
                0xffffffff81e00ffc                g_BootHostUsbFixPtr
                0xffffffff81e01000                boot_FlushDCache
                0xffffffff81e01440                boot_IrqDispatch
                0xffffffff81e01484                boot_DcacheFlushAddrRange
                0xffffffff81e015f1                mon_Event
                0xffffffff81e01629                boot_HstCmdBasicHandler
                0xffffffff81e01699                boot_HstMonitor
                0xffffffff81e01705                boot_IspiGetRomedCfg
                0xffffffff81e01791                boot_IspiOpen
                0xffffffff81e01871                boot_IspiFlushFifos
                0xffffffff81e01881                boot_IspiClearRxDmaDone
                0xffffffff81e01891                boot_IspiClearTxDmaDone
                0xffffffff81e018a1                boot_IspiClose
                0xffffffff81e018e5                boot_IspiRxIfcChannelRelease
                0xffffffff81e018fd                boot_IspiTxIfcChannelRelease
                0xffffffff81e01915                boot_IspiSendData
                0xffffffff81e01971                boot_IspiSendDataBuffer
                0xffffffff81e019dd                boot_IspiTxFifoAvail
                0xffffffff81e019f9                boot_IspiTxDmaDone
                0xffffffff81e01a29                boot_IspiTxFinished
                0xffffffff81e01a55                boot_IspiGetData
                0xffffffff81e01a85                boot_IspiGetDataBuffer
                0xffffffff81e01af1                boot_IspiRxFifoLevel
                0xffffffff81e01b09                boot_IspiRxDmaDone
                0xffffffff81e01b39                boot_IspiForcePin
                0xffffffff81e01bcd                boot_IspiGetRxIfcTc
                0xffffffff81e01be4                g_bootIspiRomedCfg
                0xffffffff81e01c49                boot_UsbResetTransfert
                0xffffffff81e01c71                boot_UsbStartTransfert
                0xffffffff81e01d79                boot_UsbCancelTransfert
                0xffffffff81e01da1                boot_UsbContinueTransfert
                0xffffffff81e02311                boot_UsbInitVar
                0xffffffff81e02339                boot_UsbOpen
                0xffffffff81e02359                boot_UsbEpStall
                0xffffffff81e023e1                boot_UsbRecv
                0xffffffff81e02429                boot_UsbSend
                0xffffffff81e024a1                boot_UsbCompletedCommand
                0xffffffff81e024dd                boot_UsbEpEnableInterrupt
                0xffffffff81e0252d                boot_UsbEpRxTransferedSize
                0xffffffff81e02549                boot_UsbEpTransfertDone
                0xffffffff81e025f9                boot_UsbClose
                0xffffffff81e02635                boot_UsbReset
                0xffffffff81e02d9d                boot_UsbIrqHandler
                0xffffffff81e02fd1                boot_HostUsbDeviceCallback
                0xffffffff81e02fdd                boot_HostUsbUartDeviceCallback
                0xffffffff81e02fe9                boot_HostUsbClockEnable
                0xffffffff81e03021                boot_HostUsbClose
                0xffffffff81e03031                boot_HostUsbSend
                0xffffffff81e03169                boot_HostUsbEvent
                0xffffffff81e03621                boot_HostUsbRecv
                0xffffffff81e036b9                boot_HostUsbInit
                0xffffffff81e03719                boot_HostUsbOpen
                0xffffffff81e03788                boot_HostUsbInterface
                0xffffffff81e0385c                boot_romCsString
                0xffffffff81e03890                boot_romDT
                0xffffffff81e038a0                MutedFrame_AMR
                0xffffffff81e038a8                MutedFrame_HR
                0xffffffff81e038b8                MutedFrame_EFR
                0xffffffff81e038d8                MutedFrame_FR
                0xffffffff81e03901                atoi
                0xffffffff81e03941                bsearch
                0xffffffff81e039a0                _ctype
                0xffffffff81e03aa1                memchr
                0xffffffff81e03ae1                memcmp
                0xffffffff81e03b10                memcpy
                0xffffffff81e03e10                memcpyb
                0xffffffff81e03e41                memmove
                0xffffffff81e03f81                memscan
                0xffffffff81e03fa0                memset
                0xffffffff81e04341                qsort
                0xffffffff81e04371                strcat
                0xffffffff81e04391                strchr
                0xffffffff81e043c1                strrchr
                0xffffffff81e043e1                strcmp
                0xffffffff81e04421                strcpy
                0xffffffff81e04441                strcspn
                0xffffffff81e04481                strlen
                0xffffffff81e044a1                strnlen
                0xffffffff81e044c1                strncat
                0xffffffff81e04511                strncmp
                0xffffffff81e04551                strncpy
                0xffffffff81e04591                strnicmp
                0xffffffff81e04611                strsep
                0xffffffff81e04651                strspn
                0xffffffff81e04681                strstr
                0xffffffff81e046e1                strtok_r
                0xffffffff81e04761                strtok
                0xffffffff81e04781                strtol
                0xffffffff81e04941                strtoul

.sys_sram_overlay_2
                0xffffffff81c09690       0x10 load address 0xffffffff8801b7a0
 hex/app/SW_V2112_csdk.elf(.sys_sram_overlay_2)
 .sys_sram_overlay_2
                0xffffffff81c09690       0x10 hex/app/SW_V2112_csdk.elf
                0xffffffff81c09690                pcmbuf_overlay

.rom_entries_uncached
                0xffffffffa1c000a0       0xf4
 hex/app/SW_V2112_csdk.elf(.rom_entries_uncached)
 .rom_entries_uncached
                0xffffffffa1c000a0       0xf4 hex/app/SW_V2112_csdk.elf
                0xffffffffa1c000a0                boot_HstMonitorXCtx
                0xffffffffa1c000a0                _hstMonitorXCtx_start
                0xffffffffa1c000b4                boot_HstMonitorExtendedHandler
                0xffffffffa1c00138                g_BootUsbVar

.cust_rodata    0xffffffff882401a0       0x20
 hex/app/app.elf(.cust_rodata)
 .cust_rodata   0xffffffff882401a0       0x20 hex/app/app.elf
                0xffffffff882401c0                __user_rw_start

.misc           0xffffffff8820d9c0       0x20
 hex/app/SW_V2112_csdk.elf(.misc)
 .misc          0xffffffff8820d9c0       0x20 hex/app/SW_V2112_csdk.elf
                0xffffffff8820d9c1                hal_clk_dump
                0xffffffff883f6000                _user_data_start
                0xffffffff883fa000                _calib_start
                0xffffffff883fe000                _factory_start

.bbsram_patch_ucbss
                0xffffffffa1987bc0      0x100
 hex/app/SW_V2112_csdk.elf(.bbsram_patch_ucbss)
 .bbsram_patch_ucbss
                0xffffffffa1987bc0      0x100 hex/app/SW_V2112_csdk.elf
                0xffffffffa1987bc0                g_spalProfileBuffer
                0xffffffffa1b00000                _bcpu_dualport_sram_uncached_data_end
                0xffffffffa1b00000                _bcpu_dualport_sram_uncached_data_start
                0xffffffff81b00000                _bcpu_dualport_sram_text_start
                0xffffffff81b00000                _bcpu_dualport_sram_cached_data_end
                0xffffffff81b00000                _bcpu_dualport_sram_text_end
                0xffffffff81b00000                _bcpu_dualport_sram_cached_data_start

.sys_sram_overlay_4
                0xffffffff81c09690       0x10 load address 0xffffffff8801b7c0
 hex/app/SW_V2112_csdk.elf(.sys_sram_overlay_4)
 .sys_sram_overlay_4
                0xffffffff81c09690       0x10 hex/app/SW_V2112_csdk.elf

.bbsram_patch_ucdata
                0xffffffffa19878a0      0x320 load address 0xffffffff880126c0
 hex/app/SW_V2112_csdk.elf(.bbsram_patch_ucdata)
 .bbsram_patch_ucdata
                0xffffffffa19878a0      0x320 hex/app/SW_V2112_csdk.elf
                0xffffffffa19878a0                _bb_sram_patch_ucdata_start
                0xffffffffa19878a0                g_RxSaicEnFlag
                0xffffffffa19878a4                NBlockDataOutSaic
                0xffffffffa19879bc                g_rx_Saic_Bfi_Last_ind
                0xffffffffa19879c0                SACCHSaic
                0xffffffffa1987bc0                _bb_sram_patch_ucdata_end

.sys_sram_overlay_5
                0xffffffff81c09690       0x10 load address 0xffffffff8801b7d0
 hex/app/SW_V2112_csdk.elf(.sys_sram_overlay_5)
 .sys_sram_overlay_5
                0xffffffff81c09690       0x10 hex/app/SW_V2112_csdk.elf
                0xffffffff81c0fffc                _sys_sram_non_romed_top

.sramucdata     0xffffffffa1c08a70      0x260 load address 0xffffffff8801b520
 hex/app/SW_V2112_csdk.elf(.sramucdata)
 .sramucdata    0xffffffffa1c08a70      0x260 hex/app/SW_V2112_csdk.elf
                0xffffffffa1c08a70                _sys_sram_uncached_start
                0xffffffffa1c08a70                g_halGdbEnabled
                0xffffffffa1c08c3c                sxr_active_Task
                0xffffffffa1c08c44                g_halMapAccess
                0xffffffffa1c08c90                g_uart_busy
                0xffffffffa1c08c94                g_uart_r_busy
                0xffffffffa1c08c9c                g_halLpsCtx

.ucbss          0xffffffffa20568c0    0x24140
 hex/app/SW_V2112_csdk.elf(.ucbss)
 .ucbss         0xffffffffa20568c0    0x24140 hex/app/SW_V2112_csdk.elf
                0xffffffffa20568c0                g_pxts_buffer
                0xffffffffa2073b20                g_UsbBulkOut
                0xffffffffa2075b20                g_UsbBulkIn
                0xffffffffa2077b20                g_calibUsedSw
                0xffffffffa2077ba0                g_calibHstOpInfo
                0xffffffffa2077ba8                g_calibHstXcv
                0xffffffffa2077c50                g_calibHstPa
                0xffffffffa2078e7c                g_calibHstSw
                0xffffffffa2078efc                g_calibHstBb
                0xffffffffa2079888                g_calibHstIIR
                0xffffffffa2079978                g_calibStubGlobalCtxPtr
                0xffffffffa207997c                g_calibStubGlobalCtx
                0xffffffffa2079e94                g_calibStubGlobalNstCtx
                0xffffffffa207a9f4                g_calibStubGlobalNstCtxPtr

.bcpu_flash_end
                0xffffffff88013e70       0x10
 hex/app/SW_V2112_csdk.elf(.bcpu_flash_end)
 .bcpu_flash_end
                0xffffffff88013e70       0x10 hex/app/SW_V2112_csdk.elf

.boot_code      0xffffffff88010000     0x10b0
 hex/app/SW_V2112_csdk.elf(.boot_code)
 .boot_code     0xffffffff88010000     0x10b0 hex/app/SW_V2112_csdk.elf
                0xffffffff88010010                _boot_sector
                0xffffffff88010010                boot_Sector
                0xffffffff880103e5                pmd_GetVoreVoltageDDRIndex
                0xffffffff88010409                pmd_OpalSpiWrite
                0xffffffff88010425                pmd_OpalSpiRead
                0xffffffff8801043d                pmd_SetVcoreToDefaultVolt
                0xffffffff88010595                tgt_GetDDRConfig
                0xffffffff880105b1                boot_XcvClose
                0xffffffff880105c5                boot_XcvRead
                0xffffffff88010651                boot_XcvWrite
                0xffffffff880106b9                boot_XcvOpen
                0xffffffff880106fd                boot_XcvConfigure
                0xffffffff880107ad                memd_GetRamClk
                0xffffffff880107b9                DDR_Init_Config
                0xffffffff880107e1                DDR_Get_Config
                0xffffffff880108cd                memd_RamOpen
                0xffffffff88010955                hal_EbcCsOpen
                0xffffffff88010965                hal_EbcSramOpen
                0xffffffff88010975                hal_EbcFlashOpen
                0xffffffff880109a1                hal_IspiRegRead
                0xffffffff88010a15                hal_AbbIspiWrite
                0xffffffff88010a31                boot_SectorFixRom
                0xffffffff88010a35                boot_SectorEnterBootMonitor
                0xffffffff88010a51                boot_SysGetMetalId
                0xffffffff88010a69                boot_SysGetFreq
                0xffffffff88010b59                boot_SysWaitMicrosecond
                0xffffffff88010b8d                boot_UpdateIspiDivider
                0xffffffff88010bdd                boot_EbcSramOpen
                0xffffffff88010c0d                boot_EbcCsOpen
                0xffffffff88010c21                boot_EbcCsSetup
                0xffffffff88010cf9                boot_MemInit
                0xffffffff88010df1                boot_IspiRead
                0xffffffff88010e3d                boot_MonitorKeyPressed
                0xffffffff88010edd                boot_ForceUsbMonitorKeyCheck
                0xffffffff88010f25                boot_ForceMonitorKeyCheck
                0xffffffff88010f89                boot_BootSectorSetCommand
                0xffffffff88010fa1                boot_BootSectorSetEbcFreq
                0xffffffff88010fb5                boot_BootSectorGetEbcRamId
                0xffffffff88010fc1                tgt_GetMemdFlashConfig
                0xffffffff88010fcd                tgt_GetKeyMapIndex
                0xffffffff88010ff1                tgt_GetBootDownloadKeyList
                0xffffffff88011001                tgt_GetBootUsbDownloadKeyList
                0xffffffff88011011                tgt_GetUsbDownloadByMicDet
                0xffffffff88011015                tgt_GetMemdRamConfig
                0xffffffff88011030                g_tgtMemdFlashCfg
                0xffffffff88011038                g_tgtMemdRamCfg
                0xffffffff88011060                g_tgtKeyMap
                0xffffffff880110a0                g_tgtKeyBootDownload

.sramdata       0xffffffff81c085b0      0x4c0 load address 0xffffffff8801b060
 hex/app/SW_V2112_csdk.elf(.sramdata)
 .sramdata      0xffffffff81c085b0      0x4c0 hex/app/SW_V2112_csdk.elf
                0xffffffff81c085b0                _sys_sram_data_start
                0xffffffff81c088a8                g_SwTcuCfg
                0xffffffff81c088ac                g_paParams
                0xffffffff81c088bc                g_swParams
                0xffffffff81c088cc                g_TxRxSwTcuVal
                0xffffffff81c088e4                SW
                0xffffffff81c088e8                g_paCalibPtr
                0xffffffff81c088ec                XCV
                0xffffffff81c088f0                g_xcvChipId
                0xffffffff81c088f4                g_AfcOffset
                0xffffffff81c088f8                g_dcoffsetflag
                0xffffffff81c088fc                g_afcDacVal
                0xffffffff81c088fe                rxTxTimeOffset
                0xffffffff81c08900                g_CdacDelta
                0xffffffff81c08904                g_lastSleepMode
                0xffffffff81c08908                g_xcvCalibPtr
                0xffffffff81c0890c                g_xcvCmdCtx
                0xffffffff81c08918                g_xcvCalibSetPaRamp
                0xffffffff81c08919                g_xcvCalibPaOffset
                0xffffffff81c0891c                g_tempgpadcvalue
                0xffffffff81c08928                g_RxPllFreqReg_05h
                0xffffffff81c0892c                g_bandwideVal
                0xffffffff81c08930                g_xcvParams
                0xffffffff81c0895c                g_CDAC
                0xffffffff81c08960                g_xcvCalibPaRampValue
                0xffffffff81c08968                magnitude
                0xffffffff81c08990                pal_fch_sync_max_attempt
                0xffffffff81c08994                g_palCtx
                0xffffffff81c08a50                g_palDebug

.section_init   0xffffffff88240000       0x10
 hex/app/app.elf(.section_init)
 .section_init  0xffffffff88240000       0x10 hex/app/app.elf

.bootsramdata   0xffffffff81c01f40       0x80 load address 0xffffffff880149f0
 hex/app/SW_V2112_csdk.elf(.bootsramdata)
 .bootsramdata  0xffffffff81c01f40       0x80 hex/app/SW_V2112_csdk.elf
                0xffffffff81c01f40                g_bootSysCsAddress
                0xffffffff81c01f44                g_halSysCsAddress
                0xffffffff81c01f48                g_halSysSystemFreq
                0xffffffff81c01f58                g_spiflash_ID
                0xffffffff81c01f64                g_spiCfg
                0xffffffff81c01fac                g_ddrIndex
                0xffffffff81c01fae                memd_cfg_done
                0xffffffff81c01fb4                g_ddrConfig
                0xffffffff81c01fb8                g_ddr_table_size
                0xffffffff81c01fbc                memd_cfg

.rom_entries_cached
                0xffffffff81c00194       0x54
 hex/app/SW_V2112_csdk.elf(.rom_entries_cached)
 .rom_entries_cached
                0xffffffff81c00194       0x54 hex/app/SW_V2112_csdk.elf
                0xffffffff81c00194                xcpu_error_code
                0xffffffff81c00198                xcpu_error_status
                0xffffffff81c0019c                xcpu_sp_context
                0xffffffff81c001a0                sxr_IrqStack_pointer
                0xffffffff81c001a4                g_bootResetCause
                0xffffffff81c001a8                g_bootBootMode
                0xffffffff81c001ac                g_bootUartMonitorBrDetected
                0xffffffff81c001b0                g_bootUartMonitorBaudRate

.bootramtext    0xffffffff82000b00      0xf20 load address 0xffffffff8801b7e0
 hex/app/SW_V2112_csdk.elf(.bootramtext)
 .bootramtext   0xffffffff82000b00      0xf20 hex/app/SW_V2112_csdk.elf
                0xffffffff82000ce1                hal_SpiFlashGetID
                0xffffffff82000cf9                hal_SpiFlashSetLockCallback
                0xffffffff82000d05                hal_SpiFlashSetUnlockCallback
                0xffffffff82000d11                hal_SpiFlashSleep
                0xffffffff82000d41                hal_SpiFlashMapUncacheAddress
                0xffffffff82000d4d                hal_SpiFlashSetCheckIrq
                0xffffffff82000d59                hal_SpiFlashGetSize
                0xffffffff82000d69                hal_SpiFlashWakeup
                0xffffffff82000da5                hal_SpiFlashReset
                0xffffffff82000ee5                hal_SpiFlashReadStatusRegister
                0xffffffff820011cd                hal_SpiFlashErase
                0xffffffff8200127d                hal_SpiFlashWrite
                0xffffffff820013e9                hal_SpiFlashClose
                0xffffffff82001455                hal_SpiFlashOpen
                0xffffffff82001539                memd_FlashGetSectorLimits
                0xffffffff82001605                memd_SetFramsIrqIgnore
                0xffffffff82001609                memd_SysIsIdle
                0xffffffff8200160d                memd_FlashGetUserFieldInfo
                0xffffffff82001645                memd_FlashErase2SuspendTime
                0xffffffff82001649                memd_SuspendEnable
                0xffffffff82001655                memd_SuspendDisable
                0xffffffff82001661                memd_SuspendIsEnable
                0xffffffff82001675                memd_FlashRst
                0xffffffff82001685                memd_FlashGetGlobalAddress
                0xffffffff8200169d                memd_FlashRead
                0xffffffff820016e5                memd_FlashOpen
                0xffffffff82001735                memd_FlashWrite_Respond_Irq
                0xffffffff8200176d                memd_FlashWrite
                0xffffffff820017a5                memd_FlashErase
                0xffffffff82001855                memd_FlashErase_Respond_Irq
                0xffffffff82001905                memd_DdrGetTiming
                0xffffffff82001951                memd_AdjustRamClk
                0xffffffff820019e0                g_memdFlashBankLayout
                0xffffffff820019fc                g_memdFlashLayout

.bbsram         0xffffffff81980000     0x1e00
 hex/app/SW_V2112_csdk.elf(.bbsram)
 .bbsram        0xffffffff81980000     0x1e00 hex/app/SW_V2112_csdk.elf
                0xffffffff81980000                _bb_sram_romed_cached_start
                0xffffffff81980000                g_spcItlvBufTabSaic
                0xffffffff81980a00                g_spcItlvBufTab
                0xffffffff81981920                g_spcCtxStruct
                0xffffffff81981920                _bb_sram_romed_itlv_buf_end

.boot_sector_struct
                0xffffffff81c00220       0x1c
 hex/app/SW_V2112_csdk.elf(.boot_sector_struct)
 .boot_sector_struct
                0xffffffff81c00220       0x1c hex/app/SW_V2112_csdk.elf

.sramtext       0xffffffff81c01fc0     0x65f0 load address 0xffffffff88014a70
 hex/app/SW_V2112_csdk.elf(.sramtext)
 .sramtext      0xffffffff81c01fc0     0x65f0 hex/app/SW_V2112_csdk.elf
                0xffffffff81c01fc0                _sys_sram_txt_start
                0xffffffff81c01fc1                hal_LpsAllowSkipFrame
                0xffffffff81c01fcd                hal_LpsLightSleep
                0xffffffff81c01fe8                hal_lpsPuFsmRun
                0xffffffff81c02295                hal_LpsDeepSleep
                0xffffffff81c022f9                hal_LpsCalibrate
                0xffffffff81c02431                hal_RfspiRemWinCmd
                0xffffffff81c02469                hal_RfspiInitQueue
                0xffffffff81c02481                hal_RfspiFlushFifo
                0xffffffff81c024a5                hal_RfspiPushData
                0xffffffff81c02521                hal_RfspiFillFifo
                0xffffffff81c02689                hal_RfspiSetupFifo
                0xffffffff81c0272d                hal_RfspiNewCmd
                0xffffffff81c02805                hal_SpeechPushRxPopTx
                0xffffffff81c028f5                hal_TcuSetTco
                0xffffffff81c02905                hal_TcuClrTco
                0xffffffff81c02915                hal_TcuClrEvtRange
                0xffffffff81c02941                hal_TcuClrAllEvents
                0xffffffff81c02955                hal_TcuSetEvtPtr
                0xffffffff81c02961                hal_TcuGetEvtPtr
                0xffffffff81c0296d                hal_TcuSetEvent
                0xffffffff81c029e1                hal_TcuSetWrap
                0xffffffff81c02ab4                pmd_EnterDeepSleepStep2
                0xffffffff81c02af0                pmd_ExitDeepSleepStep1
                0xffffffff81c02b69                pmd_ExitDeepSleepStep2
                0xffffffff81c02bb1                pmd_EnterDeepSleepStep1
                0xffffffff81c0301d                PowerOffset
                0xffffffff81c03165                Pcl2dBm
                0xffffffff81c032dd                xcvSetArfcn
                0xffffffff81c0343d                xcvGetDigGain
                0xffffffff81c03479                rfd_XcvGetAgcGain
                0xffffffff81c034cd                rfd_XcvGetAfcOffset
                0xffffffff81c034d1                rfd_XcvSetRxTxTimeOffset
                0xffffffff81c034f9                rfd_XcvFrameStart
                0xffffffff81c034fd                rfd_XcvFrequencyTuning
                0xffffffff81c0364d                rfd_XcvRxOff
                0xffffffff81c036a1                xcvReadReg
                0xffffffff81c036d9                xcvBuildSpiCmd
                0xffffffff81c03715                rfd_XcvSleep
                0xffffffff81c03801                rfd_XcvWakeUp
                0xffffffff81c03865                rfd_XcvTxOff
                0xffffffff81c038b5                rfd_XcvTxOn
                0xffffffff81c04315                rfd_XcvRxOn
                0xffffffff81c04add                dtmf_calc_magnitude
                0xffffffff81c04bb9                hal_ComregsGetSnap
                0xffffffff81c04bc5                hal_ComregsClrMask
                0xffffffff81c04bfd                hal_ComregsSetMask
                0xffffffff81c04c35                hal_FintIrqGetStatus
                0xffffffff81c04c45                hal_FintUserHandler
                0xffffffff81c04c5d                hal_FintIrqHandler
                0xffffffff81c04c79                hal_GoudaGetTiming
                0xffffffff81c04c85                hal_GoudaSetTiming
                0xffffffff81c04c95                hal_GpioClr
                0xffffffff81c04ced                hal_GpioSet
                0xffffffff81c04d45                hal_IrqDispatch
                0xffffffff81c04f20                sxr_TaskSwap
                0xffffffff81c04ff0                sxr_JobSwap
                0xffffffff81c050f1                palSetUpperBound
                0xffffffff81c0510d                palGetBand
                0xffffffff81c05141                palCalcMonPower
                0xffffffff81c05181                pal_EnableAuxClkCtrl
                0xffffffff81c0518d                pal_SimIrqHandler
                0xffffffff81c05231                pal_SetDummyPchDetection
                0xffffffff81c05265                pal_GetDummyPchDetection
                0xffffffff81c05279                pal_SetCalibProcess
                0xffffffff81c05285                pal_SetFchDetectMode
                0xffffffff81c052b5                pal_GetNBurstResultMultslot
                0xffffffff81c05321                pal_UpdateCdacValue
                0xffffffff81c05339                pal_UpdateAfcDacValue
                0xffffffff81c05351                pal_GetCdacOffset
                0xffffffff81c05361                pal_GetAfcDacOffset
                0xffffffff81c05371                pal_DspIrqHandler
                0xffffffff81c053e9                pal_FintIrqHandler
                0xffffffff81c05409                pal_GetUsf
                0xffffffff81c05465                pal_GetFchResult
                0xffffffff81c05505                pal_ABurstEncoding
                0xffffffff81c055a9                pal_GetSchResult
                0xffffffff81c056f1                pal_GetMonResult
                0xffffffff81c05755                palReorderWin
                0xffffffff81c05819                pal_NblockEncoding
                0xffffffff81c05911                pal_GetNBlockResult
                0xffffffff81c05a8d                pal_GetNBurstResult
                0xffffffff81c05cc9                pal_TimeTuningSuspend
                0xffffffff81c05d2d                pal_FrequencyTuning
                0xffffffff81c05d8d                pal_TimeTuning
                0xffffffff81c05dfd                pal_TimeTuningSuspendCheck
                0xffffffff81c05e35                pal_SynchronizationChange
                0xffffffff81c05eed                pal_AuxClkOff
                0xffffffff81c05f11                pal_FrameEnd
                0xffffffff81c061c9                pal_FrameStart
                0xffffffff81c064b9                palProgramTxWin
                0xffffffff81c06605                pal_SetTxWin
                0xffffffff81c06829                palRxBstOff
                0xffffffff81c06891                pal_CloseFchRxWin
                0xffffffff81c06921                palRxBstOn
                0xffffffff81c06991                palSetBcpuTcuIrqAfterWinEndDate
                0xffffffff81c069ed                palProgramRxWin
                0xffffffff81c06d69                pal_SetNBurstRxWin
                0xffffffff81c06f5d                pal_SetSchRxWin
                0xffffffff81c0705d                pal_SetFchRxWin
                0xffffffff81c07195                pal_SetMonRxWin
                0xffffffff81c07271                _sxr_UpMemCallerAdd
                0xffffffff81c07289                sxr_GetLink
                0xffffffff81c07291                sxr_GetMemSize
                0xffffffff81c072a5                sxr_Link
                0xffffffff81c07311                _sxr_HFree
                0xffffffff81c07591                _sxr_HMalloc
                0xffffffff81c0787d                sxr_TimerDelivery
                0xffffffff81c078b9                sxr_ClearJEvent
                0xffffffff81c078e9                sxr_SkipFrameEndEvt
                0xffffffff81c078fd                sxr_IsJobInitializing
                0xffffffff81c07909                sxr_InitJobEventStatus
                0xffffffff81c07959                sxr_AutoStop
                0xffffffff81c079e9                sxr_WaitJEvent
                0xffffffff81c07bb9                sxr_RaiseJEvent
                0xffffffff81c07c9d                sxr_RaiseFrameJEvent
                0xffffffff81c07cc9                sxr_RaiseLongLivedJEvent
                0xffffffff81c07cf5                sxr_FrameBoundary
                0xffffffff81c07d59                sxr_GetJobWaitingPeriod
                0xffffffff81c07d89                sxr_WaitJDuration
                0xffffffff81c07ea1                sxr_FrameJobScheduling
                0xffffffff81c07fad                sxr_StopJob
                0xffffffff81c083fd                sxr_ResumeJob
                0xffffffff81c08509                sxr_ResetJob

.bss            0xffffffff8207aa00    0x35c90
 hex/app/SW_V2112_csdk.elf(.bss)
 .bss           0xffffffff8207aa00    0x35c90 hex/app/SW_V2112_csdk.elf
                0xffffffff8207aa00                g_halLpsSleptBefore
                0xffffffff8207aa01                g_halSysLpsLock
                0xffffffff8207aa04                g_halCalibration
                0xffffffff8207aa74                g_halSpeechMutedCount
                0xffffffff8207aa88                g_halSpeechFifo
                0xffffffff8207ac38                g_halModuleIfcChannelDebug
                0xffffffff8207ad38                g_halModuleIfcChannelDebugPos
                0xffffffff8207ad44                g_halTraceRxCtx
                0xffffffff8207adac                g_palCalibration
                0xffffffff8207adb0                g_palHandlers
                0xffffffff8207adbc                g_Calib_OnSite
                0xffffffff8207adbe                g_pmdMuteSpk
                0xffffffff8207ae64                g_pmdConfig
                0xffffffff8207ae72                g_usbCharging
                0xffffffff8207aef0                sxs_usrInitTaskId
                0xffffffff8207aef4                sxs_CmnTaskId
                0xffffffff8207af1c                pSimCtx
                0xffffffff8207af20                sim_Data
                0xffffffff8207b228                g_Semaphore
                0xffffffff8207b22c                Usim_ADNAddress
                0xffffffff8207b3ec                Usim_ADNPath
                0xffffffff8207b690                WaitSwTimer
                0xffffffff8207b694                g_sim_present
                0xffffffff8207b698                Dummy_AD_BinaryData
                0xffffffff8207b6a0                sm_Data
                0xffffffff8207b738                psm_Data
                0xffffffff8207b73c                sm_TabMobileOrgTI
                0xffffffff8207b77c                sm_TabNetworkOrgTI
                0xffffffff8207b7bc                SMS_debug_buffer_index
                0xffffffff8207b880                gp_smsCurData
                0xffffffff8207b884                SMS_debug_buffer
                0xffffffff8207b8d4                snd_Data
                0xffffffff8207b9ac                pSndCtx
                0xffffffff8207b9d8                gp_ssCurData
                0xffffffff8207b9e0                sxr_QueueDesc
                0xffffffff8207d060                sxr_QueueEnv
                0xffffffff8207e000                sxr_QueueFreeDesc
                0xffffffff8207e002                sxr_QueueFreeEnv
                0xffffffff8207e004                sxr_SemaInfo
                0xffffffff8207e15c                g_sxsFsIdleHookFuncPtr
                0xffffffff8207e160                g_sxsDebugIdleHookElem
                0xffffffff8207e188                g_sxRaiseTime
                0xffffffff8207e190                sxs_IoCtx
                0xffffffff8207e1d4                sxr_Job
                0xffffffff8207e1d8                sxr_Heap
                0xffffffff8207e2f0                sxr_Cluster
                0xffffffff8207e3d0                sxr_NbCluster
                0xffffffff8207e3d4                sxr_MemoryAlert
                0xffffffff8207e3dc                sxr_MemTracker
                0xffffffff8207e9e4                sxr_Mutex
                0xffffffff8207ea18                sxr_Sbx
                0xffffffff82081f90                sxs_Spy
                0xffffffff82082098                sxr_TCtx
                0xffffffff820820c0                sxr_TEnv
                0xffffffff82083064                sxr_Task
                0xffffffff82083610                g_uat_stran_callbck
                0xffffffff82083654                gpf_uflash_write_block
                0xffffffff82083658                gpf_uflash_read_block
                0xffffffff82083670                g_umss_flash_handler
                0xffffffff82083738                g_vppMicNoiseSuppressRAMX
                0xffffffff82085678                g_vppReceiverNoiseSuppressRAMX
                0xffffffff820875b8                g_vppAecRAMX
                0xffffffff820890e8                g_vppMicAgcRAMX
                0xffffffff820894d0                g_vppReceiverAgcRAMX
                0xffffffff820898b8                g_vppSpeechCode
                0xffffffff8208be38                g_vppSpeechRAMX
                0xffffffff8208ed18                g_api_rr_task_started
                0xffffffff8208ed20                apiData
                0xffffffff8208ed78                pAPIData
                0xffffffff8208ed7c                watchdogDoNotFeedInIdle
                0xffffffff8208ed80                g_audCodecGalliteAifCfg
                0xffffffff8208ed94                g_audSetHeadMaxDigitalGain
                0xffffffff8208ed95                g_audSetMicMaxGain
                0xffffffff8208edb8                g_BalFlashInitProgramDone
                0xffffffff8208edbc                g_BalTasks
                0xffffffff8208edcc                g_PreKeyCode
                0xffffffff8208ee78                g_calibUsedOpInfo
                0xffffffff8208ee80                g_calibUsedXcv
                0xffffffff8208ef28                g_calibUsedPa
                0xffffffff82090154                g_calibUsedBb
                0xffffffff82090ae0                g_calibUsedIIR
                0xffffffff82090bd0                g_calibUsed_audio_voc
                0xffffffff82092230                g_calibUsed_audio_music
                0xffffffff82092a48                gp_cb_Data
                0xffffffff82092aac                gp_ccCurData
                0xffffffff82092c24                g_CfwNVInfo
                0xffffffff82092c28                g_CfwNv
                0xffffffff820935c4                nQueueid
                0xffffffff820935c8                g_CosBaseAdd
                0xffffffff820935cc                g_CswBaseAdd
                0xffffffff820935d0                g_CosHeapSize
                0xffffffff820935d4                g_CswHeapSize
                0xffffffff820935d8                g_CswMallocNum
                0xffffffff820935dc                g_CosMallocNum
                0xffffffff820935e8                g_hCosMmiTask
                0xffffffff820935ec                g_hCosATTask
                0xffffffff820935f0                Playstate
                0xffffffff820935f4                PlayLenTemp
                0xffffffff820935f8                BzPlayState
                0xffffffff820935fc                g_VIBRATING_state
                0xffffffff82093600                g_FLASH_state
                0xffffffff82093604                gmycallback
                0xffffffff82093608                PlayLen
                0xffffffff8209360c                BzDuration
                0xffffffff82093610                BzBuffer
                0xffffffff82093614                g_KeyBoard_Init_Status
                0xffffffff82093615                Play_music
                0xffffffff82093616                audioBusy
                0xffffffff82093618                g_playToneAudioTempTime
                0xffffffff8209361c                isSPKMute
                0xffffffff82093620                term_num
                0xffffffff82093624                audioItf
                0xffffffff82093628                audioItfBackup
                0xffffffff8209362c                g_audioRecBufStart
                0xffffffff82093630                g_audioRecBufLen
                0xffffffff82093634                g_audioRecBufOffset
                0xffffffff82093638                gSpeakerOpen_stasus
                0xffffffff82093639                gMicOpen_stasus
                0xffffffff8209363a                Speeching
                0xffffffff8209363c                DTMF_duration
                0xffffffff8209363e                short_time_keytone
                0xffffffff82093658                g_spk_gain
                0xffffffff8209365c                cii_currentDTMF
                0xffffffff82093668                g_powerdown_cause
                0xffffffff8209366c                g_gpioDirection
                0xffffffff8209376c                g_padac_state
                0xffffffff82093894                g_xcvRfIniting
                0xffffffff82093895                gbw
                0xffffffff82093896                xtal_state
                0xffffffff82093898                g_rfdXcvRegForceWriteError
                0xffffffff8209389c                g_rfdXcvRegForceReadError
                0xffffffff820938b0                g_pDevDescrip
                0xffffffff820938b4                g_iDevDescripCount
                0xffffffff820938b8                g_pDsmDevInfo
                0xffffffff820938bc                g_iDsmDevCount
                0xffffffff820938c0                g_hDevSem
                0xffffffff820938c4                dtmf_frame_count
                0xffffffff820947e0                DecoderBuffer
                0xffffffff820951a0                g_fs_current
                0xffffffff82095434                g_fs_super_block_table
                0xffffffff82095438                g_fs_file_list
                0xffffffff8209543c                g_pFsDevInfo
                0xffffffff82095440                g_tstFsLocalErrCode
                0xffffffff8209544d                g_GpdacBusy
                0xffffffff8209547c                g_clk_sw
                0xffffffff82095488                g_halCfg
                0xffffffff8209548c                g_halDbgPalTrc
                0xffffffff82095b94                g_halDmaUserId
                0xffffffff82095b98                g_halDmaMode
                0xffffffff82095b9c                g_halDmaRegistry
                0xffffffff82095e60                l1_Sapi0FacchQueue
                0xffffffff82095e61                l1_Sapi3Queue
                0xffffffff82095e64                l1_Sapi0SacchPtr
                0xffffffff82095e68                l1_PCtrlQueue
                0xffffffff82095e69                l1_PDataQueue
                0xffffffff82095e6c                l1_PacketMeasurementReportPtr
                0xffffffff82095e70                l1_Ctx
                0xffffffff820968e4                SlicedCell
                0xffffffff820968e8                SpeedupNearList
                0xffffffff820968ea                DlPollingRsp
                0xffffffff820968ec                g_NBurstRxWin
                0xffffffff820968fc                lap_Data
                0xffffffff82096a2c                pLapCtx
                0xffffffff82096a30                lap_SapiIdx
                0xffffffff82096e24                llc_Data
                0xffffffff82096ec4                pLLCCtx
                0xffffffff82096f30                g_flash_cache
                0xffffffff82098f4c                g_Flag
                0xffffffff82098f50                g_Character
                0xffffffff82098f78                mmCtx
                0xffffffff82099168                pMMCtx
                0xffffffff8209916c                mmDulCtx
                0xffffffff82099171                g_fcch_detect_mode
                0xffffffff82099174                g_palDC
                0xffffffff820991fc                g_palFrame
                0xffffffff82099304                FcchWin
                0xffffffff8209934c                g_SimIndex
                0xffffffff82099350                g_palEtuParaF
                0xffffffff82099358                g_palEtuParaD
                0xffffffff8209935c                g_palSimClkStopMode
                0xffffffff82099404                rld_Data
                0xffffffff8209946c                pRLDCtx
                0xffffffff82099470                rlu_Data
                0xffffffff82099590                pRLUCtx
                0xffffffff82099594                rr_Data
                0xffffffff8209bc2c                pRRCtx
                0xffffffff8209bc30                psap_StackCfg
                0xffffffff8209bc34                ZhiBoXing
                0xffffffff8209bc35                UsfGran
                0xffffffff8209bc38                sap_StackCfg
                0xffffffff8209bce8                sap_StackDynCfg
                0xffffffff8209bcec                g_sms_dm_nv
                0xffffffff820a0598                g_SMS_DM_InitFlag
                0xffffffff820a059c                g_SMS_DM_Sem
                0xffffffff820a05a4                sxr_UsrCluster
                0xffffffff820a0724                sxr_NbUsrCluster
                0xffffffff820a0728                g_timer_list
                0xffffffff820a072c                errno
                0xffffffff820a0738                gCSWPowerOnTime
                0xffffffff820a073c                G_TM_Parameters
                0xffffffff820a0748                TIM_Glo_Infor_Buf
                0xffffffff820a0a04                TIM_LastErrorCode
                0xffffffff820a0b0c                g_UctlsStatus
                0xffffffff820a0b1c                g_cachenode
                0xffffffff820a0d3c                g_tst_erase_suspend_count
                0xffffffff820a0d40                g_pGcBuff
                0xffffffff820a1d40                g_VDS_partition_table
                0xffffffff820a2010                g_vds_partition_count
                0xffffffff820a2014                g_psSectRef
                0xffffffff820a2018                g_psRemainRef
                0xffffffff820a201c                g_sFlashInfo
                0xffffffff820a202c                g_tstVdsErrCode
                0xffffffff820a2030                g_iFlushAllowed
                0xffffffff820a2034                g_iVdsCacheHasInited
                0xffffffff820a20b4                g_msdfReload
                0xffffffff820a20b8                g_MIXVOICE_TYPE
                0xffffffff820a20bc                g_MIXVOICE_Handler
                0xffffffff820a20c0                g_AGCEnbleFlag
                0xffffffff820a20c4                g_SpkLevel
                0xffffffff820a20c8                g_AudInterface
                0xffffffff820a20cc                g_VoCRunFlag
                0xffffffff820a2190                g_RxBuf
                0xffffffff820a2410                g_TxBuf
                0xffffffff820a2690                g_curSeqPos
                0xffffffff820a2694                sinvalue_1
                0xffffffff820a269c                sinvalue_2
                0xffffffff820a26a4                g_DtmfGenState
                0xffffffff820a26a8                g_DtmfgenHandler
                0xffffffff820a26ac                sinparam_1
                0xffffffff820a26b4                sinparam_2
                0xffffffff820a2724                api_MsNwkCap
                0xffffffff820a2738                api_MsRACap
                0xffffffff820a27a0                api_LenMsRACap
                0xffffffff820a27a4                g_htstVdsTask
                0xffffffff820a27a8                handleApiTask
                0xffffffff820a27ac                handleMainTask
                0xffffffff820a27b0                isCfwInitComplete
                0xffffffff820a27b4                apiPlatformInitStatus
                0xffffffff820a27b8                aaaaaaaaaaaaaaaaaaaaaaaaaaaaaa
                0xffffffff820a27bc                isCfwInitCompleteBefore
                0xffffffff820a27cc                semDeleteMessage
                0xffffffff820a27d0                isDeleteSuccess
                0xffffffff820a28d4                socketIsUdpOrTcp
                0xffffffff820a28e8                socketDestPort
                0xffffffff820a2938                socketDestIp
                0xffffffff820a2b10                g_arsPcmBuf
                0xffffffff820a2db8                g_trace_Data
                0xffffffff820a2dbc                g_tracefileHandle
                0xffffffff820a2dc4                g_calibStubLocalCtx
                0xffffffff820a3354                CSN1Action_cc_852952723_Actions
                0xffffffff820a3358                g_aom_sem
                0xffffffff820a335c                CFW_Sys_Default_Proc
                0xffffffff820a33a4                AO_GoOnStatus
                0xffffffff820a33ac                AO_ControlBlock
                0xffffffff820a3a28                SIMOCStatus
                0xffffffff820a3a30                g_CFWStartStopStackFlag
                0xffffffff820a3a40                IndEventInfo
                0xffffffff820a3a48                gprs_sum
                0xffffffff820a3a58                g_SmsFormat_Sim0
                0xffffffff820a3a59                g_SmsFormat_Sim1
                0xffffffff820a3a5a                g_SmsFormat_Sim2
                0xffffffff820a3a5b                g_SmsFormat_Sim3
                0xffffffff820a3a5c                g_SmsShowTextMode_Sim0
                0xffffffff820a3a5d                g_SmsShowTextMode_Sim1
                0xffffffff820a3a5e                g_SmsShowTextMode_Sim2
                0xffffffff820a3a5f                g_SmsShowTextMode_Sim3
                0xffffffff820a3aa0                PdpContList
                0xffffffff820a3ad8                DnsServerIP
                0xffffffff820a3b48                store_packet_head
                0xffffffff820a3b4c                store_packet_end
                0xffffffff820a3b50                store_packet_cnt
                0xffffffff820a3b54                start_gprsDetach_timer
                0xffffffff820a3b98                gprs_flow_ctrl
                0xffffffff820a3ba8                pQosList
                0xffffffff820a3c18                CurAppCng
                0xffffffff820a3c28                GprsCidSavedInApp
                0xffffffff820a3c2c                IPAddress
                0xffffffff820a3c30                gCOMMMode
                0xffffffff820a3c38                gbLockBCCH
                0xffffffff820a3c44                gCSDelayInfo
                0xffffffff820a3c6c                g_NW_IND
                0xffffffff820a3c70                g_IMSI_INIT
                0xffffffff820a3c74                g_CFW_PowerOn
                0xffffffff820a3c78                g_SAT_IND
                0xffffffff820a3c7c                g_SAT_INIT_COMPLETE
                0xffffffff820a3c80                g_TestMode_AutoResponse
                0xffffffff820a3c88                g_TestMode_AutoEMCDial
                0xffffffff820a3c90                g_TestMode_AutoEMCDialNum
                0xffffffff820a3c98                g_SMSPInfo
                0xffffffff820a3ccc                g_SimInit1Status
                0xffffffff820a3cd4                g_SimInit2Status
                0xffffffff820a3cdc                g_SimInit3Status
                0xffffffff820a3ce4                g_SimInit3Status_p2
                0xffffffff820a3cec                bSatSimInit
                0xffffffff820a3d0c                gSimStage3Finish
                0xffffffff820a3d10                g_cfw_sim_status
                0xffffffff820a3d14                g_cfw_sim_adn_status
                0xffffffff820a3d18                gSPNInfo
                0xffffffff820a3d40                nICCID
                0xffffffff820a3d54                gTestSim
                0xffffffff820a3d5c                ADNInfo
                0xffffffff820a3d6c                gUsimAid
                0xffffffff820a3d90                gUsimLabel
                0xffffffff820a3dd8                gUsimEfStatus
                0xffffffff820a3de8                gUsimPin
                0xffffffff820a3f28                DIR_RECORD_NUM
                0xffffffff820a3f2c                DIR_CURRENT_NUM
                0xffffffff820a3f30                Sim_Lp
                0xffffffff820a3f38                gSimDropInd
                0xffffffff820a3f3c                nECC_Code
                0xffffffff820a3f4c                nUsimECC_Code
                0xffffffff820a3f60                g_GETIMSI
                0xffffffff820a3f64                nCommondNum
                0xffffffff820a3fec                gSatFreshComm
                0xffffffff820a3ff0                gSATTimerValue
                0xffffffff820a4038                cbCtx
                0xffffffff820a410c                gCbReadFile
                0xffffffff820a4120                gpLongerMsgPara
                0xffffffff820a4124                gpLongerMsgParaIndex
                0xffffffff820a4128                gPendingNewSms
                0xffffffff820a412c                gNewSMSInd
                0xffffffff820a4134                g_SMSConcat
                0xffffffff820a41ec                g_consumers
                0xffffffff820a42ec                DataCSN1Context
                0xffffffff820a63ec                g_sd_sleepIn
                0xffffffff820a6e18                g_FatCache
                0xffffffff820a6e1c                g_FatCahcheNum
                0xffffffff820a6e20                g_TstFsErrCode
                0xffffffff820a6e24                gAifClk
                0xffffffff820a6e44                ip_data
                0xffffffff820a6ee4                l1_SavedPsDataReqMsg
                0xffffffff820a6f30                audio_mode
                0xffffffff820a6f38                CSN1Action_mm_852952723_Actions
                0xffffffff820a6f3c                gnMmcMode
                0xffffffff820a6f40                gAudio
                0xffffffff820a6f5c                gRecord
                0xffffffff820a6f74                ev
                0xffffffff820a6f84                ev_play
                0xffffffff820a6f94                g_AMRConsumedLength
                0xffffffff820a6f98                g_AMRFILESIZE
                0xffffffff820a6fb0                amr_pcmbuf_overlay
                0xffffffff820a83b0                AmrPlayer
                0xffffffff820a83f8                g_ConsumedLength
                0xffffffff820a83fc                g_AudioMode
                0xffffffff820a8400                g_AudioSeekFlag
                0xffffffff820a8404                g_MPEGFILESIZE
                0xffffffff820a8408                G_VppSBCConstY
                0xffffffff820a8428                MpegPlayer
                0xffffffff820a84c0                g_WAVConsumedLength
                0xffffffff820a84c4                data_size
                0xffffffff820a84c8                G_WavSBCConstY
                0xffffffff820a851c                WavPlayer
                0xffffffff820a85c8                a2dp_sbc_strm
                0xffffffff820a85d4                g_calibEquRdyFlag
                0xffffffff820a85d5                FINT_counter
                0xffffffff820a86a8                neighbor_cache
                0xffffffff820a8860                destination_cache
                0xffffffff820a8a40                prefix_list
                0xffffffff820a8acc                default_router_list
                0xffffffff820a8c2c                h_errno
                0xffffffff820a8c34                netif_list
                0xffffffff820a8c38                netif_default
                0xffffffff820a8c3c                isPppActived
                0xffffffff820a8c40                g_ppp_ctx
                0xffffffff820a8c60                pbuf_free_ooseq_pending
                0xffffffff820a8c70                IsPUlAss
                0xffffffff820a8c74                ED_RR_P
                0xffffffff820a8c94                ED_RR_Q
                0xffffffff820a8cb4                CSN1Action_rrd_852952723_Actions
                0xffffffff820a8d40                g_MallocedCount
                0xffffffff820a8d44                g_Malloced_p
                0xffffffff820a9518                tcp_ticks
                0xffffffff820a951c                tcp_active_pcbs_changed
                0xffffffff820a9520                tcp_bound_pcbs
                0xffffffff820a9524                tcp_listen_pcbs
                0xffffffff820a9528                tcp_active_pcbs
                0xffffffff820a952c                tcp_tw_pcbs
                0xffffffff820a9568                tcp_input_pcb
                0xffffffff820a956c                udp_pcbs
                0xffffffff820a9570                G_Mp3DRCHistoryBuf
                0xffffffff820aa890                vpp_AudioJpegDecVocOpen_status
                0xffffffff820aa898                sndRecBuffer
                0xffffffff820aa89c                sndRecRingBuffer
                0xffffffff820aa8a0                sndRecBufferLength
                0xffffffff820aa8a4                rec_audioItf
                0xffffffff820aab80                pNetworkCallback
                0xffffffff820aab84                pdpContextId
                0xffffffff820aac50                g_location
                0xffffffff820aacc0                isAutoUpdateRtcTime
                0xffffffff820aae34                g_hAsynFsTask
                0xffffffff820aae54                _log
                0xffffffff820aae80                irqParamArray
                0xffffffff820aaf0c                spi1IrqHandler
                0xffffffff820aaf10                spi2IrqHandler
                0xffffffff820aaf64                uart1_rxbuf
                0xffffffff820ab364                uart2_rxbuf
                0xffffffff820ab764                connectionCallbackParam
                0xffffffff820ab80c                gps_uartWriteBuf
                0xffffffff820ac820                gps_uartReadBuf
                0xffffffff820ad834                gps_uartHwBuf
                0xffffffff820ade34                DL_process_handler
                0xffffffff820b03fc                certProfile
                0xffffffff820b0440                ca_pem
                0xffffffff820b0444                cert_pem
                0xffffffff820b0448                key_pem

.sys_sram_overlay_3
                0xffffffff81c09690       0x10 load address 0xffffffff8801b7b0
 hex/app/SW_V2112_csdk.elf(.sys_sram_overlay_3)
 .sys_sram_overlay_3
                0xffffffff81c09690       0x10 hex/app/SW_V2112_csdk.elf

.bbsram_patch_text
                0xffffffff81986800     0x1070 load address 0xffffffff88011620
 hex/app/SW_V2112_csdk.elf(.bbsram_patch_text)
 .bbsram_patch_text
                0xffffffff81986800     0x1070 hex/app/SW_V2112_csdk.elf
                0xffffffff81986800                _bb_sram_patch_text_start
                0xffffffff81986801                patch_spc_CCHRxProcess
                0xffffffff81987019                patch_spp_EqualizeNBurstSaic
                0xffffffff81987431                patch_spp_EqualizeNBurst
                0xffffffff81987870                _bb_sram_patch_text_end

.bbsramu        0xffffffffa1981e00     0x1bf0
 hex/app/SW_V2112_csdk.elf(.bbsramu)
 .bbsramu       0xffffffffa1981e00     0x1bf0 hex/app/SW_V2112_csdk.elf
                0xffffffffa1981e00                _mbbsramu
                0xffffffffa1981e00                _bb_sram_romed_uncached_start
                0xffffffffa1981e00                g_spcStaticBufTabSaic
                0xffffffffa19822f0                g_spcStaticBufTab

.bcpu_bss       0xffffffff82000a00       0x10
 hex/app/SW_V2112_csdk.elf(.bcpu_bss)
 .bcpu_bss      0xffffffff82000a00       0x10 hex/app/SW_V2112_csdk.elf

.bcpu_rom_rodata
                0xffffffff81e937b0     0x46f0
 hex/app/SW_V2112_csdk.elf(.bcpu_rom_rodata)
 .bcpu_rom_rodata
                0xffffffff81e937b0     0x46f0 hex/app/SW_V2112_csdk.elf
                0xffffffff81e937b0                bcpu_romCsString
                0xffffffff81e937dc                bcpu_romDT
                0xffffffff81e9381c                g_sppCsCrcParam
                0xffffffff81e9398c                g_sppCsConvParam
                0xffffffff81e93afc                g_sppCsSrcParam
                0xffffffff81e93b8c                g_sppVitacDecParam
                0xffffffff81e93c44                g_sppVitacPolyres
                0xffffffff81e93c64                g_sppInputLengthBitAfs
                0xffffffff81e93c6c                g_sppAfsReorderTables
                0xffffffff81e93c8c                g_sppInputLengthBitAhs
                0xffffffff81e93c94                g_sppAhsReorderTables
                0xffffffff81e93cac                g_sppMatrixHr
                0xffffffff81e93d8c                g_sppMatrixFrInv
                0xffffffff81e93f94                g_sppMatrixEfr1
                0xffffffff81e93fd8                g_sppMatrixEfr1Inv
                0xffffffff81e9401c                g_sppMatrixEfr2Inv
                0xffffffff81e94214                g_sppNbFwequStartSt
                0xffffffff81e94234                g_sppNbBwequStartSt
                0xffffffff81e94254                g_sppGsmTscSch
                0xffffffff81e9425c                g_sppGsmTscAburst
                0xffffffff81e94264                g_sppGsmTscAburst_1
                0xffffffff81e9426c                g_sppGsmTscAburst_2
                0xffffffff81e94274                g_sppGsmTscNburst
                0xffffffff81e942f4                g_sppSaicTable
                0xffffffff81e9433c                g_sppSaicPMatrixTable
                0xffffffff81e94354                g_sppUsfCs2Cs3
                0xffffffff81e9435c                g_spp_UsfCs4
                0xffffffff81e9436c                g_sppIcSidRatscch
                0xffffffff81e94374                g_sppIcAfsSpeech
                0xffffffff81e9437c                g_sppIcAhsSpeech
                0xffffffff81e94384                g_sppImAfsSid
                0xffffffff81e943a0                g_sppImAhsSid
                0xffffffff81e943c0                g_sppImRatscch
                0xffffffff81e943e0                g_sppAfsSidMarker
                0xffffffff81e943fc                g_sppAhsSidMarker
                0xffffffff81e94418                g_sppRatscchMarker
                0xffffffff81e94434                g_sppConvOutLengthBitAhs
                0xffffffff81e9443c                g_sppConvOutMaskAhs
                0xffffffff81e94454                g_spp_8TapChestTab
                0xffffffff81e94dd4                g_sppChestTab
                0xffffffff81e96a30                g_sppCsPuncturingTable
                0xffffffff81e97684                g_sppPCH_vector_a
                0xffffffff81e977dc                g_sppPCH_vector_b1
                0xffffffff81e97830                g_sppPCH_vector_b2
                0xffffffff81e97884                g_sppPCH_vector_b3
                0xffffffff81e978d8                g_sppPCH_vector_b4
                0xffffffff81e9792c                g_sppPCH_b_pos
                0xffffffff81e97980                g_sppPCH_size_vector_b
                0xffffffff81e979bc                g_sppMapVersion
                0xffffffff81e97a10                g_spalMapAccess
                0xffffffff81e97a14                g_spalMapVersion
                0xffffffff81e97a5c                LUT_8PSK
                0xffffffff81e97a7c                PSK8_ROTATE
                0xffffffff81e97abc                GMSK_ROTATE
                0xffffffff81e97afc                spal_GdbGBreak
                0xffffffff81e97ba4                AFSfilterCI
                0xffffffff81e97c70                AHSfilterCI
                0xffffffff81e97d34                spcSizeFromMCS
                0xffffffff81e97d84                g_spcMapVersion

.bootsramtext   0xffffffff81c01b10      0x430 load address 0xffffffff880145c0
 hex/app/SW_V2112_csdk.elf(.bootsramtext)
 .bootsramtext  0xffffffff81c01b10      0x430 hex/app/SW_V2112_csdk.elf
                0xffffffff81c01b10                boot_SysSetupPLL
                0xffffffff81c01b9c                boot_SysShutdownPLL
                0xffffffff81c01be5                boot_SysGetChipId
                0xffffffff81c01c29                hal_HstSendEvent
                0xffffffff81c01c85                hal_SysSetSpiFlashClkToFast
                0xffffffff81c01ca9                hal_SysWaitMicrosecond
                0xffffffff81c01ce5                hal_TimDelay
                0xffffffff81c01cfd                hal_TimGetUpTime
                0xffffffff81c01d09                boot_EbcCsSetupWithCallback
                0xffffffff81c01d51                hal_DisableUsbDp
                0xffffffff81c01d65                hal_IspiRegWrite
                0xffffffff81c01dc9                hal_IspiTxFinished
                0xffffffff81c01dd9                hal_IspiTxFifoAvail
                0xffffffff81c01de9                hal_IspiSendData
                0xffffffff81c01e21                memd_FlashWakeup
                0xffffffff81c01e31                memd_FlashSleep
                0xffffffff81c01e41                memd_GetCfgDDRIndex

.bbsram_globals
                0xffffffff81986640      0x1b9
 hex/app/SW_V2112_csdk.elf(.bbsram_globals)
 .bbsram_globals
                0xffffffff81986640      0x1b9 hex/app/SW_V2112_csdk.elf
                0xffffffff81986640                bcpu_error_code
                0xffffffff81986640                _bb_sram_romed_globals_start
                0xffffffff81986644                bcpu_error_status
                0xffffffff81986648                bcpu_sp_context
                0xffffffff8198664c                bcpu_stack_base
                0xffffffff81986650                bcpu_main_entry
                0xffffffff81986654                spal_GdbGData
                0xffffffff8198665c                g_spalIrqRegistry
                0xffffffff81986660                g_spalProfileControl
                0xffffffff8198668c                g_spcAmrState
                0xffffffff81986694                g_spcCtxAmrCfgTxChg
                0xffffffff81986698                g_spcRxCountTcu
                0xffffffff8198669c                g_spcSwTxFifo
                0xffffffff81986788                g_sppGlobalParams
                0xffffffff819867c0                g_sppA53CountInit
                0xffffffff819867c4                g_sppCipherCipherA53Nb
                0xffffffff819867c8                g_sppCipherDecipherA53Nb
                0xffffffff819867f8                g_sppFullBurstReady
                0xffffffff819867f9                _bb_sram_romed_globals_end

.ucdata         0xffffffffa2016c00      0x240 load address 0xffffffff880318e0
 hex/app/SW_V2112_csdk.elf(.ucdata)
 .ucdata        0xffffffffa2016c00      0x240 hex/app/SW_V2112_csdk.elf
                0xffffffffa2016c00                g_halLpsForceNoSleep
                0xffffffffa2016c00                _ram_uncached_data_start
                0xffffffffa2016c04                g_halTraceSwitchPortCmd
                0xffffffffa2016c08                g_pmdMapVersion
                0xffffffffa2016c18                g_pmdMapAccess
                0xffffffffa2016c7c                g_sxsDebugIdleHookEnable
                0xffffffffa2016c80                g_voisMapVersion
                0xffffffffa2016c90                g_vppMapVersion
                0xffffffffa2016ca0                g_vppMapAccess
                0xffffffffa2016ca0                g_arsMapVersion
                0xffffffffa2016cb0                g_audMapVersion
                0xffffffffa2016cb0                g_arsMapAccess
                0xffffffffa2016cc0                g_audMapAccess
                0xffffffffa2016cc0                g_calibCalibration
                0xffffffffa2016d10                hal_cacheFlushLine
                0xffffffffa2016d50                g_halMapVersion
                0xffffffffa2016d60                g_lcddMapVersion
                0xffffffffa2016d70                g_palMapVersion
                0xffffffffa2016d70                g_lcddMapAccess
                0xffffffffa2016d80                g_palMapAccess
                0xffffffffa2016d80                g_rfdMapAccess
                0xffffffffa2016d80                g_cswMapVersion
                0xffffffffa2016d90                g_cswMapAccess
                0xffffffffa2016d90                g_stdMapVersion
                0xffffffffa2016da0                g_sxMapVersion
                0xffffffffa2016da0                g_stdMapAccess
                0xffffffffa2016db0                g_sxMapAccess
                0xffffffffa2016dd0                g_voisCtx

.bcpu_sramtext  0xffffffff81c00680     0x1450 load address 0xffffffff880129e0
 hex/app/SW_V2112_csdk.elf(.bcpu_sramtext)
 .bcpu_sramtext
                0xffffffff81c00680     0x1450 hex/app/SW_V2112_csdk.elf
                0xffffffff81c00680                _bcpu_sys_sram_txt_start
                0xffffffff81c00681                spc_CchDump
                0xffffffff81c0069d                patch_spc_UpdateSaicStatus
                0xffffffff81c00739                patch_spc_IrqHandler
                0xffffffff81c00a99                patch_spc_BfiFilter
                0xffffffff81c00bd9                patch_spc_TCHRxProcess
                0xffffffff81c014a9                patch_spp_GetUSF1
                0xffffffff81c015a9                patch_spp_SearchFcch

.bcpu_sramucdata
                0xffffffffa1c01ad0       0x40 load address 0xffffffff88013e30
 hex/app/SW_V2112_csdk.elf(.bcpu_sramucdata)
 .bcpu_sramucdata
                0xffffffffa1c01ad0       0x40 hex/app/SW_V2112_csdk.elf
                0xffffffffa1c01ad0                g_mailbox_pal2spc_RxBufInd
                0xffffffffa1c01ad0                _bcpu_sys_sram_uncached_start
                0xffffffffa1c01ad2                UsfDistanceNormal
                0xffffffffa1c01ad4                DistanceMaxNormal
                0xffffffffa1c01ad6                UsfDistanceSaic
                0xffffffffa1c01ad8                DistanceMaxSaic
                0xffffffffa1c01adc                g_mailbox_pal2spc_rxBandInd
                0xffffffffa2000a00                _bcpu_ram_uncached_start
                0xffffffff81c01ad0                _bcpu_sys_sram_cached_start
                0xffffffff82000a00                _bcpu_ram_txt_start
                0xffffffff82000a00                _bcpu_ram_cached_start

.data           0xffffffff82016e40    0x3f9c0 load address 0xffffffff88031b20
 hex/app/SW_V2112_csdk.elf(.data)
 .data          0xffffffff82016e40    0x3f9c0 hex/app/SW_V2112_csdk.elf
                0xffffffff82016e40                _ram_cached_data_start
                0xffffffff82016e48                g_voiceMuteEnabled
                0xffffffff82016ed8                pal_low_rla_var
                0xffffffff82016ed9                pal_snr_factor_var
                0xffffffff82016eda                pal_pll_lock_time
                0xffffffff82016edc                g_pmdChargerInIrqEnabled
                0xffffffff82016f30                sim_ElementaryFileAddress
                0xffffffff82017284                sim_FilePath
                0xffffffff82017784                sim_FilePathLength
                0xffffffff8201785c                g_F
                0xffffffff8201787c                g_D
                0xffffffff8201788c                g_sim_status
                0xffffffff82017890                Dummy_SST_StatusData
                0xffffffff820178a0                Dummy_SST_BinaryData
                0xffffffff820178ac                Dummy_AD_StatusData
                0xffffffff820178bc                Dummy_LOCI_StatusData
                0xffffffff820178cc                Dummy_LOCI_BinaryData
                0xffffffff820178d8                Dummy_ACC_BinaryData
                0xffffffff820178dc                default_content
                0xffffffff8201795c                sm_Fsm
                0xffffffff82017abc                snd_Fsm
                0xffffffff82017c1c                ss_Fsm
                0xffffffff82017c2c                sxr_ProfileCfg
                0xffffffff82017c30                g_sxTraceEnabled
                0xffffffff82017c34                g_tgtPmdCfg
                0xffffffff82017d88                pstr_remind
                0xffffffff82017de4                g_vppSpeechMainCode
                0xffffffff82018974                g_vppHrCode
                0xffffffff8201cca0                g_vppEfrAmrCode
                0xffffffff8201e9e0                g_vppFrCode
                0xffffffff820207ec                g_vppAmrCode
                0xffffffff82021a18                g_vppEfrCode
                0xffffffff82022b20                g_vppAmrEncCode475
                0xffffffff82023acc                g_vppAmrEncCode515
                0xffffffff820247ac                g_vppAmrEncCode59
                0xffffffff82025450                g_vppAmrEncCode67
                0xffffffff820261c4                g_vppAmrEncCode74
                0xffffffff82026ec0                g_vppAmrEncCode795
                0xffffffff82027e64                g_vppAmrEncCode102
                0xffffffff82028da4                g_vppAmrEncCode122
                0xffffffff82029d68                g_vppAmrDecCode475
                0xffffffff8202a260                g_vppAmrDecCode515
                0xffffffff8202a73c                g_vppAmrDecCode59
                0xffffffff8202ac30                g_vppAmrDecCode67
                0xffffffff8202afe4                g_vppAmrDecCode74
                0xffffffff8202b298                g_vppAmrDecCode795
                0xffffffff8202b5c8                g_vppAmrDecCode102
                0xffffffff8202b980                g_vppAmrDecCode122
                0xffffffff8202be78                g_vppEfrAmrConstX
                0xffffffff8202ea00                g_vppEfrAmrConstY
                0xffffffff820327f0                g_vppHrConstX
                0xffffffff82033c3c                g_vppHrConstY
                0xffffffff82036558                g_vppAecConstantX
                0xffffffff820367b8                g_vppAecCode
                0xffffffff82038c24                g_vppNoiseSuppressCode
                0xffffffff8203aa74                g_vppNoiseSuppressConstantX
                0xffffffff8203b968                g_vppAgcCode
                0xffffffff8203cb14                g_vppAgcConstantX
                0xffffffff8203cca4                Api_Fsm
                0xffffffff8203ccc4                musicItf
                0xffffffff8203ccd9                turn_key
                0xffffffff8203ccda                g_calibStubTaskId
                0xffffffff8203ccdb                g_calibStubMbx
                0xffffffff8203ccdc                cb_Fsm
                0xffffffff8203ccfc                ccStateTab
                0xffffffff8203cd08                cc_Fsm
                0xffffffff8203cd18                g_BUZZER_set
                0xffffffff8203cd1c                GPIO_VIBRATING
                0xffffffff8203cd1d                BzVolume
                0xffffffff8203cd20                DM_Note_Table
                0xffffffff8203cd80                uLcdLevel
                0xffffffff8203cd81                uKeyLevel
                0xffffffff8203cd84                gTone_Audio_Total_time
                0xffffffff8203cd88                g_mic_gain
                0xffffffff8203cd8c                term_slefdefine
                0xffffffff8203cd9c                selfdefine_tone
                0xffffffff8203cda4                cii_tone_sate
                0xffffffff8203cda8                gAudio_mode
                0xffffffff8203cdac                audio_cfg
                0xffffffff8203cdbc                audioStream
                0xffffffff8203cdd8                spkLevelBackup
                0xffffffff8203cddc                micLevelBackup
                0xffffffff8203cde0                PowerOn_Cause
                0xffffffff8203cde4                g_rfdILossInit
                0xffffffff8203ce2c                dtmfValid
                0xffffffff8203ce30                col_threshold
                0xffffffff8203ce34                dtmf_dt_flag
                0xffffffff8203ce38                g_fs_sem
                0xffffffff8203ce3c                g_fs_cfg
                0xffffffff8203dacc                g_halSdmmcWriteCh
                0xffffffff8203dacd                g_halSdmmcReadCh
                0xffffffff8203dc10                l1_PUlDumCtrl
                0xffffffff8203dc28                l1s_L2FillFrame
                0xffffffff8203dc44                lap_Fsm
                0xffffffff8203dc84                lle_Fsm
                0xffffffff8203dda0                TmsiInvalid
                0xffffffff8203dda4                LaiInvalid
                0xffffffff8203dda8                PTmsiSignInvalid
                0xffffffff8203ddac                mmc_Fsm
                0xffffffff8203ddcc                mmp_Fsm
                0xffffffff8203ddec                g_Sim0VoltLevel
                0xffffffff8203dded                g_Sim1VoltLevel
                0xffffffff8203ddee                g_Sim2VoltLevel
                0xffffffff8203ddef                g_Sim3VoltLevel
                0xffffffff8203ddf0                g_palEtuClkInvFlag
                0xffffffff8203ddf4                g_TS
                0xffffffff8203ddf8                g_palSimList
                0xffffffff8203de0c                g_rfdMapVersion
                0xffffffff8203de1c                rldDataSizeCS
                0xffffffff8203de20                rlu_Fsm
                0xffffffff8203de7c                rr_MultislotCap
                0xffffffff8203dea0                rrd_Fsm
                0xffffffff8203dec0                rri_CFsm
                0xffffffff8203dee0                rri_PFsm
                0xffffffff8203df00                rrp_PRachCause
                0xffffffff8203df08                GsimUnaware
                0xffffffff8203df28                g_stack_sm_t3380_value
                0xffffffff8203df2c                smc_MO_Fsm
                0xffffffff8203df4c                smc_MT_Fsm
                0xffffffff8203df6c                smr_MO_Fsm
                0xffffffff8203df8c                smr_MT_Fsm
                0xffffffff8203dfac                g_stackMapVersion
                0xffffffff8203dfbc                g_stackMapAccess
                0xffffffff8203dfd0                g_GcScane
                0xffffffff8203e0e8                g_amplitude
                0xffffffff8203e0ec                g_durationnum
                0xffffffff8203e0f0                g_silencennum
                0xffffffff8203e11c                sl1_L2FillFrame
                0xffffffff8203e13c                CSN1Action_cc_444111116_Actions
                0xffffffff8203e160                CSN1Action_cc_931186599_Actions
                0xffffffff8203e1a4                CSN1Action_cc_400867018_Actions
                0xffffffff8203e1c8                CSN1Action_cc_1201086337_Actions
                0xffffffff8203e1ec                CSN1Action_cc_3815527810_Actions
                0xffffffff8203e230                CSN1Action_cc_4122251973_Actions
                0xffffffff8203e254                CSN1Action_cc_3248223767_Actions
                0xffffffff8203e278                CSN1Action_cc_2858390854_Actions
                0xffffffff8203e29c                CSN1Action_cc_2573661299_Actions
                0xffffffff8203e2c0                CSN1Action_cc_2151347776_Actions
                0xffffffff8203e2e4                CSN1Action_cc_3003357045_Actions
                0xffffffff8203e308                CSN1Action_cc_133130082_Actions
                0xffffffff8203e32c                CSN1Action_cc_3775613770_Actions
                0xffffffff8203e350                CSN1Action_cc_1725880936_Actions
                0xffffffff8203e374                CSN1Action_cc_3108273707_Actions
                0xffffffff8203e398                CSN1Action_cc_1075303956_Actions
                0xffffffff8203e3bc                CSN1Action_cc_49129937_Actions
                0xffffffff8203e3e0                CSN1Action_cc_2659164212_Actions
                0xffffffff8203e404                CSN1Action_cc_634812366_Actions
                0xffffffff8203e428                CSN1Action_cc_1706666803_Actions
                0xffffffff8203e44c                CSN1Action_cc_820373715_Actions
                0xffffffff8203e470                CSN1Action_cc_2242778983_Actions
                0xffffffff8203e4b4                CSN1Action_cc_3797123900_Actions
                0xffffffff8203e4d8                CSN1Action_cc_626852723_Actions
                0xffffffff8203e4fc                CSN1Action_cc_4124638579_Actions
                0xffffffff8203e520                CSN1Action_cc_852917564_Actions
                0xffffffff8203e544                CSN1Action_cc_3910935046_Actions
                0xffffffff8203e550                CSN1Action_cc_1841477667_Actions
                0xffffffff8203e578                CSN1Action_cc_3603190230_Actions
                0xffffffff8203e588                CSN1Action_cc_2000878133_Actions
                0xffffffff8203e618                CSN1Action_cc_1551163954_Actions
                0xffffffff8203e660                CSN1Action_cc_2988756088_Actions
                0xffffffff8203e66c                CSN1Action_cc_1299413427_Actions
                0xffffffff8203e678                CSN1Action_cc_1370079816_Actions
                0xffffffff8203e680                CSN1Action_cc_2668768181_Actions
                0xffffffff8203e690                CSN1Action_cc_275842905_Actions
                0xffffffff8203e6a4                CSN1Action_cc_2888958485_Actions
                0xffffffff8203e6cc                CSN1Action_cc_532227770_Actions
                0xffffffff8203e6d8                CSN1Action_cc_1707433197_Actions
                0xffffffff8203e6e4                CSN1Action_cc_813585101_Actions
                0xffffffff8203e6f0                CSN1Action_cc_2686291257_Actions
                0xffffffff8203e6fc                CSN1Action_cc_2986951842_Actions
                0xffffffff8203e708                CSN1Action_cc_3974991088_Actions
                0xffffffff8203e714                CSN1Action_cc_2128213795_Actions
                0xffffffff8203e720                CSN1Action_cc_727906563_Actions
                0xffffffff8203e72c                CSN1Action_cc_1754470270_Actions
                0xffffffff8203e738                CSN1Action_cc_193127317_Actions
                0xffffffff8203e768                CSN1Action_cc_3375202559_Actions
                0xffffffff8203e794                CSN1Action_cc_1245712084_Actions
                0xffffffff8203e7c4                CSN1Action_cc_3266869057_Actions
                0xffffffff8203e7d8                CSN1Action_cc_1476502180_Actions
                0xffffffff8203e7e8                CSN1Action_cc_3353783689_Actions
                0xffffffff8203e7f4                CSN1Action_cc_1653083693_Actions
                0xffffffff8203e7fc                CSN1Action_cc_681416798_Actions
                0xffffffff8203e808                CSN1Action_cc_796677307_Actions
                0xffffffff8203e814                CSN1Action_cc_2766579062_Actions
                0xffffffff8203e820                CSN1Action_cc_1420649506_Actions
                0xffffffff8203e82c                CSN1Action_cc_827491236_Actions
                0xffffffff8203e838                CSN1Action_cc_262541364_Actions
                0xffffffff8203e84c                CSN1Action_cc_2207852933_Actions
                0xffffffff8203e85c                CSN1Action_cc_3020789524_Actions
                0xffffffff8203e868                CSN1Action_cc_4197697887_Actions
                0xffffffff8203e87c                CSN1Action_cc_1303189246_Actions
                0xffffffff8203e884                CSN1Action_cc_3201809906_Actions
                0xffffffff8203e88c                CSN1Action_cc_4051522621_Actions
                0xffffffff8203e8a0                CSN1Action_cc_3409003004_Actions
                0xffffffff8203e8ac                CSN1Action_cc_4073983436_Actions
                0xffffffff8203e8b8                CSN1Action_cc_3664392443_Actions
                0xffffffff8203e8c4                CSN1Action_cc_3703184713_Actions
                0xffffffff8203e8d0                CSN1Action_cc_3445233437_Actions
                0xffffffff8203e8dc                CSN1Action_cc_840315633_Actions
                0xffffffff8203e8f0                CSN1Action_cc_2024367848_Actions
                0xffffffff8203e964                CSN1Action_cc_1465459865_Actions
                0xffffffff8203e994                CSN1Action_cc_3501688733_Actions
                0xffffffff8203e9a8                CSN1Action_cc_377527041_Actions
                0xffffffff8203e9bc                CSN1Action_cc_3331057133_Actions
                0xffffffff8203e9d0                CSN1Action_cc_2226886432_Actions
                0xffffffff8203e9f0                CSN1Action_cc_2934334830_Actions
                0xffffffff8203e9fc                CSN1Action_cc_3400590874_Actions
                0xffffffff8203ea08                CSN1Action_cc_3382778295_Actions
                0xffffffff8203ea14                CSN1Action_cc_67122536_Actions
                0xffffffff8203ea20                CSN1Action_cc_2294833426_Actions
                0xffffffff8203ea2c                CSN1Action_cc_4208198203_Actions
                0xffffffff8203ea38                CSN1Action_cc_3555498293_Actions
                0xffffffff8203ea44                CSN1Action_cc_1671890077_Actions
                0xffffffff8203ea58                CSN1Action_cc_2762580295_Actions
                0xffffffff8203ea80                CSN1Action_cc_2473740054_Actions
                0xffffffff8203ea90                CSN1Action_cc_2266540147_Actions
                0xffffffff8203eadc                CSN1Action_cc_3536840962_Actions
                0xffffffff8203eb0c                CSN1Action_cc_843726042_Actions
                0xffffffff8203eb54                CSN1Action_cc_3710005275_Actions
                0xffffffff8203eb60                CSN1Action_cc_3749297656_Actions
                0xffffffff8203eb6c                CSN1Action_cc_1897139565_Actions
                0xffffffff8203eb78                CSN1Action_cc_410193901_Actions
                0xffffffff8203eb84                CSN1Action_cc_2385887278_Actions
                0xffffffff8203eb90                CSN1Action_cc_4224949542_Actions
                0xffffffff8203eb98                CSN1Action_cc_3605156616_Actions
                0xffffffff8203ebc0                CSN1Action_cc_4182485271_Actions
                0xffffffff8203ebd0                CSN1Action_cc_1040633023_Actions
                0xffffffff8203ec44                CSN1Action_cc_210500043_Actions
                0xffffffff8203ec6c                CSN1Action_cc_2213595614_Actions
                0xffffffff8203ec7c                CSN1Action_cc_1683811483_Actions
                0xffffffff8203ecac                CSN1Action_cc_607771889_Actions
                0xffffffff8203ecf4                CSN1Action_cc_4010734005_Actions
                0xffffffff8203ed04                CSN1Action_cc_3570087538_Actions
                0xffffffff8203ed2c                CSN1Action_cc_3766743187_Actions
                0xffffffff8203ed3c                CSN1Action_cc_2826991294_Actions
                0xffffffff8203edcc                CSN1Action_cc_907963356_Actions
                0xffffffff8203ee14                CSN1Action_cc_809346664_Actions
                0xffffffff8203ee20                CSN1Action_cc_4172668897_Actions
                0xffffffff8203ee2c                CSN1Action_cc_1713566261_Actions
                0xffffffff8203ee38                CSN1Action_cc_3170572631_Actions
                0xffffffff8203ee44                CSN1Action_cc_1897261891_Actions
                0xffffffff8203ee50                CSN1Action_cc_988398749_Actions
                0xffffffff8203ee5c                CSN1Action_cc_137022685_Actions
                0xffffffff8203ee68                CSN1Action_cc_2947784073_Actions
                0xffffffff8203ee70                CSN1Action_cc_2079062065_Actions
                0xffffffff8203ee84                CSN1Action_cc_1681691394_Actions
                0xffffffff8203ee90                CSN1Action_cc_2635619618_Actions
                0xffffffff8203ee9c                CSN1Action_cc_1456211332_Actions
                0xffffffff8203eeb0                CSN1Action_cc_3752490235_Actions
                0xffffffff8203eeb8                CSN1Action_cc_1352558557_Actions
                0xffffffff8203eec0                CSN1Action_cc_3675174633_Actions
                0xffffffff8203eed0                CSN1Action_cc_2705093056_Actions
                0xffffffff8203eee4                CSN1Action_cc_215255762_Actions
                0xffffffff8203ef14                CSN1Action_cc_310141753_Actions
                0xffffffff8203ef44                CSN1Action_cc_866215047_Actions
                0xffffffff8203ef6c                CSN1Action_cc_3942000816_Actions
                0xffffffff8203ef7c                CSN1Action_cc_2547294548_Actions
                0xffffffff8203efc8                CSN1Action_cc_599709352_Actions
                0xffffffff8203eff8                CSN1Action_cc_3446269274_Actions
                0xffffffff8203f040                CSN1Action_cc_3414644666_Actions
                0xffffffff8203f068                CSN1Action_cc_3686771038_Actions
                0xffffffff8203f078                CSN1Action_cc_1301849335_Actions
                0xffffffff8203f0ec                IND_EVENT_general
                0xffffffff8203f0f0                MemoryInfo
                0xffffffff8203f114                gprs_flow_ctrl_G
                0xffffffff8203f11c                nMEProfileSIM
                0xffffffff8203f140                nMEProfileUSIM
                0xffffffff8203f164                gSimStatus
                0xffffffff8203f17c                gTempPin
                0xffffffff8203f188                CommandDetails
                0xffffffff8203f194                DeviceIdentities
                0xffffffff8203f19c                CallControlDownload
                0xffffffff8203f1a4                gSatPollTimer
                0xffffffff8203f1ac                g_cfw_sms_max_num
                0xffffffff8203f1b0                gSmsService
                0xffffffff8203f1cc                CSN1Action_FAIL
                0xffffffff8203f1d0                CSN1Action_SUCCESS
                0xffffffff8203f1d4                CSN1Action_NULL
                0xffffffff8203f2a4                e2p_HRSupported
                0xffffffff8203f2a8                g_halOverlayOwners
                0xffffffff8203f2b0                CSN1Action_mm_1623356742
                0xffffffff8203f2b4                CSN1Action_mm_812881617
                0xffffffff8203f2b8                CSN1Action_mm_2109956447
                0xffffffff8203f2bc                CSN1Action_mm_3106624490
                0xffffffff8203f2c0                CSN1Action_mm_3793200950_Actions
                0xffffffff8203f2cc                CSN1Action_mm_3793200950
                0xffffffff8203f2d4                CSN1Action_mm_452156319
                0xffffffff8203f2d8                CSN1Action_mm_3915230450
                0xffffffff8203f2dc                CSN1Action_mm_1949137066
                0xffffffff8203f2e0                CSN1Action_mm_2687984519
                0xffffffff8203f2e4                CSN1Action_mm_3454008772
                0xffffffff8203f2e8                CSN1Action_mm_2497997005
                0xffffffff8203f2ec                CSN1Action_mm_906338781_Actions
                0xffffffff8203f2f4                CSN1Action_mm_906338781
                0xffffffff8203f2fc                CSN1Action_mm_3458707629
                0xffffffff8203f300                CSN1Action_mm_3089161910
                0xffffffff8203f304                CSN1Action_mm_4219277482
                0xffffffff8203f308                CSN1Action_mm_3473561638
                0xffffffff8203f30c                CSN1Action_mm_378923677
                0xffffffff8203f310                CSN1Action_mm_2828025132_Actions
                0xffffffff8203f31c                CSN1Action_mm_2828025132
                0xffffffff8203f324                CSN1Action_mm_3663591043
                0xffffffff8203f334                CSN1Action_mm_305719935
                0xffffffff8203f338                CSN1Action_mm_1031329792
                0xffffffff8203f348                CSN1Action_mm_816369318
                0xffffffff8203f34c                CSN1Action_mm_898331810_Actions
                0xffffffff8203f354                CSN1Action_mm_898331810
                0xffffffff8203f35c                CSN1Action_mm_2519741375
                0xffffffff8203f360                CSN1Action_mm_3047440023
                0xffffffff8203f364                CSN1Action_mm_2940555322
                0xffffffff8203f368                CSN1Action_mm_102177801
                0xffffffff8203f36c                CSN1Action_mm_2228969384
                0xffffffff8203f370                CSN1Action_mm_2690191006
                0xffffffff8203f374                CSN1Action_mm_1896178442
                0xffffffff8203f378                CSN1Action_mm_2069162026
                0xffffffff8203f37c                CSN1Action_mm_382868336
                0xffffffff8203f380                CSN1Action_mm_852952723
                0xffffffff8203f388                CSN1Action_mm_1588104227_Actions
                0xffffffff8203f394                CSN1Action_mm_1588104227
                0xffffffff8203f39c                CSN1Action_mm_1426301634
                0xffffffff8203f3a0                CSN1Action_mm_1714678469
                0xffffffff8203f3a4                CSN1Action_mm_745283224
                0xffffffff8203f3a8                CSN1Action_mm_3648354277
                0xffffffff8203f3ac                CSN1Action_mm_1019069955
                0xffffffff8203f3b0                CSN1Action_mm_2349324667_Actions
                0xffffffff8203f3bc                CSN1Action_mm_2349324667
                0xffffffff8203f3c4                CSN1Action_mm_2983985688
                0xffffffff8203f3d4                CSN1Action_mm_1051650937
                0xffffffff8203f3d8                CSN1Action_mm_3624339234_Actions
                0xffffffff8203f3ec                CSN1Action_mm_3624339234
                0xffffffff8203f3f4                CSN1Action_mm_3243020998
                0xffffffff8203f404                CSN1Action_mm_4006116147
                0xffffffff8203f408                CSN1Action_mm_1329795257
                0xffffffff8203f40c                CSN1Action_mm_2040935313
                0xffffffff8203f410                CSN1Action_mm_1285208213_Actions
                0xffffffff8203f41c                CSN1Action_mm_1285208213
                0xffffffff8203f424                CSN1Action_mm_705805430
                0xffffffff8203f428                CSN1Action_mm_740434718_Actions
                0xffffffff8203f438                CSN1Action_mm_740434718
                0xffffffff8203f440                CSN1Action_mm_2226064234
                0xffffffff8203f450                CSN1Action_mm_2864229810
                0xffffffff8203f460                CSN1Action_mm_3264869494_Actions
                0xffffffff8203f468                CSN1Action_mm_3264869494
                0xffffffff8203f470                CSN1Action_mm_976167061
                0xffffffff8203f474                CSN1Action_mm_2383332620
                0xffffffff8203f478                CSN1Action_mm_348479049
                0xffffffff8203f47c                CSN1Action_mm_1105332698
                0xffffffff8203f48c                CSN1Action_mm_3925280648
                0xffffffff8203f490                CSN1Action_mm_1748033528_Actions
                0xffffffff8203f49c                CSN1Action_mm_1748033528
                0xffffffff8203f4a4                CSN1Action_mm_2354150077
                0xffffffff8203f4a8                CSN1Action_mm_3307903284
                0xffffffff8203f4ac                CSN1Action_mm_2490248654
                0xffffffff8203f4b0                CSN1Action_mm_3587088796
                0xffffffff8203f4b4                CSN1Action_mm_503608320_Actions
                0xffffffff8203f4d4                CSN1Action_mm_503608320
                0xffffffff8203f4dc                CSN1Action_mm_2904529805
                0xffffffff8203f4e0                CSN1Action_mm_3603340544
                0xffffffff8203f4e4                CSN1Action_mm_445249957
                0xffffffff8203f4e8                CSN1Action_mm_370274160
                0xffffffff8203f4ec                CSN1Action_mm_1286476466
                0xffffffff8203f4f0                CSN1Action_mm_2430021842
                0xffffffff8203f4f4                CSN1Action_mm_791498803
                0xffffffff8203f4f8                CSN1Action_mm_390578230
                0xffffffff8203f4fc                CSN1Action_mm_4139192109
                0xffffffff8203f500                CSN1Action_mm_64959846
                0xffffffff8203f504                CSN1Action_mm_2387339982
                0xffffffff8203f508                CSN1Action_mm_1690988736_Actions
                0xffffffff8203f514                CSN1Action_mm_1690988736
                0xffffffff8203f51c                CSN1Action_mm_2335260607
                0xffffffff8203f520                CSN1Action_mm_313259946
                0xffffffff8203f524                CSN1Action_mm_392853104
                0xffffffff8203f528                CSN1Action_mm_2067045791
                0xffffffff8203f52c                CSN1Action_mm_992909587
                0xffffffff8203f530                CSN1Action_mm_3501535647
                0xffffffff8203f534                CSN1Action_mm_2421815279
                0xffffffff8203f544                CSN1Action_mm_3557132037
                0xffffffff8203f548                CSN1Action_mm_4018032394
                0xffffffff8203f54c                CSN1Action_mm_3417461136
                0xffffffff8203f55c                CSN1Action_mm_4035434035
                0xffffffff8203f560                CSN1Action_mm_3863658337_Actions
                0xffffffff8203f580                CSN1Action_mm_3863658337
                0xffffffff8203f588                CSN1Action_mm_3368039029
                0xffffffff8203f58c                CSN1Action_mm_2814179522_Actions
                0xffffffff8203f598                CSN1Action_mm_2814179522
                0xffffffff8203f5a0                CSN1Action_mm_1980997949
                0xffffffff8203f5b0                CSN1Action_mm_2634098025
                0xffffffff8203f5b4                CSN1Action_mm_2470336396
                0xffffffff8203f5b8                CSN1Action_mm_1446670203
                0xffffffff8203f5bc                CSN1Action_mm_1150058242
                0xffffffff8203f5c0                CSN1Action_mm_165832568
                0xffffffff8203f5c4                CSN1Action_mm_815343711
                0xffffffff8203f5c8                CSN1Action_mm_654552679
                0xffffffff8203f5cc                CSN1Action_mm_3103887201
                0xffffffff8203f5dc                CSN1Action_mm_3112399967
                0xffffffff8203f5e0                g_MmcMciMutex
                0xffffffff8203f5e4                g_WAVFILESIZE
                0xffffffff8203f5e8                M51
                0xffffffff8203f5ec                seed
                0xffffffff8203f5f0                reachable_time
                0xffffffff8203f5f4                retrans_timer
                0xffffffff8203f5fc                CSN1Action_rrd_745283224
                0xffffffff8203f600                CSN1Action_rrd_940626461
                0xffffffff8203f604                CSN1Action_rrd_3047440023
                0xffffffff8203f608                CSN1Action_rrd_2940555322
                0xffffffff8203f60c                CSN1Action_rrd_2354150077
                0xffffffff8203f610                CSN1Action_rrd_3307903284
                0xffffffff8203f614                CSN1Action_rrd_2490248654
                0xffffffff8203f618                CSN1Action_rrd_725173356_Actions
                0xffffffff8203f628                CSN1Action_rrd_725173356
                0xffffffff8203f630                CSN1Action_rrd_2577981689
                0xffffffff8203f634                CSN1Action_rrd_1887681871_Actions
                0xffffffff8203f640                CSN1Action_rrd_1887681871
                0xffffffff8203f648                CSN1Action_rrd_1306676725
                0xffffffff8203f658                CSN1Action_rrd_4268427334
                0xffffffff8203f65c                CSN1Action_rrd_2257836614
                0xffffffff8203f660                CSN1Action_rrd_4161943267_Actions
                0xffffffff8203f66c                CSN1Action_rrd_4161943267
                0xffffffff8203f674                CSN1Action_rrd_1108116186
                0xffffffff8203f684                CSN1Action_rrd_3672725872
                0xffffffff8203f688                CSN1Action_rrd_3169105553_Actions
                0xffffffff8203f69c                CSN1Action_rrd_3169105553
                0xffffffff8203f6a4                CSN1Action_rrd_721057967
                0xffffffff8203f6b4                CSN1Action_rrd_2164320613
                0xffffffff8203f6b8                CSN1Action_rrd_1381379278
                0xffffffff8203f6c8                CSN1Action_rrd_319401405
                0xffffffff8203f6cc                CSN1Action_rrd_3303031633
                0xffffffff8203f6d0                CSN1Action_rrd_3947361250
                0xffffffff8203f6e0                CSN1Action_rrd_931921035
                0xffffffff8203f6e4                CSN1Action_rrd_899805472
                0xffffffff8203f6e8                CSN1Action_rrd_18114464_Actions
                0xffffffff8203f6f4                CSN1Action_rrd_18114464
                0xffffffff8203f6fc                CSN1Action_rrd_2224366378
                0xffffffff8203f700                CSN1Action_rrd_1407900845_Actions
                0xffffffff8203f718                CSN1Action_rrd_1407900845
                0xffffffff8203f720                CSN1Action_rrd_682135444
                0xffffffff8203f730                CSN1Action_rrd_1510805457
                0xffffffff8203f734                CSN1Action_rrd_1181260475
                0xffffffff8203f738                CSN1Action_rrd_1724648138
                0xffffffff8203f748                CSN1Action_rrd_2123325159
                0xffffffff8203f74c                CSN1Action_rrd_418297134
                0xffffffff8203f750                CSN1Action_rrd_3906137386_Actions
                0xffffffff8203f75c                CSN1Action_rrd_3906137386
                0xffffffff8203f764                CSN1Action_rrd_1594171974
                0xffffffff8203f774                CSN1Action_rrd_3968211519
                0xffffffff8203f778                CSN1Action_rrd_4006116147
                0xffffffff8203f77c                CSN1Action_rrd_1031905020
                0xffffffff8203f780                CSN1Action_rrd_4222995185_Actions
                0xffffffff8203f790                CSN1Action_rrd_4222995185
                0xffffffff8203f798                CSN1Action_rrd_4071547402
                0xffffffff8203f7a8                CSN1Action_rrd_3355724553
                0xffffffff8203f7ac                CSN1Action_rrd_3032010578
                0xffffffff8203f7b0                CSN1Action_rrd_3692219366_Actions
                0xffffffff8203f7c0                CSN1Action_rrd_3692219366
                0xffffffff8203f7c8                CSN1Action_rrd_3957363716
                0xffffffff8203f7d8                CSN1Action_rrd_583545013
                0xffffffff8203f7e8                CSN1Action_rrd_2776807507
                0xffffffff8203f7ec                CSN1Action_rrd_2990339883
                0xffffffff8203f7f0                CSN1Action_rrd_3603340544
                0xffffffff8203f7f4                CSN1Action_rrd_370274160
                0xffffffff8203f7f8                CSN1Action_rrd_3324313283
                0xffffffff8203f7fc                CSN1Action_rrd_2219928662_Actions
                0xffffffff8203f808                CSN1Action_rrd_2219928662
                0xffffffff8203f810                CSN1Action_rrd_1461877897
                0xffffffff8203f820                CSN1Action_rrd_62641068
                0xffffffff8203f824                CSN1Action_rrd_816369318
                0xffffffff8203f828                CSN1Action_rrd_1184185014
                0xffffffff8203f82c                CSN1Action_rrd_1512249916
                0xffffffff8203f830                CSN1Action_rrd_343369592_Actions
                0xffffffff8203f844                CSN1Action_rrd_343369592
                0xffffffff8203f84c                CSN1Action_rrd_3768330895
                0xffffffff8203f850                CSN1Action_rrd_2247000875_Actions
                0xffffffff8203f85c                CSN1Action_rrd_2247000875
                0xffffffff8203f864                CSN1Action_rrd_135794089
                0xffffffff8203f874                CSN1Action_rrd_1254060480
                0xffffffff8203f878                CSN1Action_rrd_4130083733
                0xffffffff8203f87c                CSN1Action_rrd_861538626_Actions
                0xffffffff8203f88c                CSN1Action_rrd_861538626
                0xffffffff8203f894                CSN1Action_rrd_2516376418
                0xffffffff8203f8a4                CSN1Action_rrd_1849499894
                0xffffffff8203f8a8                CSN1Action_rrd_2003684985
                0xffffffff8203f8b8                CSN1Action_rrd_1859197061
                0xffffffff8203f8bc                CSN1Action_rrd_1586180840_Actions
                0xffffffff8203f8c8                CSN1Action_rrd_1586180840
                0xffffffff8203f8d0                CSN1Action_rrd_1799979658
                0xffffffff8203f8d4                CSN1Action_rrd_2207976254_Actions
                0xffffffff8203f8e0                CSN1Action_rrd_2207976254
                0xffffffff8203f8e8                CSN1Action_rrd_3896439917
                0xffffffff8203f8f8                CSN1Action_rrd_3465879629_Actions
                0xffffffff8203f904                CSN1Action_rrd_3465879629
                0xffffffff8203f90c                CSN1Action_rrd_1452974428
                0xffffffff8203f91c                CSN1Action_rrd_3268455810
                0xffffffff8203f920                CSN1Action_rrd_802502716
                0xffffffff8203f924                CSN1Action_rrd_1135923121
                0xffffffff8203f928                CSN1Action_rrd_37342690_Actions
                0xffffffff8203f934                CSN1Action_rrd_37342690
                0xffffffff8203f93c                CSN1Action_rrd_3046323748
                0xffffffff8203f94c                CSN1Action_rrd_1246972339
                0xffffffff8203f950                CSN1Action_rrd_1285363278
                0xffffffff8203f954                CSN1Action_rrd_818107967
                0xffffffff8203f958                CSN1Action_rrd_852952723
                0xffffffff8203f960                CSN1Action_rrd_869243321
                0xffffffff8203f964                CSN1Action_rrd_4050602733
                0xffffffff8203f968                CSN1Action_rrd_2695541923
                0xffffffff8203f96c                CSN1Action_rrd_1212410099_Actions
                0xffffffff8203f98c                CSN1Action_rrd_1212410099
                0xffffffff8203f994                CSN1Action_rrd_605288451
                0xffffffff8203f9a4                CSN1Action_rrd_15908375
                0xffffffff8203f9a8                CSN1Action_rrd_305719935
                0xffffffff8203f9ac                CSN1Action_rrd_2694151951
                0xffffffff8203f9bc                CSN1Action_rrd_1566960903
                0xffffffff8203f9c0                CSN1Action_rrd_43453491
                0xffffffff8203f9d0                CSN1Action_rrd_2045230129
                0xffffffff8203f9d4                CSN1Action_rrd_688123492
                0xffffffff8203f9e4                CSN1Action_rrd_1838708030
                0xffffffff8203f9e8                CSN1Action_rrd_2110697282
                0xffffffff8203f9f8                CSN1Action_rrd_1226449928
                0xffffffff8203f9fc                CSN1Action_rrd_2176988567
                0xffffffff8203fa0c                CSN1Action_rrd_1836338509
                0xffffffff8203fa10                CSN1Action_rrd_220527403
                0xffffffff8203fa20                CSN1Action_rrd_1240865915
                0xffffffff8203fa24                CSN1Action_rrd_2154547747_Actions
                0xffffffff8203fa34                CSN1Action_rrd_2154547747
                0xffffffff8203fa3c                CSN1Action_rrd_921627107
                0xffffffff8203fa40                CSN1Action_rrd_374799880_Actions
                0xffffffff8203fa4c                CSN1Action_rrd_374799880
                0xffffffff8203fa54                CSN1Action_rrd_2955119003
                0xffffffff8203fa64                CSN1Action_rrd_4286384533
                0xffffffff8203fa68                CSN1Action_rrd_701879132
                0xffffffff8203fa6c                CSN1Action_rrd_4179589784_Actions
                0xffffffff8203fa7c                CSN1Action_rrd_4179589784
                0xffffffff8203fa84                CSN1Action_rrd_533810775
                0xffffffff8203fa94                CSN1Action_rrd_3690944675
                0xffffffff8203fa98                CSN1Action_rrd_1314420743
                0xffffffff8203faa8                CSN1Action_rrd_611381025
                0xffffffff8203faac                CSN1Action_rrd_3179449490
                0xffffffff8203fab0                CSN1Action_rrd_1552518112_Actions
                0xffffffff8203fac0                CSN1Action_rrd_1552518112
                0xffffffff8203fac8                CSN1Action_rrd_3025564689
                0xffffffff8203fad8                CSN1Action_rrd_3061427193
                0xffffffff8203fadc                CSN1Action_rrd_691585214
                0xffffffff8203faec                CSN1Action_rrd_2465987279
                0xffffffff8203faf0                CSN1Action_rrd_1023676628
                0xffffffff8203faf4                CSN1Action_rrd_1136111960
                0xffffffff8203fb04                CSN1Action_rrd_820190813
                0xffffffff8203fb08                CSN1Action_rrd_3943667231
                0xffffffff8203fb0c                CSN1Action_rrd_771026597_Actions
                0xffffffff8203fb18                CSN1Action_rrd_771026597
                0xffffffff8203fb20                CSN1Action_rrd_1218195568
                0xffffffff8203fb30                CSN1Action_rrd_3958307049
                0xffffffff8203fb34                CSN1Action_rrd_2961404821
                0xffffffff8203fb44                CSN1Action_rrd_341921643
                0xffffffff8203fb48                CSN1Action_rrd_4293703913
                0xffffffff8203fb58                CSN1Action_rrd_957768310_Actions
                0xffffffff8203fb68                CSN1Action_rrd_957768310
                0xffffffff8203fb70                CSN1Action_rrd_2515158594
                0xffffffff8203fb80                CSN1Action_rrd_1614661360
                0xffffffff8203fb84                CSN1Action_rrd_4052952432
                0xffffffff8203fb94                CSN1Action_rrd_3140493380
                0xffffffff8203fb98                CSN1Action_rrd_1730304484
                0xffffffff8203fba8                CSN1Action_rrd_2679271794
                0xffffffff8203fbac                CSN1Action_rrd_2430886602
                0xffffffff8203fbb0                CSN1Action_rrd_102973751_Actions
                0xffffffff8203fbbc                CSN1Action_rrd_102973751
                0xffffffff8203fbc4                CSN1Action_rrd_3869353196_Actions
                0xffffffff8203fbf0                CSN1Action_rrd_3869353196
                0xffffffff8203fbf8                CSN1Action_rrd_1981945723
                0xffffffff8203fc08                CSN1Action_rrd_423049785
                0xffffffff8203fc0c                CSN1Action_rrd_1946900287
                0xffffffff8203fc1c                CSN1Action_rrd_228903749
                0xffffffff8203fc20                CSN1Action_rrd_1896258710
                0xffffffff8203fc30                CSN1Action_rrd_1345558613
                0xffffffff8203fc34                CSN1Action_rrd_128733942
                0xffffffff8203fc44                CSN1Action_rrd_1035299599
                0xffffffff8203fc48                CSN1Action_rrd_4236104023
                0xffffffff8203fc4c                CSN1Action_rrd_2994658505_Actions
                0xffffffff8203fc58                CSN1Action_rrd_2994658505
                0xffffffff8203fc60                CSN1Action_rrd_102635966
                0xffffffff8203fc70                CSN1Action_rrd_1957808483
                0xffffffff8203fc74                CSN1Action_rrd_3813075944
                0xffffffff8203fc78                CSN1Action_rrd_988764005_Actions
                0xffffffff8203fc84                CSN1Action_rrd_988764005
                0xffffffff8203fc8c                CSN1Action_rrd_1503952678
                0xffffffff8203fc9c                CSN1Action_rrd_3601411569
                0xffffffff8203fca0                CSN1Action_rrd_294902814
                0xffffffff8203fcb0                CSN1Action_rrd_1952313616
                0xffffffff8203fcb4                CSN1Action_rrd_3954002228
                0xffffffff8203fcb8                CSN1Action_rrd_192561310_Actions
                0xffffffff8203fcc4                CSN1Action_rrd_192561310
                0xffffffff8203fccc                CSN1Action_rrd_1968255028
                0xffffffff8203fcdc                CSN1Action_rrd_1612855327
                0xffffffff8203fce0                CSN1Action_rrd_206623146
                0xffffffff8203fce4                CSN1Action_rrd_98495214_Actions
                0xffffffff8203fcf0                CSN1Action_rrd_98495214
                0xffffffff8203fcf8                CSN1Action_rrd_1995359580
                0xffffffff8203fd08                CSN1Action_rrd_1151363369
                0xffffffff8203fd0c                CSN1Action_rrd_2961858479_Actions
                0xffffffff8203fd18                CSN1Action_rrd_2961858479
                0xffffffff8203fd20                CSN1Action_rrd_134145214
                0xffffffff8203fd30                CSN1Action_rrd_1356832806
                0xffffffff8203fd34                CSN1Action_rrd_500936763
                0xffffffff8203fd38                CSN1Action_rrd_2196599466
                0xffffffff8203fd3c                CSN1Action_rrd_1067947333
                0xffffffff8203fd40                CSN1Action_rrd_2609845649_Actions
                0xffffffff8203fd4c                CSN1Action_rrd_2609845649
                0xffffffff8203fd54                CSN1Action_rrd_1285800502
                0xffffffff8203fd64                CSN1Action_rrd_690395763
                0xffffffff8203fd68                CSN1Action_rrd_14819909
                0xffffffff8203fd6c                CSN1Action_rrd_3521060345
                0xffffffff8203fd70                CSN1Action_rrd_1246453319
                0xffffffff8203fd74                CSN1Action_rrd_2160226336
                0xffffffff8203fd78                CSN1Action_rrd_1336578230
                0xffffffff8203fd7c                CSN1Action_rrd_3289763382
                0xffffffff8203fd80                CSN1Action_rrd_3173535371
                0xffffffff8203fd84                CSN1Action_rrd_127820280
                0xffffffff8203fd88                CSN1Action_rrd_83782761_Actions
                0xffffffff8203fd98                CSN1Action_rrd_83782761
                0xffffffff8203fda0                CSN1Action_rrd_4026158073
                0xffffffff8203fda4                CSN1Action_rrd_211161005_Actions
                0xffffffff8203fdb0                CSN1Action_rrd_211161005
                0xffffffff8203fdb8                CSN1Action_rrd_3505515953
                0xffffffff8203fdc8                CSN1Action_rrd_3995775179
                0xffffffff8203fdcc                CSN1Action_rrd_2277256880
                0xffffffff8203fdd0                CSN1Action_rrd_570169241_Actions
                0xffffffff8203fde0                CSN1Action_rrd_570169241
                0xffffffff8203fde8                CSN1Action_rrd_2874891695
                0xffffffff8203fdf8                CSN1Action_rrd_2209104785
                0xffffffff8203fdfc                CSN1Action_rrd_2148942108
                0xffffffff8203fe0c                CSN1Action_rrd_2804814503
                0xffffffff8203fe10                CSN1Action_rrd_1676974286
                0xffffffff8203fe14                CSN1Action_rrd_4033811768_Actions
                0xffffffff8203fe24                CSN1Action_rrd_4033811768
                0xffffffff8203fe2c                CSN1Action_rrd_1254969784
                0xffffffff8203fe3c                CSN1Action_rrd_3738642674
                0xffffffff8203fe40                CSN1Action_rrd_1327730987
                0xffffffff8203fe50                CSN1Action_rrd_3400065533
                0xffffffff8203fe54                CSN1Action_rrd_137408325_Actions
                0xffffffff8203fe60                CSN1Action_rrd_137408325
                0xffffffff8203fe68                CSN1Action_rrd_606676690
                0xffffffff8203fe78                CSN1Action_rrd_3904400317
                0xffffffff8203fe7c                CSN1Action_rrd_1354286267
                0xffffffff8203fe80                CSN1Action_rrd_830738382_Actions
                0xffffffff8203fe90                CSN1Action_rrd_830738382
                0xffffffff8203fe98                CSN1Action_rrd_2514385061
                0xffffffff8203fea8                CSN1Action_rrd_4240941746
                0xffffffff8203feac                CSN1Action_rrd_1442630865_Actions
                0xffffffff8203febc                CSN1Action_rrd_1442630865
                0xffffffff8203fec4                CSN1Action_rrd_795736949
                0xffffffff8203fed4                CSN1Action_rrd_3426368139
                0xffffffff8203fed8                CSN1Action_rrd_2716306697_Actions
                0xffffffff8203fee8                CSN1Action_rrd_2716306697
                0xffffffff8203fef0                CSN1Action_rrd_3148755953
                0xffffffff8203ff00                CSN1Action_rrd_3628462980
                0xffffffff8203ff04                CSN1Action_rrd_1910817308_Actions
                0xffffffff8203ff14                CSN1Action_rrd_1910817308
                0xffffffff8203ff1c                CSN1Action_rrd_3809203309
                0xffffffff8203ff2c                CSN1Action_rrd_4230716097
                0xffffffff8203ff30                CSN1Action_rrd_1331779826_Actions
                0xffffffff8203ff40                CSN1Action_rrd_1331779826
                0xffffffff8203ff48                CSN1Action_rrd_1323989918
                0xffffffff8203ff58                CSN1Action_rrd_4206444983
                0xffffffff8203ff5c                CSN1Action_rrd_1896850844
                0xffffffff8203ff6c                CSN1Action_rrd_4199905732
                0xffffffff8203ff70                CSN1Action_rrd_2770170285
                0xffffffff8203ff74                CSN1Action_rrd_74559072_Actions
                0xffffffff8203ff84                CSN1Action_rrd_74559072
                0xffffffff8203ff8c                CSN1Action_rrd_3160594213
                0xffffffff8203ff9c                CSN1Action_rrd_3015566299
                0xffffffff8203ffa0                CSN1Action_rrd_3846238738
                0xffffffff8203ffa4                CSN1Action_rrd_2443672996_Actions
                0xffffffff8203ffb0                CSN1Action_rrd_2443672996
                0xffffffff8203ffb8                CSN1Action_rrd_3955384520
                0xffffffff8203ffc8                CSN1Action_rrd_3728412801
                0xffffffff8203ffcc                CSN1Action_rrd_1398664390_Actions
                0xffffffff8203ffd8                CSN1Action_rrd_1398664390
                0xffffffff8203ffe0                CSN1Action_rrd_3418953735
                0xffffffff8203fff0                CSN1Action_rrd_2713504209
                0xffffffff8203fff4                CSN1Action_rrd_554940704
                0xffffffff82040004                CSN1Action_rrd_2235472103
                0xffffffff82040008                CSN1Action_rrd_2461632642_Actions
                0xffffffff82040018                CSN1Action_rrd_2461632642
                0xffffffff82040020                CSN1Action_rrd_2913546902
                0xffffffff82040030                CSN1Action_rrd_2058432357
                0xffffffff82040034                CSN1Action_rrd_2855376912
                0xffffffff82040038                CSN1Action_rrd_4188853535_Actions
                0xffffffff82040044                CSN1Action_rrd_4188853535
                0xffffffff8204004c                CSN1Action_rrd_2821246457
                0xffffffff8204005c                CSN1Action_rrd_861517178
                0xffffffff82040060                CSN1Action_rrd_3295071691
                0xffffffff82040064                CSN1Action_rrd_3159481994_Actions
                0xffffffff82040070                CSN1Action_rrd_3159481994
                0xffffffff82040078                CSN1Action_rrd_2342353946
                0xffffffff8204007c                CSN1Action_rrd_1156163123_Actions
                0xffffffff82040088                CSN1Action_rrd_1156163123
                0xffffffff82040090                CSN1Action_rrd_789570462
                0xffffffff820400a0                CSN1Action_rrd_1580432979
                0xffffffff820400a4                CSN1Action_rrd_3736931631_Actions
                0xffffffff820400b4                CSN1Action_rrd_3736931631
                0xffffffff820400bc                CSN1Action_rrd_3632617170
                0xffffffff820400cc                CSN1Action_rrd_2287117600
                0xffffffff820400d0                CSN1Action_rrd_1475689821
                0xffffffff820400e0                CSN1Action_rrd_389536831
                0xffffffff820400e4                CSN1Action_rrd_2268793185_Actions
                0xffffffff820400ec                CSN1Action_rrd_2268793185
                0xffffffff820400f4                CSN1Action_rrd_4004516662
                0xffffffff820400f8                CSN1Action_rrd_2042348747
                0xffffffff820400fc                CSN1Action_rrd_1499184372_Actions
                0xffffffff82040104                CSN1Action_rrd_1499184372
                0xffffffff8204010c                CSN1Action_rrd_3752349296_Actions
                0xffffffff82040118                CSN1Action_rrd_3752349296
                0xffffffff82040120                CSN1Action_rrd_3266119808
                0xffffffff82040130                CSN1Action_rrd_87488053
                0xffffffff82040134                CSN1Action_rrd_2131255502
                0xffffffff82040138                CSN1Action_rrd_2071733023_Actions
                0xffffffff82040144                CSN1Action_rrd_2071733023
                0xffffffff8204014c                CSN1Action_rrd_1993282762
                0xffffffff82040150                CSN1Action_rrd_657403020_Actions
                0xffffffff82040158                CSN1Action_rrd_657403020
                0xffffffff82040160                CSN1Action_rrd_3338436673_Actions
                0xffffffff8204016c                CSN1Action_rrd_3338436673
                0xffffffff82040174                CSN1Action_rrd_531806091
                0xffffffff82040184                CSN1Action_rrd_400286796
                0xffffffff82040188                CSN1Action_rrd_3831644075
                0xffffffff8204018c                CSN1Action_rrd_2644140889_Actions
                0xffffffff82040198                CSN1Action_rrd_2644140889
                0xffffffff820401a0                CSN1Action_rrd_2065487861
                0xffffffff820401a4                CSN1Action_rrd_2437170820_Actions
                0xffffffff820401b8                CSN1Action_rrd_2437170820
                0xffffffff820401c0                CSN1Action_rrd_154954186
                0xffffffff820401d0                CSN1Action_rrd_1756366191
                0xffffffff820401d4                CSN1Action_rrd_3884916139
                0xffffffff820401e4                CSN1Action_rrd_565487363
                0xffffffff820401e8                CSN1Action_rrd_1783068221
                0xffffffff820401f8                CSN1Action_rrd_3360651600
                0xffffffff820401fc                CSN1Action_rrd_3511221349
                0xffffffff8204020c                CSN1Action_rrd_2537534189
                0xffffffff82040210                CSN1Action_rrd_1707319245_Actions
                0xffffffff82040218                CSN1Action_rrd_1707319245
                0xffffffff82040220                CSN1Action_rrd_1410763817
                0xffffffff82040224                CSN1Action_rrd_1958843828
                0xffffffff82040228                CSN1Action_rrd_2612609894
                0xffffffff8204022c                CSN1Action_rrd_730981422_Actions
                0xffffffff82040250                CSN1Action_rrd_730981422
                0xffffffff82040258                CSN1Action_rrd_3615734445
                0xffffffff8204025c                CSN1Action_rrd_1124905692
                0xffffffff8204026c                CSN1Action_rrd_2678951837
                0xffffffff82040270                CSN1Action_rrd_2860452829
                0xffffffff82040274                CSN1Action_rrd_1517254419_Actions
                0xffffffff82040284                CSN1Action_rrd_1517254419
                0xffffffff8204028c                CSN1Action_rrd_1788477443
                0xffffffff8204029c                CSN1Action_rrd_3150178008
                0xffffffff820402a0                CSN1Action_rrd_1511184675
                0xffffffff820402b0                CSN1Action_rrd_2671884270
                0xffffffff820402b4                CSN1Action_rrd_3039752853
                0xffffffff820402c4                CSN1Action_rrd_3588243530
                0xffffffff820402c8                CSN1Action_rrd_162940200
                0xffffffff820402cc                CSN1Action_rrd_2442720496_Actions
                0xffffffff820402d8                CSN1Action_rrd_2442720496
                0xffffffff820402e0                CSN1Action_rrd_3236281908
                0xffffffff820402f0                CSN1Action_rrd_250455806
                0xffffffff820402f4                CSN1Action_rrd_378371991
                0xffffffff820402f8                CSN1Action_rrd_420052828_Actions
                0xffffffff82040304                CSN1Action_rrd_420052828
                0xffffffff8204030c                CSN1Action_rrd_3086744707
                0xffffffff8204031c                CSN1Action_rrd_1206453394
                0xffffffff82040320                CSN1Action_rrd_2127239902
                0xffffffff82040324                CSN1Action_rrd_3878419657_Actions
                0xffffffff82040330                CSN1Action_rrd_3878419657
                0xffffffff82040338                CSN1Action_rrd_2610768679
                0xffffffff82040348                CSN1Action_rrd_1667978660
                0xffffffff8204034c                CSN1Action_rrd_2545748283
                0xffffffff82040350                CSN1Action_rrd_2720851806
                0xffffffff82040354                CSN1Action_rrd_1035585519
                0xffffffff82040364                CSN1Action_rrd_4062936263
                0xffffffff82040368                CSN1Action_rrd_367611342
                0xffffffff8204036c                CSN1Action_rrd_3183967548_Actions
                0xffffffff8204037c                CSN1Action_rrd_3183967548
                0xffffffff82040384                CSN1Action_rrd_1752418164
                0xffffffff82040394                CSN1Action_rrd_4049736060
                0xffffffff82040398                CSN1Action_rrd_2829314208
                0xffffffff820403a8                CSN1Action_rrd_711981000
                0xffffffff820403ac                CSN1Action_rrd_2850852071
                0xffffffff820403bc                CSN1Action_rrd_3140476587
                0xffffffff820403c0                CSN1Action_rrd_4095745213
                0xffffffff820403d0                CSN1Action_rrd_1223096184
                0xffffffff820403d4                CSN1Action_rrd_2489923055
                0xffffffff820403d8                CSN1Action_rrd_1768190373_Actions
                0xffffffff820403e4                CSN1Action_rrd_1768190373
                0xffffffff820403ec                CSN1Action_rrd_1112211269
                0xffffffff820403fc                CSN1Action_rrd_1466427016
                0xffffffff8204040c                CSN1Action_rrd_4279342406
                0xffffffff8204041c                CSN1Action_rrd_1110806973_Actions
                0xffffffff8204043c                CSN1Action_rrd_1110806973
                0xffffffff82040444                CSN1Action_rrd_1843080495
                0xffffffff82040448                CSN1Action_rrd_483363292
                0xffffffff82040458                CSN1Action_rrd_3486522109
                0xffffffff8204045c                CSN1Action_rrd_2381861864_Actions
                0xffffffff8204046c                CSN1Action_rrd_2381861864
                0xffffffff82040474                CSN1Action_rrd_4038189668
                0xffffffff82040484                CSN1Action_rrd_507223965
                0xffffffff82040494                CSN1Action_rrd_2952912004
                0xffffffff820404a4                CSN1Action_rrd_2412969979
                0xffffffff820404a8                CSN1Action_rrd_334853886_Actions
                0xffffffff820404b4                CSN1Action_rrd_334853886
                0xffffffff820404bc                CSN1Action_rrd_2317991597
                0xffffffff820404cc                CSN1Action_rrd_2994332061
                0xffffffff820404d0                CSN1Action_rrd_1246317353_Actions
                0xffffffff820404dc                CSN1Action_rrd_1246317353
                0xffffffff820404e4                CSN1Action_rrd_198831330
                0xffffffff820404f4                CSN1Action_rrd_3056860181
                0xffffffff820404f8                CSN1Action_rrd_2819297462
                0xffffffff820404fc                CSN1Action_rrd_3148479826
                0xffffffff8204050c                CSN1Action_rrd_4007706475
                0xffffffff82040510                CSN1Action_rrd_1931385926_Actions
                0xffffffff82040520                CSN1Action_rrd_1931385926
                0xffffffff82040528                CSN1Action_rrd_248884930
                0xffffffff82040538                CSN1Action_rrd_3749016525
                0xffffffff82040548                CSN1Action_rrd_3090839876
                0xffffffff82040558                CSN1Action_rrd_1794889550
                0xffffffff82040568                CSN1Action_rrd_3132594304
                0xffffffff8204056c                CSN1Action_rrd_3068548146
                0xffffffff82040570                CSN1Action_rrd_2030131668_Actions
                0xffffffff8204057c                CSN1Action_rrd_2030131668
                0xffffffff82040584                CSN1Action_rrd_451415012
                0xffffffff82040594                CSN1Action_rrd_3085223348
                0xffffffff820405a4                CSN1Action_rrd_501623148
                0xffffffff820405b4                CSN1Action_rrd_2032260957
                0xffffffff820405b8                CSN1Action_rrd_3581718616_Actions
                0xffffffff820405c4                CSN1Action_rrd_3581718616
                0xffffffff820405cc                CSN1Action_rrd_2301433874
                0xffffffff820405d0                CSN1Action_rrd_2632245798
                0xffffffff820405d4                CSN1Action_rrd_1212702238
                0xffffffff820405d8                CSN1Action_rrd_760487328_Actions
                0xffffffff820405e4                CSN1Action_rrd_760487328
                0xffffffff820405ec                CSN1Action_rrd_341599030
                0xffffffff820405f0                CSN1Action_rrd_3093738256
                0xffffffff820405f4                CSN1Action_rrd_3401615348
                0xffffffff820405f8                CSN1Action_rrd_274780630_Actions
                0xffffffff82040608                CSN1Action_rrd_274780630
                0xffffffff82040610                CSN1Action_rrd_2329652229
                0xffffffff82040614                CSN1Action_rrd_2342405214_Actions
                0xffffffff82040630                CSN1Action_rrd_2342405214
                0xffffffff82040638                CSN1Action_rrd_1176402565
                0xffffffff8204063c                CSN1Action_rrd_264773991_Actions
                0xffffffff82040648                CSN1Action_rrd_264773991
                0xffffffff82040650                CSN1Action_rrd_1541952114
                0xffffffff82040660                CSN1Action_rrd_1997839531
                0xffffffff82040664                CSN1Action_rrd_2045584149_Actions
                0xffffffff82040670                CSN1Action_rrd_2045584149
                0xffffffff82040678                CSN1Action_rrd_965469091
                0xffffffff82040688                CSN1Action_rrd_656833653
                0xffffffff8204068c                CSN1Action_rrd_3654314478
                0xffffffff8204069c                CSN1Action_rrd_3857833984
                0xffffffff820406a0                CSN1Action_rrd_225237873
                0xffffffff820406b0                CSN1Action_rrd_3245584694
                0xffffffff820406b4                CSN1Action_rrd_3504385127
                0xffffffff820406b8                CSN1Action_rrd_3447149479_Actions
                0xffffffff820406cc                CSN1Action_rrd_3447149479
                0xffffffff820406d4                CSN1Action_rrd_408796126
                0xffffffff820406e4                CSN1Action_rrd_1400567278
                0xffffffff820406e8                CSN1Action_rrd_351339013
                0xffffffff820406f8                CSN1Action_rrd_2289505114
                0xffffffff820406fc                CSN1Action_rrd_3360767682
                0xffffffff8204070c                CSN1Action_rrd_2012783832
                0xffffffff82040710                CSN1Action_rrd_3466817332
                0xffffffff82040714                CSN1Action_rrd_3114596985_Actions
                0xffffffff82040720                CSN1Action_rrd_3114596985
                0xffffffff82040728                CSN1Action_rrd_96542679
                0xffffffff82040738                CSN1Action_rrd_444487554
                0xffffffff8204073c                CSN1Action_rrd_1943730191_Actions
                0xffffffff8204075c                CSN1Action_rrd_1943730191
                0xffffffff82040764                CSN1Action_rrd_312719954
                0xffffffff82040768                CSN1Action_rrd_1751255976_Actions
                0xffffffff82040774                CSN1Action_rrd_1751255976
                0xffffffff8204077c                CSN1Action_rrd_1691172885
                0xffffffff8204078c                CSN1Action_rrd_61091139
                0xffffffff82040790                CSN1Action_rrd_3154444110
                0xffffffff820407a0                CSN1Action_rrd_1823283407
                0xffffffff820407b0                CSN1Action_rrd_758620798
                0xffffffff820407b4                CSN1Action_rrd_1027217481_Actions
                0xffffffff820407c8                CSN1Action_rrd_1027217481
                0xffffffff820407d0                CSN1Action_rrd_2573199844
                0xffffffff820407e0                CSN1Action_rrd_2198201317
                0xffffffff820407f0                CSN1Action_rrd_519562849
                0xffffffff82040800                CSN1Action_rrd_875678573
                0xffffffff82040804                CSN1Action_rrd_2599842611_Actions
                0xffffffff82040810                CSN1Action_rrd_2599842611
                0xffffffff82040818                CSN1Action_rrd_3321212140
                0xffffffff82040828                CSN1Action_rrd_1483226791_Actions
                0xffffffff82040834                CSN1Action_rrd_1483226791
                0xffffffff8204083c                CSN1Action_rrd_465287089
                0xffffffff8204084c                CSN1Action_rrd_1110837773
                0xffffffff8204085c                CSN1Action_rrd_1402391965
                0xffffffff82040860                CSN1Action_rrd_3251358857
                0xffffffff82040864                CSN1Action_rrd_2818920680_Actions
                0xffffffff82040870                CSN1Action_rrd_2818920680
                0xffffffff82040878                CSN1Action_rrd_3528460552
                0xffffffff8204087c                CSN1Action_rrd_137419891_Actions
                0xffffffff82040890                CSN1Action_rrd_137419891
                0xffffffff82040898                CSN1Action_rrd_3643433079
                0xffffffff820408a8                CSN1Action_rrd_2901754476
                0xffffffff820408ac                CSN1Action_rrd_3527408420
                0xffffffff820408bc                CSN1Action_rrd_1889926130
                0xffffffff820408c0                CSN1Action_rrd_1816175321
                0xffffffff820408c4                CSN1Action_rrd_606156793
                0xffffffff820408d4                CSN1Action_rrd_3096087395
                0xffffffff820408d8                CSN1Action_rrd_2028206836_Actions
                0xffffffff820408e0                CSN1Action_rrd_2028206836
                0xffffffff820408e8                CSN1Action_rrd_3365294586
                0xffffffff820408ec                CSN1Action_rrd_3489445354_Actions
                0xffffffff820408f8                CSN1Action_rrd_3489445354
                0xffffffff82040900                CSN1Action_rrd_2463003367
                0xffffffff82040910                CSN1Action_rrd_3860702602
                0xffffffff82040914                CSN1Action_rrd_3105487277
                0xffffffff82040918                CSN1Action_rrd_371009464
                0xffffffff8204091c                CSN1Action_rrd_3481058681
                0xffffffff8204092c                CSN1Action_rrd_1056704180
                0xffffffff82040930                CSN1Action_rrd_2067698156_Actions
                0xffffffff82040938                CSN1Action_rrd_2067698156
                0xffffffff82040940                CSN1Action_rrd_4261741148
                0xffffffff82040944                CSN1Action_rrd_96581344
                0xffffffff82040948                CSN1Action_rrd_2804258136
                0xffffffff8204094c                CSN1Action_rrd_3746986023
                0xffffffff82040950                CSN1Action_rrd_2696491744
                0xffffffff82040960                CSN1Action_rrd_1252036399
                0xffffffff82040964                CSN1Action_rrd_3111607087
                0xffffffff82040968                CSN1Action_rrd_1877292183_Actions
                0xffffffff82040974                CSN1Action_rrd_1877292183
                0xffffffff8204097c                CSN1Action_rrd_2015990617
                0xffffffff8204098c                CSN1Action_rrd_2444061083
                0xffffffff82040990                CSN1Action_rrd_4138463979
                0xffffffff820409a0                CSN1Action_rrd_1847778841
                0xffffffff820409a4                CSN1Action_rrd_1712146324
                0xffffffff820409b4                CSN1Action_rrd_1379398860
                0xffffffff820409b8                CSN1Action_rrd_2006853871
                0xffffffff820409bc                CSN1Action_rrd_528587181
                0xffffffff820409c0                CSN1Action_rrd_3500588652
                0xffffffff820409cc                G_VppCommonDecCode
                0xffffffff82040d60                G_VppAacDecCode
                0xffffffff82043838                G_VppAacDecConstY
                0xffffffff82045318                G_VppMp3DecCode
                0xffffffff820488ec                G_VppMp3DecConstX
                0xffffffff82049a44                G_VppMp3DecConstY
                0xffffffff8204a92c                G_VppMp3Layer12Dec_DMA_ConstY
                0xffffffff8204ade8                G_VppMp3Dec_EQ_DMA_ConstY
                0xffffffff8204af08                G_VppSBCCode
                0xffffffff8204c0c8                G_VppSBCConstX
                0xffffffff8204db50                G_VppDRCCode
                0xffffffff8204e46c                G_VppDRCConst
                0xffffffff8204e8b0                G_VppCommonEncCode
                0xffffffff8204eaac                G_VppAmrJpegEncCode
                0xffffffff82052efc                G_VppAmrJpegEncConstX
                0xffffffff820531a4                G_VppAmrJpegEncConstY
                0xffffffff8205616c                G_VppAudJpegMainCodeSize
                0xffffffff82056180                G_vocYUVRomateCode
                0xffffffff820566a0                recHandle
                0xffffffff820566a4                mmc_Reccodec
                0xffffffff820566a8                mmcRecFormat
                0xffffffff820566ac                IF1Table_size
                0xffffffff820566bc                IF1_table
                0xffffffff82056770                mbedtls_calloc
                0xffffffff82056774                mbedtls_free
                0xffffffff8205e7e0                _gp

.srambss        0xffffffff81c09620       0x70
 hex/app/SW_V2112_csdk.elf(.srambss)
 .srambss       0xffffffff81c09620       0x70 hex/app/SW_V2112_csdk.elf
                0xffffffff81c09620                g_halTraceDualCtx

.rodata         0xffffffff881bfbc0    0x4de00
 hex/app/SW_V2112_csdk.elf(.rodata)
 .rodata        0xffffffff881bfbc0    0x4de00 hex/app/SW_V2112_csdk.elf
                0xffffffff881bfbc0                g_calibMapVersion
                0xffffffff881bfbd0                g_memdMapVersion
                0xffffffff881bfbe0                g_memdMapAccess
                0xffffffff881bfc44                __clz_tab
                0xffffffff881c00dc                g_halHostUsbInterface
                0xffffffff881c0300                sxs_TaskCfg
                0xffffffff881c0440                sxs_TaskIdleDesc
                0xffffffff881c0450                sxs_UsrInitTaskCfg
                0xffffffff881c04a4                sim_TaskParse
                0xffffffff881c06a8                sim_ResetReq_Evt
                0xffffffff881c06b8                sim_RunGsmAlgoReq_Evt
                0xffffffff881c06c8                sim_ReadBinaryReq_Evt
                0xffffffff881c06d8                sim_UpdateBinaryReq_Evt
                0xffffffff881c06e8                sim_ReadRecordReq_Evt
                0xffffffff881c06f8                sim_UpdateRecordReq_Evt
                0xffffffff881c0708                sim_InvalidateReq_Evt
                0xffffffff881c0718                sim_RehabilitateReq_Evt
                0xffffffff881c0728                sim_VerifyCHVReq_Evt
                0xffffffff881c0738                sim_ChangeCHVReq_Evt
                0xffffffff881c0748                sim_DisableCHVRe_Evt
                0xffffffff881c0758                sim_EnableCHVReq_Evt
                0xffffffff881c0768                sim_UnblockCHVRe_Evt
                0xffffffff881c0778                sim_SeekReq_Evt
                0xffffffff881c0788                sim_IncreaseReq_Evt
                0xffffffff881c0798                sim_ElemFileStatusReq_Evt
                0xffffffff881c07a8                sim_DedicFileStatusReq_Evt
                0xffffffff881c07b8                sim_StatusTimer_Evt
                0xffffffff881c07c8                sim_TerminalProfileReq_Evt
                0xffffffff881c07d8                sim_EnvelopeReq_Evt
                0xffffffff881c07e8                sim_TerminalResponseReq_Evt
                0xffffffff881c07f8                sim_StopReq_Evt
                0xffffffff881c0808                sim_PollReq_Evt
                0xffffffff881c0818                sim_PollOffReq_Evt
                0xffffffff881c0828                sim_SelectApplicationReq_Evt
                0xffffffff881c0838                sim_RunUmtsAlgoReq_Evt
                0xffffffff881c0848                sim_SetUsimPbkReq_Evt
                0xffffffff881c0858                sim_PowerOffReq_Evt
                0xffffffff881c0868                sim_RetryReq_Evt
                0xffffffff881c0878                sim_SeekAllReq_Evt
                0xffffffff881c0888                sim_SendCmdReq_Evt
                0xffffffff881c0898                sim_ManageChannelReq_Evt
                0xffffffff881c08a8                sim_EvtList
                0xffffffff881c0d04                sm_TaskParse
                0xffffffff881c1040                sm_apiCtxActivateReqEvt
                0xffffffff881c1050                sm_apiInCtxActivateRejEvt
                0xffffffff881c1060                sm_apiCtxDeactivateReqEvt
                0xffffffff881c1070                sm_apiCtxModifyReqEvt
                0xffffffff881c1080                sm_apiCtxModifyAccEvt
                0xffffffff881c1090                sm_apiCtxModifyRejEvt
                0xffffffff881c10a0                sm_sndActivateRspEvt
                0xffffffff881c10b0                sm_sndDeactivateRspEvt
                0xffffffff881c10c0                sm_sndModifyRspEvt
                0xffffffff881c10d0                sm_sndStatusReqEvt
                0xffffffff881c10e0                sm_mmpAbortIndEvt
                0xffffffff881c10f0                sm_mmpDataIndEvt
                0xffffffff881c1100                sm_mmpRauAccPdpStatusIndEvt
                0xffffffff881c1110                sm_T3380Evt
                0xffffffff881c1120                sm_T3381Evt
                0xffffffff881c1130                sm_T3390Evt
                0xffffffff881c1140                sm_mmpCtxActivateAccEvt
                0xffffffff881c1150                sm_mmpCtxActivateRejEvt
                0xffffffff881c1160                sm_mmpCtxModifyReqEvt
                0xffffffff881c1170                sm_mmpCtxModifyAccEvt
                0xffffffff881c1180                sm_mmpCtxModifyRejEvt
                0xffffffff881c1190                sm_mmpCtxDeactivateReqEvt
                0xffffffff881c11a0                sm_mmpCtxDeactivateAccEvt
                0xffffffff881c11b0                sm_mmpSmStatusIndEvt
                0xffffffff881c11c0                sm_apiCtxActivateCnfEvt
                0xffffffff881c11cc                sm_apiCtxSmIndexIndEvt
                0xffffffff881c11d8                sm_apiOutCtxActivateRejEvt
                0xffffffff881c11e4                sm_apiCtxDeactivateIndEvt
                0xffffffff881c11f0                sm_apiCtxDeactivateCnfEvt
                0xffffffff881c11fc                sm_apiCtxModifyCnfEvt
                0xffffffff881c1208                sm_apiCtxModifyIndEvt
                0xffffffff881c1214                sm_apiOutCtxModifyRejEvt
                0xffffffff881c1220                sm_sndActivateIndEvt
                0xffffffff881c122c                sm_sndDeactivateIndEvt
                0xffffffff881c1238                sm_sndModifyIndEvt
                0xffffffff881c1244                sm_mmpDataReqEvt
                0xffffffff881c1250                sm_mmpPdpCtxStatusIndEvt
                0xffffffff881c125c                sm_mmpNoNetrspIndEvt
                0xffffffff881c1268                sm_mmpDeleteSaveDataReqEvt
                0xffffffff881c1274                sm_EvtList
                0xffffffff881c12b4                sm_Gene
                0xffffffff881c12d4                sm_PdpInactive
                0xffffffff881c12e4                sm_WaitMmpCtxActivateAcc
                0xffffffff881c130c                sm_WaitSmActivateRsp
                0xffffffff881c1324                sm_WaitMmpCtxModifyAcc
                0xffffffff881c135c                sm_WaitSmModifyRsp
                0xffffffff881c1374                sm_PdpActive
                0xffffffff881c13ac                sm_WaitMmpCtxDeactivateAcc
                0xffffffff881c13d4                sm_WaitSmDeactivateRsp
                0xffffffff881c13e4                sm_WaitApiModifyAcc
                0xffffffff881c163c                sm_FSM
                0xffffffff881c1714                sms_TaskParse
                0xffffffff881c1948                smr_apiSmsPPSendReqEvt
                0xffffffff881c1958                smr_apiSmsPPSendMMAReqEvt
                0xffffffff881c1968                smr_apiSmsPPAckReqEvt
                0xffffffff881c1978                smr_apiSmsPPErrorReqEvt
                0xffffffff881c1988                smr_apiSmsPPAbortMMAReqEvt
                0xffffffff881c1998                smr_apiSmsPPAbortReqEvt
                0xffffffff881c19a8                smc_mmEstabCnfEvt
                0xffffffff881c19b8                smc_mmEstabErrEvt
                0xffffffff881c19c8                smc_mmDataIndEvt
                0xffffffff881c19d8                smc_mmReleaseIndEvt
                0xffffffff881c19e8                smc_mmServReqAckEvt
                0xffffffff881c19f8                smc_mmpDataIndEvt
                0xffffffff881c1a08                smc_mmpAbortIndEvt
                0xffffffff881c1a18                smr_smrTR1MExpEvt
                0xffffffff881c1a28                smr_smrTR1MReExpEvt
                0xffffffff881c1a38                smr_smrTR2MExpEvt
                0xffffffff881c1a48                smr_smrTRAMExpEvt
                0xffffffff881c1a58                smc_smcMOTC1MExpEvt
                0xffffffff881c1a68                smc_smcMTTC1MExpEvt
                0xffffffff881c1a78                smc_smrMODataReqEvt
                0xffffffff881c1a88                smc_smrMTDataReqEvt
                0xffffffff881c1a98                smc_smrEstabReqEvt
                0xffffffff881c1aa8                smc_smrMOReleaseReqEvt
                0xffffffff881c1ab8                smc_smrMOAbortReqEvt
                0xffffffff881c1ac8                smc_smrMTAbortReqEvt
                0xffffffff881c1ad8                smr_smcDataIndEvt
                0xffffffff881c1ae8                smr_smcEstabErrEvt
                0xffffffff881c1af8                smr_smcMOErrorIndEvt
                0xffffffff881c1b08                smr_smcMTErrorIndEvt
                0xffffffff881c1b18                smr_SelfSendEvt
                0xffffffff881c1b28                smc_mmCpDataEvt
                0xffffffff881c1b38                smc_mmCpAckEvt
                0xffffffff881c1b48                smc_mmCpErrorEvt
                0xffffffff881c1b58                smc_mmError97Evt
                0xffffffff881c1b68                smr_smcRpDataEvt
                0xffffffff881c1b78                smr_smcRpAckEvt
                0xffffffff881c1b88                smr_smcRpErrorEvt
                0xffffffff881c1b98                smr_smcError95Evt
                0xffffffff881c1ba8                smr_smcError97Evt
                0xffffffff881c1bb8                smc_mmEstabReqEvt
                0xffffffff881c1bc4                smc_mmReleaseReqEvt
                0xffffffff881c1bd0                smc_mmDataReqEvt
                0xffffffff881c1bdc                smc_mmpDataReqEvt
                0xffffffff881c1be8                smc_mmEstabIndEvt
                0xffffffff881c1bf4                smr_apiAckIndEvt
                0xffffffff881c1c00                smr_apiErrorIndEvt
                0xffffffff881c1c0c                smr_apiReceiveIndEvt
                0xffffffff881c1c18                smr_OutSelfSendEvt
                0xffffffff881c1c24                sms_EvtList
                0xffffffff881c1cdc                snd_TaskParse
                0xffffffff881c1ea4                snd_apiQueueDataReqEvt
                0xffffffff881c1eb4                snd_smActivateIndEvt
                0xffffffff881c1ec4                snd_smDeactivateIndEvt
                0xffffffff881c1ed4                snd_smModifyIndEvt
                0xffffffff881c1ee4                snd_llcResetIndEvt
                0xffffffff881c1ef4                snd_llcEstabIndEvt
                0xffffffff881c1f04                snd_llcEstabCnfEvt
                0xffffffff881c1f14                snd_llcReleaseIndEvt
                0xffffffff881c1f24                snd_llcReleaseCnfEvt
                0xffffffff881c1f34                snd_llcXidIndEvt
                0xffffffff881c1f44                snd_llcXidCnfEvt
                0xffffffff881c1f54                snd_llcDataIndEvt
                0xffffffff881c1f64                snd_llcUnitDataIndEvt
                0xffffffff881c1f74                snd_llcQueueCreateIndEvt
                0xffffffff881c1f84                snd_llcDataCnfEvt
                0xffffffff881c1f94                snd_mmpSequenceIndEvt
                0xffffffff881c1fa4                snd_sndUnitDataReqEvt
                0xffffffff881c1fb4                snd_sndDataReqEvt
                0xffffffff881c1fc4                snd_llcEstabReqEvt
                0xffffffff881c1fd0                snd_llcEstabRspEvt
                0xffffffff881c1fdc                snd_llcReleaseReqEvt
                0xffffffff881c1fe8                snd_llcXidReqEvt
                0xffffffff881c1ff4                snd_llcXidRspEvt
                0xffffffff881c2000                snd_llcChangeLlcParReqEvt
                0xffffffff881c200c                snd_smActivateRspEvt
                0xffffffff881c2018                snd_smDeactivateRspEvt
                0xffffffff881c2024                snd_smModifyRspEvt
                0xffffffff881c2030                snd_smStatusReqEvt
                0xffffffff881c203c                snd_apiQueueCreateIndEvt
                0xffffffff881c2048                snd_mmpSequenceRspEvt
                0xffffffff881c2054                snd_EvtList
                0xffffffff881c2094                snd_Gene
                0xffffffff881c20ac                snd_Idle
                0xffffffff881c20e4                snd_WaitEstabCnf
                0xffffffff881c211c                snd_Connected
                0xffffffff881c2164                snd_WaitReleaseCnf
                0xffffffff881c2184                snd_WaitEstabInd
                0xffffffff881c21a4                snd_WaitReleaseInd
                0xffffffff881c21bc                snd_RoutingAreaUpdInter
                0xffffffff881c247c                snd_FSM
                0xffffffff881c2564                snd_TabSapiToSapiIdx
                0xffffffff881c2570                snd_TabSapiIdxToSapi
                0xffffffff881c2610                ss_TaskParse
                0xffffffff881c2688                ss_mmIReleaseInd
                0xffffffff881c2698                ss_mmIEstabCnf
                0xffffffff881c26a8                ss_mmIEstabErr
                0xffffffff881c26b8                ss_mmIServReq
                0xffffffff881c26c8                ss_apiIActionReq
                0xffffffff881c26d8                ss_Timer0Exp
                0xffffffff881c26e8                ss_ComponentRcvd
                0xffffffff881c26f8                ss_USSDIReleaseComplete
                0xffffffff881c2708                ss_mmOEstabReq
                0xffffffff881c2714                ss_mmOEstabInd
                0xffffffff881c2720                ss_mmOReleaseReq
                0xffffffff881c272c                ss_mmODataReq
                0xffffffff881c2738                ss_apiOActionCnf
                0xffffffff881c2744                ss_apiOTIInd
                0xffffffff881c2750                ss_apiOErrorInd
                0xffffffff881c275c                ss_apiOActionInd
                0xffffffff881c2768                ss_GENE
                0xffffffff881c2770                ss_U0
                0xffffffff881c2778                ss_U01
                0xffffffff881c27a8                ss_U1
                0xffffffff881c27f0                ss_FsmDec
                0xffffffff881c2950                g_tgtHalCfg
                0xffffffff881c29d4                g_tgtAudCfg
                0xffffffff881c2af4                g_tgtXcvCfg
                0xffffffff881c2af8                g_tgtPaCfg
                0xffffffff881c2afc                g_tgtSwCfg
                0xffffffff881c2b00                g_tgtDsmCfg
                0xffffffff881c2b44                g_tgtMcdCfg
                0xffffffff881c2b50                g_tgtUctlsCfg
                0xffffffff881c2f70                g_ddr_table
                0xffffffff881c2fd8                g_uatCallback
                0xffffffff881c3104                g_uattransportCallback
                0xffffffff881c310c                g_uatctrolCallback
                0xffffffff881c3114                g_umssCallback
                0xffffffff881c311c                g_umssStorageFlashCallback
                0xffffffff881c3134                g_umssStorageMcCallback
                0xffffffff881c3160                g_umssTransportBoScsiCallback
                0xffffffff881c3168                g_utracesCallback
                0xffffffff881c31bc                g_vppSpeechMainCodeSize
                0xffffffff881c31c0                api_TaskParse
                0xffffffff881c465c                api_StartReq
                0xffffffff881c466c                api_StopReq
                0xffffffff881c467c                api_ImeiReq
                0xffffffff881c468c                api_SimOpenInd
                0xffffffff881c469c                api_SimCloseInd
                0xffffffff881c46ac                api_DbgInfoCmd
                0xffffffff881c46bc                api_CcSetupReq
                0xffffffff881c46cc                api_CcCallConfReq
                0xffffffff881c46dc                api_CcAlertReq
                0xffffffff881c46ec                api_CcConnectReq
                0xffffffff881c46fc                api_CcDiscReq
                0xffffffff881c470c                api_CcReleaseReq
                0xffffffff881c471c                api_CcReleaseCmpltReq
                0xffffffff881c472c                api_CcCallHoldReq
                0xffffffff881c473c                api_CcCallRetrieveReq
                0xffffffff881c474c                api_CcStartDtmfReq
                0xffffffff881c475c                api_CcStopDtmfReq
                0xffffffff881c476c                api_CcModifyReq
                0xffffffff881c477c                api_CcModifyCmpltReq
                0xffffffff881c478c                api_CcModifyRejReq
                0xffffffff881c479c                api_CcNotifyReq
                0xffffffff881c47ac                api_CcFacilityReq
                0xffffffff881c47bc                api_CcUserInfoReq
                0xffffffff881c47cc                api_QualReportReq
                0xffffffff881c47dc                api_NwSelModeReq
                0xffffffff881c47ec                api_NwListReq
                0xffffffff881c47fc                api_NwListAbortReq
                0xffffffff881c480c                api_NwSelReq
                0xffffffff881c481c                api_NwReSelReq
                0xffffffff881c482c                api_CurCellInfoReq
                0xffffffff881c483c                api_AdjCellInfoReq
                0xffffffff881c484c                api_SyncInfoReq
                0xffffffff881c485c                api_PowerScanReq
                0xffffffff881c486c                api_DetectMBSReq
                0xffffffff881c487c                api_CellListReq
                0xffffffff881c488c                api_NwPSAttachReq
                0xffffffff881c489c                api_NwPSDetachReq
                0xffffffff881c48ac                api_SmsPPSendReqEvt
                0xffffffff881c48bc                api_SmsPPSendMMAReqEvt
                0xffffffff881c48cc                api_SmsPPAbortMMAReqEvt
                0xffffffff881c48dc                api_SmsPPAbortReqEvt
                0xffffffff881c48ec                api_SmsPPAckReqEvt
                0xffffffff881c48fc                api_SmsPPErrorReqEvt
                0xffffffff881c490c                api_SmsCBActivateReqEvt
                0xffffffff881c491c                api_SmsCBDeActivateReqEvt
                0xffffffff881c492c                api_SsActionReq
                0xffffffff881c493c                api_PdpCtxActivateReqEvt
                0xffffffff881c494c                api_PdpSetMinQoSReqEvt
                0xffffffff881c495c                api_PdpCtxModifyReqEvt
                0xffffffff881c496c                api_PdpCtxModifyAccEvt
                0xffffffff881c497c                api_PdpCtxDeactivateReqEvt
                0xffffffff881c498c                api_IPdpCtxActivateRejEvt
                0xffffffff881c499c                api_PsDataReq
                0xffffffff881c49ac                api_SimResetReq
                0xffffffff881c49bc                api_SimReadBinaryReq
                0xffffffff881c49cc                api_SimUpdateBinaryReq
                0xffffffff881c49dc                api_SimReadRecordReq
                0xffffffff881c49ec                api_SimUpdateRecordReq
                0xffffffff881c49fc                api_SimInvalidateReq
                0xffffffff881c4a0c                api_SimRehabilitateReq
                0xffffffff881c4a1c                api_SimSeekReq
                0xffffffff881c4a2c                api_SimIncreaseReq
                0xffffffff881c4a3c                api_SimVerifyChvReq
                0xffffffff881c4a4c                api_SimChangeChvReq
                0xffffffff881c4a5c                api_SimDisableChvReq
                0xffffffff881c4a6c                api_SimEnableChvReq
                0xffffffff881c4a7c                api_SimUnblockChvReq
                0xffffffff881c4a8c                api_SimElemFileStatusReq
                0xffffffff881c4a9c                api_SimDedicFileStatusReq
                0xffffffff881c4aac                api_SimTerminalProfileReq
                0xffffffff881c4abc                api_SimTerminalEnvelopeReq
                0xffffffff881c4acc                api_SimTerminalResponseReq
                0xffffffff881c4adc                api_SimStkActivateReq
                0xffffffff881c4aec                api_SimPollReq
                0xffffffff881c4afc                api_SimPollOffReq
                0xffffffff881c4b0c                api_SimSelectApplictionReq
                0xffffffff881c4b1c                api_SimSetUsimPbkReq
                0xffffffff881c4b2c                api_SimRetryReq
                0xffffffff881c4b3c                api_SimSeekAllReq
                0xffffffff881c4b4c                api_SimSendCmdReq
                0xffffffff881c4b5c                api_SimManageChannelReq
                0xffffffff881c4b6c                rr_NwListInd
                0xffffffff881c4b7c                rr_NwListAbortInd
                0xffffffff881c4b8c                rr_NwCsRegInd
                0xffffffff881c4b9c                rr_PowerScanRsp
                0xffffffff881c4bac                rr_NwPsRegInd
                0xffffffff881c4bbc                rr_NwStoreListInd
                0xffffffff881c4bcc                rr_QualReportCnf
                0xffffffff881c4bdc                stk_StopCnf
                0xffffffff881c4bec                stk_SimCloseCnf
                0xffffffff881c4bfc                rr_CurCellInfoInd
                0xffffffff881c4c0c                rr_AdjCellInfoInd
                0xffffffff881c4c1c                rr_ChanModeInd
                0xffffffff881c4c2c                rr_PowerListInd
                0xffffffff881c4c3c                rr_SyncInfoInd
                0xffffffff881c4c4c                rr_CellListInfoInd
                0xffffffff881c4c5c                rr_CellListAbortInd
                0xffffffff881c4c6c                rr_NwSelAbortInd
                0xffffffff881c4c7c                mm_NwkInfoInd
                0xffffffff881c4c8c                mm_GprsTestModeInd
                0xffffffff881c4c9c                cc_TIInd
                0xffffffff881c4cac                cc_SetupInd
                0xffffffff881c4cbc                cc_CallProcInd
                0xffffffff881c4ccc                cc_ProgInd
                0xffffffff881c4cdc                cc_AlertInd
                0xffffffff881c4cec                cc_ConnectInd
                0xffffffff881c4cfc                cc_ConnectAckInd
                0xffffffff881c4d0c                cc_DiscInd
                0xffffffff881c4d1c                cc_RelInd
                0xffffffff881c4d2c                cc_RelCmptInd
                0xffffffff881c4d3c                cc_ErrorInd
                0xffffffff881c4d4c                cc_CallHoldCnf
                0xffffffff881c4d5c                cc_CallRtvCnf
                0xffffffff881c4d6c                cc_ModifyInd
                0xffffffff881c4d7c                cc_ModifyCmpltInd
                0xffffffff881c4d8c                cc_ModifyRejInd
                0xffffffff881c4d9c                cc_NotifyInd
                0xffffffff881c4dac                cc_AudioOnInd
                0xffffffff881c4dbc                cc_FacilityInd
                0xffffffff881c4dcc                cc_UserInfoInd
                0xffffffff881c4ddc                cc_Reestab_Begin_Ind
                0xffffffff881c4dec                cc_Reestab_Cnf_Ind
                0xffffffff881c4dfc                smspp_AckIndEvt
                0xffffffff881c4e0c                smspp_ErrorIndEvt
                0xffffffff881c4e1c                smspp_ReceiveIndEvt
                0xffffffff881c4e2c                cb_MsgRecIndEvt
                0xffffffff881c4e3c                cb_PagRecIndEvt
                0xffffffff881c4e4c                ss_ActionCnfEvt
                0xffffffff881c4e5c                ss_TIIndEvt
                0xffffffff881c4e6c                ss_ErrorIndEvt
                0xffffffff881c4e7c                ss_ActionIndEvt
                0xffffffff881c4e8c                snd_DataIndEvt
                0xffffffff881c4e9c                snd_QueueCreateIndEvt
                0xffffffff881c4eac                sm_PdpCtxActivateCnfEvt
                0xffffffff881c4ebc                sm_PdpCtxSmIndexIndEvt
                0xffffffff881c4ecc                sm_PdpCtxDeactivateCnfEvt
                0xffffffff881c4edc                sm_PdpCtxActivateRejEvt
                0xffffffff881c4eec                sm_PdpCtxModifyRejEvt
                0xffffffff881c4efc                sm_PdpCtxActivateIndEvt
                0xffffffff881c4f0c                sm_PdpCtxModifyCnfEvt
                0xffffffff881c4f1c                sm_PdpCtxModifyIndEvt
                0xffffffff881c4f2c                sm_PdpCtxDeactivateIndEvt
                0xffffffff881c4f3c                sim_SimResetCnf
                0xffffffff881c4f4c                sim_SimStatusErrorInd
                0xffffffff881c4f5c                sim_SimReadBinaryCnf
                0xffffffff881c4f6c                sim_SimUpdateBinaryCnf
                0xffffffff881c4f7c                sim_SimReadRecordCnf
                0xffffffff881c4f8c                sim_SimUpdateRecordCnf
                0xffffffff881c4f9c                sim_SimInvalidateCnf
                0xffffffff881c4fac                sim_SimRehabilitateCnf
                0xffffffff881c4fbc                sim_SimSeekCnf
                0xffffffff881c4fcc                sim_SimIncreaseCnf
                0xffffffff881c4fdc                sim_SimVerifyCHVCnf
                0xffffffff881c4fec                sim_SimChangeCHVCnf
                0xffffffff881c4ffc                sim_SimDisableCHVCnf
                0xffffffff881c500c                sim_SimEnableCHVCnf
                0xffffffff881c501c                sim_SimUnblockCHVCnf
                0xffffffff881c502c                sim_SimElemFileStatusCnf
                0xffffffff881c503c                sim_SimDedicFileStatusCnf
                0xffffffff881c504c                sim_SimTerminalProfileCnf
                0xffffffff881c505c                sim_SimTerminalEnvelopeCnf
                0xffffffff881c506c                sim_SimTerminalResponseCnf
                0xffffffff881c507c                sim_SimFetchInd
                0xffffffff881c508c                sim_SimSelectApplicationCnf
                0xffffffff881c509c                sim_SimSeekAllCnf
                0xffffffff881c50ac                sim_SimSendCmdCnf
                0xffffffff881c50bc                sim_SimManageChannelCnf
                0xffffffff881c50cc                rlu_UlCongInd
                0xffffffff881c50dc                api_IMemAlertExp
                0xffffffff881c50ec                api_ImeiInd
                0xffffffff881c50f8                api_StopCnf
                0xffffffff881c5104                api_SimCloseCnf
                0xffffffff881c5110                api_QualReportCnf
                0xffffffff881c511c                api_NwCsRegStatusInd
                0xffffffff881c5128                api_NwPsRegStatusInd
                0xffffffff881c5134                api_NwStoreListInd
                0xffffffff881c5140                api_NwListInd
                0xffffffff881c514c                api_NwListAbortInd
                0xffffffff881c5158                api_PowerScanRsp
                0xffffffff881c5164                api_CurCellInfoInd
                0xffffffff881c5170                api_AdjCellInfoInd
                0xffffffff881c517c                api_CcChanModeInd
                0xffffffff881c5188                api_PowerListInd
                0xffffffff881c5194                api_SyncInfoInd
                0xffffffff881c51a0                api_CellListInfoInd
                0xffffffff881c51ac                api_CellListAbortInd
                0xffffffff881c51b8                api_NWSelAbortInd
                0xffffffff881c51c4                api_NwkInfoInd
                0xffffffff881c51d0                api_GprsTestModeInd
                0xffffffff881c51dc                api_CcTIInd
                0xffffffff881c51e8                api_CcSetupInd
                0xffffffff881c51f4                api_CcCallProcInd
                0xffffffff881c5200                api_CcProgInd
                0xffffffff881c520c                api_CcAlertInd
                0xffffffff881c5218                api_CcConnectInd
                0xffffffff881c5224                api_CcConnectAckInd
                0xffffffff881c5230                api_CcDiscInd
                0xffffffff881c523c                api_CcRelInd
                0xffffffff881c5248                api_CcRelCmptInd
                0xffffffff881c5254                api_CcErrorInd
                0xffffffff881c5260                api_CcCallHoldCnf
                0xffffffff881c526c                api_CcCallRtrvCnf
                0xffffffff881c5278                api_CcModifyInd
                0xffffffff881c5284                api_CcModifyCmpltInd
                0xffffffff881c5290                api_CcModifyRejInd
                0xffffffff881c529c                api_CcNotifyInd
                0xffffffff881c52a8                api_CcAudioOnInd
                0xffffffff881c52b4                api_CcFacilityInd
                0xffffffff881c52c0                api_CcUserInfoInd
                0xffffffff881c52cc                api_CcReestabBeginInd
                0xffffffff881c52d8                api_CcReestabCnfInd
                0xffffffff881c52e4                api_SmsPPAckIndEvt
                0xffffffff881c52f0                api_SmsPPErrorIndEvt
                0xffffffff881c52fc                api_SmsPPReceiveIndEvt
                0xffffffff881c5308                api_CbMsgRecInd
                0xffffffff881c5314                api_CbPagRecInd
                0xffffffff881c5320                api_SsActionCnf
                0xffffffff881c532c                api_SsTIInd
                0xffffffff881c5338                api_SsErrorInd
                0xffffffff881c5344                api_SsActionInd
                0xffffffff881c5350                api_SndDataInd
                0xffffffff881c535c                api_SndQueueCreateInd
                0xffffffff881c5368                api_PdpCtxActivateCnfEvt
                0xffffffff881c5374                api_PdpCtxSmIndexIndEvt
                0xffffffff881c5380                api_PdpCtxDeactivateCnfEvt
                0xffffffff881c538c                api_PdpCtxActivateRejEvt
                0xffffffff881c5398                api_PdpCtxModifyRejEvt
                0xffffffff881c53a4                api_PdpCtxActivateIndEvt
                0xffffffff881c53b0                api_PdpCtxModifyCnfEvt
                0xffffffff881c53bc                api_PdpCtxModifyIndEvt
                0xffffffff881c53c8                api_PdpCtxDeactivateIndEvt
                0xffffffff881c53d4                api_SimResetCnf
                0xffffffff881c53e0                api_SimStatusErrorInd
                0xffffffff881c53ec                api_SimReadBinaryCnf
                0xffffffff881c53f8                api_SimUpdateBinaryCnf
                0xffffffff881c5404                api_SimReadRecordCnf
                0xffffffff881c5410                api_SimUpdateRecordCnf
                0xffffffff881c541c                api_SimInvalidateCnf
                0xffffffff881c5428                api_SimRehabilitateCnf
                0xffffffff881c5434                api_SimSeekCnf
                0xffffffff881c5440                api_SimIncreaseCnf
                0xffffffff881c544c                api_SimVerifyCHVCnf
                0xffffffff881c5458                api_SimChangeCHVCnf
                0xffffffff881c5464                api_SimDisableCHVCnf
                0xffffffff881c5470                api_SimEnableCHVCnf
                0xffffffff881c547c                api_SimUnblockCHVCnf
                0xffffffff881c5488                api_SimElemFileStatusCnf
                0xffffffff881c5494                api_SimDedicFileStatusCnf
                0xffffffff881c54a0                api_SimTerminalProfileCnf
                0xffffffff881c54ac                api_SimTerminalEnvelopeCnf
                0xffffffff881c54b8                api_SimTerminalResponseCnf
                0xffffffff881c54c4                api_SimFetchInd
                0xffffffff881c54d0                api_SimSelectApplicationCnf
                0xffffffff881c54dc                api_SimSeekAllCnf
                0xffffffff881c54e8                api_SimSendCmdCnf
                0xffffffff881c54f4                api_SimManageChannelCnf
                0xffffffff881c5500                stk_SimOpenInd
                0xffffffff881c550c                stk_SimClosedInd
                0xffffffff881c5518                rr_NwSelModeReq
                0xffffffff881c5524                rr_NwListReq
                0xffffffff881c5530                rr_NwListAbortReq
                0xffffffff881c553c                rr_NwSelReq
                0xffffffff881c5548                rr_NwReselReq
                0xffffffff881c5554                rr_QualReportReq
                0xffffffff881c5560                rr_CurCellInfoReq
                0xffffffff881c556c                rr_AdjCellInfoReq
                0xffffffff881c5578                rr_SyncInfoReq
                0xffffffff881c5584                rr_PowerScanReq
                0xffffffff881c5590                rr_CellListReq
                0xffffffff881c559c                rr_DetectMBSReq
                0xffffffff881c55a8                stk_StopReq
                0xffffffff881c55b4                mm_StartReq
                0xffffffff881c55c0                mm_PSAttachReq
                0xffffffff881c55cc                mm_PSDetachReq
                0xffffffff881c55d8                cc_SetupReq
                0xffffffff881c55e4                cc_CallConfReq
                0xffffffff881c55f0                cc_AlertReq
                0xffffffff881c55fc                cc_ConnectReq
                0xffffffff881c5608                cc_DiscReq
                0xffffffff881c5614                cc_RelReq
                0xffffffff881c5620                cc_RelCmptReq
                0xffffffff881c562c                cc_CallHoldReq
                0xffffffff881c5638                cc_CallRtrvReq
                0xffffffff881c5644                cc_StartDtmfReq
                0xffffffff881c5650                cc_StopDtmfReq
                0xffffffff881c565c                cc_ModifyReq
                0xffffffff881c5668                cc_ModifyCmpltReq
                0xffffffff881c5674                cc_ModifyRejReq
                0xffffffff881c5680                cc_NotifyReq
                0xffffffff881c568c                cc_FacilityReq
                0xffffffff881c5698                cc_UserInfoReq
                0xffffffff881c56a4                smspp_SendReqEvt
                0xffffffff881c56b0                smspp_SendMMAReqEvt
                0xffffffff881c56bc                smspp_AckReqEvt
                0xffffffff881c56c8                smspp_ErrorReqEvt
                0xffffffff881c56d4                smspp_AbortMMAReqEvt
                0xffffffff881c56e0                smspp_AbortReqEvt
                0xffffffff881c56ec                cb_ActivateReq
                0xffffffff881c56f8                cb_DeactivateReq
                0xffffffff881c5704                ss_ActionReq
                0xffffffff881c5710                sm_PdpCtxActivateReqEvt
                0xffffffff881c571c                sm_PdpSetMinQoSReqEvt
                0xffffffff881c5728                sm_PdpCtxModifyReqEvt
                0xffffffff881c5734                sm_PdpCtxModifyAccEvt
                0xffffffff881c5740                sm_PdpCtxDeactivateReqEvt
                0xffffffff881c574c                sm_OPdpCtxActivateRejEvt
                0xffffffff881c5758                sim_SimResetReq
                0xffffffff881c5764                sim_SimReadBinaryReq
                0xffffffff881c5770                sim_SimUpdateBinaryReq
                0xffffffff881c577c                sim_SimReadRecordReq
                0xffffffff881c5788                sim_SimUpdateRecordReq
                0xffffffff881c5794                sim_SimInvalidateReq
                0xffffffff881c57a0                sim_SimRehabilitateReq
                0xffffffff881c57ac                sim_SimSeekReq
                0xffffffff881c57b8                sim_SimIncreaseReq
                0xffffffff881c57c4                sim_SimVerifyChvReq
                0xffffffff881c57d0                sim_SimChangeChvReq
                0xffffffff881c57dc                sim_SimDisableChvReq
                0xffffffff881c57e8                sim_SimEnableChvReq
                0xffffffff881c57f4                sim_SimUnblockChvReq
                0xffffffff881c5800                sim_SimElemFileStatusReq
                0xffffffff881c580c                sim_SimDedicFileStatusReq
                0xffffffff881c5818                sim_SimTerminalProfileReq
                0xffffffff881c5824                sim_SimTerminalEnvelopeReq
                0xffffffff881c5830                sim_SimTerminalResponseReq
                0xffffffff881c583c                sim_SimStkActivateReq
                0xffffffff881c5848                sim_SimPollReq
                0xffffffff881c5854                sim_SimPollOffReq
                0xffffffff881c5860                sim_SimSelectApplicationReq
                0xffffffff881c586c                sim_SimSetUsimPbkReq
                0xffffffff881c5878                sim_simPowerOffReq
                0xffffffff881c5884                sim_simRetryReq
                0xffffffff881c5890                sim_SimSeekAllReq
                0xffffffff881c589c                sim_SimSendCmdReq
                0xffffffff881c58a8                sim_SimManageChannelReq
                0xffffffff881c58b4                api_FlowCtrIndEvt
                0xffffffff881c58c0                api_StartStackErrIndEvt
                0xffffffff881c58cc                Api_Gene
                0xffffffff881c5990                Api_FSM
                0xffffffff881c5b48                g_calibOpInfoDefault
                0xffffffff881c5b50                g_calibBbDefault
                0xffffffff881c64dc                g_calibIIRDefault
                0xffffffff881c65cc                g_calibAudioVoCDefault
                0xffffffff881c7c2c                g_calibAudioMusicDefault
                0xffffffff881c8164                g_calibSxsTaskIdleDesc
                0xffffffff881c8174                g_calibSxsCalibStubTaskDesc
                0xffffffff881c8190                cb_TaskParse
                0xffffffff881c81d8                cb_ApiActivateReq
                0xffffffff881c81e8                cb_ApiDeactivateReq
                0xffffffff881c81f8                cb_RrCellInd
                0xffffffff881c8208                cb_L1DataInd
                0xffffffff881c8218                cb_CbMsgRecInd
                0xffffffff881c8224                cb_CbPageRecInd
                0xffffffff881c8230                cb_RrCbchReq
                0xffffffff881c823c                cb_L1CbchSkipReq
                0xffffffff881c8248                cb_GENE
                0xffffffff881c8260                cb_NULL
                0xffffffff881c8278                cb_IDLE
                0xffffffff881c8280                cb_RXBLK
                0xffffffff881c82c4                cb_FSM
                0xffffffff881c8320                cc_TaskParse
                0xffffffff881c85a0                cc_rrIChanModeInd
                0xffffffff881c85b0                cc_mmIReleaseInd
                0xffffffff881c85c0                cc_mmIEstabCnf
                0xffffffff881c85d0                cc_mmIEstabErr
                0xffffffff881c85e0                cc_mmIReestabCnf
                0xffffffff881c85f0                cc_mmIReestabErr
                0xffffffff881c8600                cc_mmIServReq
                0xffffffff881c8610                cc_mmILocUpStaInd
                0xffffffff881c8620                cc_mmIPageBeginInd
                0xffffffff881c8630                cc_apiISetupReq
                0xffffffff881c8640                cc_apiICallConfReq
                0xffffffff881c8650                cc_apiIAlertReq
                0xffffffff881c8660                cc_apiIConnectReq
                0xffffffff881c8670                cc_apiIDiscReq
                0xffffffff881c8680                cc_apiIRelReq
                0xffffffff881c8690                cc_apiIRelCmptReq
                0xffffffff881c86a0                cc_apiIStartDtmfReq
                0xffffffff881c86b0                cc_apiIStopDtmfReq
                0xffffffff881c86c0                cc_apiICallHoldReq
                0xffffffff881c86d0                cc_apiICallRtrvReq
                0xffffffff881c86e0                cc_apiIFacilityReq
                0xffffffff881c86f0                cc_apiIModifyReq
                0xffffffff881c8700                cc_apiIModifyCmpltReq
                0xffffffff881c8710                cc_apiIModifyRejReq
                0xffffffff881c8720                cc_apiINotifyReq
                0xffffffff881c8730                cc_apiIUserInfoReq
                0xffffffff881c8740                T303Exp
                0xffffffff881c8750                T305Exp
                0xffffffff881c8760                T308Exp
                0xffffffff881c8770                T310Exp
                0xffffffff881c8780                T313Exp
                0xffffffff881c8790                T323Exp
                0xffffffff881c87a0                T336Exp
                0xffffffff881c87b0                T337Exp
                0xffffffff881c87c0                TMPTYExp
                0xffffffff881c87d0                TECTExp
                0xffffffff881c87e0                TS10Exp
                0xffffffff881c87f0                TRETRYExp
                0xffffffff881c8800                TWAITLUExp
                0xffffffff881c8810                cc_Setup
                0xffffffff881c8820                cc_CallProceeding
                0xffffffff881c8830                cc_Progress
                0xffffffff881c8840                cc_Alert
                0xffffffff881c8850                cc_Connect
                0xffffffff881c8860                cc_ConnectAck
                0xffffffff881c8870                cc_Disconnect
                0xffffffff881c8880                cc_Release
                0xffffffff881c8890                cc_ReleaseCmpl
                0xffffffff881c88a0                cc_StatusEnquiry
                0xffffffff881c88b0                cc_HoldAck
                0xffffffff881c88c0                cc_HoldRej
                0xffffffff881c88d0                cc_RtrvAck
                0xffffffff881c88e0                cc_RtrvRej
                0xffffffff881c88f0                cc_StartDtmfAck
                0xffffffff881c8900                cc_StartDtmfRej
                0xffffffff881c8910                cc_StopDtmfAck
                0xffffffff881c8920                cc_Facility
                0xffffffff881c8930                cc_Modify
                0xffffffff881c8940                cc_ModifyCmplt
                0xffffffff881c8950                cc_ModifyRej
                0xffffffff881c8960                cc_Notify
                0xffffffff881c8970                cc_UserInfo
                0xffffffff881c8980                cc_CongCtrl
                0xffffffff881c8990                cc_Status
                0xffffffff881c89a0                cc_mmOEstabReq
                0xffffffff881c89ac                cc_mmOEstabInd
                0xffffffff881c89b8                cc_mmOReleaseReq
                0xffffffff881c89c4                cc_mmOAbortReq
                0xffffffff881c89d0                cc_mmOReestabReq
                0xffffffff881c89dc                cc_mmODataReq
                0xffffffff881c89e8                cc_apiOTIInd
                0xffffffff881c89f4                cc_apiOSetupInd
                0xffffffff881c8a00                cc_apiOCallProcInd
                0xffffffff881c8a0c                cc_apiOProgInd
                0xffffffff881c8a18                cc_apiOAlertInd
                0xffffffff881c8a24                cc_apiOConnectInd
                0xffffffff881c8a30                cc_apiOConnectAckInd
                0xffffffff881c8a3c                cc_apiODiscInd
                0xffffffff881c8a48                cc_apiORelInd
                0xffffffff881c8a54                cc_apiORelCompInd
                0xffffffff881c8a60                cc_apiOErrorInd
                0xffffffff881c8a6c                cc_apiOAudioOnInd
                0xffffffff881c8a78                cc_apiOCallHoldCnf
                0xffffffff881c8a84                cc_apiOCallRtrvCnf
                0xffffffff881c8a90                cc_apiOFacilityInd
                0xffffffff881c8a9c                cc_apiOModifyInd
                0xffffffff881c8aa8                cc_apiOModifyCmpltInd
                0xffffffff881c8ab4                cc_apiOModifyRejInd
                0xffffffff881c8ac0                cc_apiONotifyInd
                0xffffffff881c8acc                cc_apiOUserInfoInd
                0xffffffff881c8ad8                cc_apiOCongCtrlInd
                0xffffffff881c8ae4                cc_apiOCCReestBeginInd
                0xffffffff881c8af0                cc_apiOCCReestCnfInd
                0xffffffff881c8afc                cc_GENE
                0xffffffff881c8b9c                cc_U0
                0xffffffff881c8bd4                cc_U01
                0xffffffff881c8c24                cc_U1
                0xffffffff881c8c54                cc_U6
                0xffffffff881c8c64                cc_U8
                0xffffffff881c8c74                cc_U9
                0xffffffff881c8c84                cc_U10
                0xffffffff881c8d24                cc_U11
                0xffffffff881c8d3c                cc_U12
                0xffffffff881c8d54                cc_U19
                0xffffffff881c8d74                cc_REEST
                0xffffffff881c8e00                cc_FsmDec
                0xffffffff881c90d8                g_DefCfwNv
                0xffffffff881c9a74                cfw_TaskParse
                0xffffffff881c9bac                DTMF_ARRAY
                0xffffffff881ca25c                dtmf_coeff
                0xffffffff881ca27c                second_harmonic_coeff
                0xffffffff881ca29c                pitch_coeff_est
                0xffffffff881ca2ac                dtmf_value
                0xffffffff881ca2bc                tone_value
                0xffffffff881ca2c0                tone_coeff
                0xffffffff881cb5e8                gClkRateList
                0xffffffff881cc2b0                l1s_PowerJbDesc
                0xffffffff881cc2c0                l1s_NearJbDesc
                0xffffffff881cc2d0                l1s_MonitoringAJbDesc
                0xffffffff881cc2e0                l1s_MonitoringBJbDesc
                0xffffffff881cc2f0                l1s_CchControlJbDesc
                0xffffffff881cc300                l1s_CchAJbDesc
                0xffffffff881cc310                l1s_CchBJbDesc
                0xffffffff881cc320                l1s_BcchAJbDesc
                0xffffffff881cc330                l1s_BcchBJbDesc
                0xffffffff881cc340                l1s_CbchAJbDesc
                0xffffffff881cc350                l1s_CbchBJbDesc
                0xffffffff881cc360                l1s_RachJbDesc
                0xffffffff881cc370                l1s_SdcchJbDesc
                0xffffffff881cc380                l1s_TchJbDesc
                0xffffffff881cc390                l1s_HoAccessJbDesc
                0xffffffff881cc3a0                l1s_TBFSetUpJbDesc
                0xffffffff881cc3b0                l1s_PdchJbDesc
                0xffffffff881cc3c0                l1s_TBFReleaseJbDesc
                0xffffffff881cc3d0                l1s_PSJbDesc
                0xffffffff881cc3e0                l1s_PTCchJbDesc
                0xffffffff881cc3f0                l1s_BlkSize
                0xffffffff881cc3f4                l1s_SchDist
                0xffffffff881cc428                l1s_Si34Dist
                0xffffffff881cc430                l1s_Si3Dist
                0xffffffff881cc438                l1s_NBin
                0xffffffff881cc478                l1s_RnTable
                0xffffffff881cc4f8                l1s_UpBandMap
                0xffffffff881cc500                l1s_BitsPerBlock
                0xffffffff881cc51c                l1s_MsbToLsb
                0xffffffff881cc61c                l1_TaskParse
                0xffffffff881cc784                l1s_CcchPos
                0xffffffff881cc790                l1s_BcchNBDist
                0xffffffff881cc7c4                l1s_BcchSdCombNBDist
                0xffffffff881cc7f8                l1s_PccchNBDist
                0xffffffff881cc82c                l1s_Sdcch4Pos
                0xffffffff881cc85c                l1s_Sdcch8Pos
                0xffffffff881cc8bc                l1s_TchFSchd
                0xffffffff881cc8d8                l1s_TchHSchd
                0xffffffff881cc90c                l1s_TchSubFrames
                0xffffffff881cc93c                l1s_DlDataSubFrames
                0xffffffff881cc960                l1s_TchUlSubFrame
                0xffffffff881cca70                l1s_PdchDist
                0xffffffff881cca80                l1s_PdchFSchd
                0xffffffff881ccab0                lap_TaskParse
                0xffffffff881ccd60                lap_l1DataIndEvt
                0xffffffff881ccd70                lap_l1TxIndEvt
                0xffffffff881ccd80                lap_rrEstablishReqEvt
                0xffffffff881ccd90                lap_rrSuspendReqEvt
                0xffffffff881ccda0                lap_rrResumeReqEvt
                0xffffffff881ccdb0                lap_rrReconnectReqEvt
                0xffffffff881ccdc0                lap_rrNormalReleaseReqEvt
                0xffffffff881ccdd0                lap_rrLocalReleaseReqEvt
                0xffffffff881ccde0                lap_rrDataReqEvt
                0xffffffff881ccdf0                lap_rrUnitDataReqEvt
                0xffffffff881cce00                lap_lapSapi0T200Evt
                0xffffffff881cce10                lap_lapSapi0LastT200Evt
                0xffffffff881cce20                lap_lapSapi3T200Evt
                0xffffffff881cce30                lap_lapSapi3LastT200Evt
                0xffffffff881cce40                lap_RxUaFrameEvt
                0xffffffff881cce50                lap_RxDmFrameEvt
                0xffffffff881cce60                lap_RxDiscFrameEvt
                0xffffffff881cce70                lap_RxRrFrameEvt
                0xffffffff881cce80                lap_RxRejFrameEvt
                0xffffffff881cce90                lap_RxSabmFrameEvt
                0xffffffff881ccea0                lap_RxIFrameEvt
                0xffffffff881cceb0                lap_RxUiFrameEvt
                0xffffffff881ccec0                lap_rrEstablishCnfEvt
                0xffffffff881ccecc                lap_rrEstablishFailureIndEvt
                0xffffffff881cced8                lap_rrEstablishIndEvt
                0xffffffff881ccee4                lap_rrResumeCnfEvt
                0xffffffff881ccef0                lap_rrResumeFailureIndEvt
                0xffffffff881ccefc                lap_rrReconnectCnfEvt
                0xffffffff881ccf08                lap_rrReconnectFailureIndEvt
                0xffffffff881ccf14                lap_rrReleaseIndEvt
                0xffffffff881ccf20                lap_rrDataIndEvt
                0xffffffff881ccf2c                lap_rrUnitDataIndEvt
                0xffffffff881ccf38                lap_rrNormalReleaseCnfEvt
                0xffffffff881ccf44                lap_rrNormalReleaseFailureIndEvt
                0xffffffff881ccf50                lap_EvtList
                0xffffffff881ccf88                lap_Gene
                0xffffffff881ccfa8                lap_Idle
                0xffffffff881ccfc8                lap_EstabSabmSent
                0xffffffff881cd000                lap_MFE
                0xffffffff881cd068                lap_Suspended
                0xffffffff881cd088                lap_ResumeSabmSent
                0xffffffff881cd0d8                lap_ReconnectSabmSent
                0xffffffff881cd118                lap_TimerRecovery
                0xffffffff881cd178                lap_ReleaseDiscSent
                0xffffffff881cd298                lap_FSM
                0xffffffff881cd378                llc_LleDefParam
                0xffffffff881cd3f0                llc_CheckXid
                0xffffffff881cd440                llc_TaskParse
                0xffffffff881cd640                llc_RldDataIndEvt
                0xffffffff881cd650                llc_RluQueueCreateIndEvt
                0xffffffff881cd660                llc_MmpTlliIndEvt
                0xffffffff881cd670                llc_MmpCiphParamIndEvt
                0xffffffff881cd680                llc_MmpSuspendReqEvt
                0xffffffff881cd690                llc_MmpResumeReqEvt
                0xffffffff881cd6a0                llc_MmpTriggerReqEvt
                0xffffffff881cd6b0                llc_SndcpEstReqEvt
                0xffffffff881cd6c0                llc_SndcpEstRspEvt
                0xffffffff881cd6d0                llc_SndcpXidReqEvt
                0xffffffff881cd6e0                llc_SndcpRelReqEvt
                0xffffffff881cd6f0                llc_SndcpChangeLlcParReqEvt
                0xffffffff881cd700                llc_L3QueueDataReqEvt
                0xffffffff881cd710                llc_SndcpXidRspEvt
                0xffffffff881cd720                llc_llcT200ExpEvt
                0xffffffff881cd730                llc_llcT201ExpEvt
                0xffffffff881cd740                llc_MmpUnassignReqEvt
                0xffffffff881cd750                llc_XidResetSlaveEvt
                0xffffffff881cd760                llc_NullFrameEvt
                0xffffffff881cd770                llc_RxIFrameEvt
                0xffffffff881cd780                llc_RxSFrameEvt
                0xffffffff881cd790                llc_RxUIFrameEvt
                0xffffffff881cd7a0                llc_RxU_DMFrameEvt
                0xffffffff881cd7b0                llc_RxU_DISCFrameEvt
                0xffffffff881cd7c0                llc_RxU_UAFrameEvt
                0xffffffff881cd7d0                llc_RxU_SABMFrameEvt
                0xffffffff881cd7e0                llc_RxU_FRMRFrameEvt
                0xffffffff881cd7f0                llc_RxU_XIDFrameEvt
                0xffffffff881cd800                llc_RxU_UNDEFFrameEvt
                0xffffffff881cd810                llc_rluDataReqEvt
                0xffffffff881cd81c                llc_rluSuspendReqEvt
                0xffffffff881cd828                llc_rluResumeReqEvt
                0xffffffff881cd834                llc_rluPurgeReqEvt
                0xffffffff881cd840                llc_macNewTlliCnfEvt
                0xffffffff881cd84c                llc_llcNewTlliIndEvt
                0xffffffff881cd858                llc_FlowCtrlEvt
                0xffffffff881cd864                llc_llcDataIndEvt
                0xffffffff881cd870                llc_llcUnitDataIndEvt
                0xffffffff881cd87c                llc_llcStatusIndEvt
                0xffffffff881cd888                llc_llcXidIndEvt
                0xffffffff881cd894                llc_llcReleaseIndEvt
                0xffffffff881cd8a0                llc_llcReleaseCnfEvt
                0xffffffff881cd8ac                llc_llcEstabIndEvt
                0xffffffff881cd8b8                llc_llcEstabCnfEvt
                0xffffffff881cd8c4                llc_llcXidCnfEvt
                0xffffffff881cd8d0                llc_llcResetIndEvt
                0xffffffff881cd8dc                llc_llcDataCnfEvt
                0xffffffff881cd8e8                llc_llcQueueCreateIndEvt
                0xffffffff881cd8f4                llc_EvtList
                0xffffffff881cd934                llc_DataIndEvtList
                0xffffffff881cd95c                lle_GENE
                0xffffffff881cd9cc                lle_NULL
                0xffffffff881cda04                lle_ADM
                0xffffffff881cda5c                lle_REM_EST
                0xffffffff881cda74                lle_LOC_EST
                0xffffffff881cda9c                lle_ABM
                0xffffffff881cdb1c                lle_LOC_REL
                0xffffffff881cdc58                lle_FSM
                0xffffffff881ce12c                ML_GB2312ToUnicode0
                0xffffffff881ce1e8                ML_GB2312ToUnicode1
                0xffffffff881ce24c                ML_GB2312ToUnicode2
                0xffffffff881ce260                ML_GB2312ToUnicode3
                0xffffffff881ce278                ML_GB2312ToUnicode4
                0xffffffff881ce334                ML_GB2312ToUnicode5
                0xffffffff881ce3dc                ML_GB2312ToUnicode6
                0xffffffff881ce488                ML_GB2312ToUnicode7
                0xffffffff881ce4b8                ML_GB2312ToUnicode8
                0xffffffff881ce4e8                ML_GB2312ToUnicode9
                0xffffffff881ce52c                ML_GB2312ToUnicode10
                0xffffffff881ce570                ML_GB2312ToUnicode11
                0xffffffff881ce5a4                ML_GB2312ToUnicode12
                0xffffffff881ce5f0                ML_GB2312ToUnicode13
                0xffffffff881ce688                ML_GB2312ToUnicode14
                0xffffffff881ce744                ML_GB2312ToUnicode15
                0xffffffff881ce800                ML_GB2312ToUnicode16
                0xffffffff881ce8bc                ML_GB2312ToUnicode17
                0xffffffff881ce978                ML_GB2312ToUnicode18
                0xffffffff881cea34                ML_GB2312ToUnicode19
                0xffffffff881ceaf0                ML_GB2312ToUnicode20
                0xffffffff881cebac                ML_GB2312ToUnicode21
                0xffffffff881cec68                ML_GB2312ToUnicode22
                0xffffffff881ced24                ML_GB2312ToUnicode23
                0xffffffff881cede0                ML_GB2312ToUnicode24
                0xffffffff881cee9c                ML_GB2312ToUnicode25
                0xffffffff881cef58                ML_GB2312ToUnicode26
                0xffffffff881cf014                ML_GB2312ToUnicode27
                0xffffffff881cf0d0                ML_GB2312ToUnicode28
                0xffffffff881cf18c                ML_GB2312ToUnicode29
                0xffffffff881cf248                ML_GB2312ToUnicode30
                0xffffffff881cf304                ML_GB2312ToUnicode31
                0xffffffff881cf3c0                ML_GB2312ToUnicode32
                0xffffffff881cf47c                ML_GB2312ToUnicode33
                0xffffffff881cf538                ML_GB2312ToUnicode34
                0xffffffff881cf5f4                ML_GB2312ToUnicode35
                0xffffffff881cf6b0                ML_GB2312ToUnicode36
                0xffffffff881cf76c                ML_GB2312ToUnicode37
                0xffffffff881cf828                ML_GB2312ToUnicode38
                0xffffffff881cf8e4                ML_GB2312ToUnicode39
                0xffffffff881cf9a0                ML_GB2312ToUnicode40
                0xffffffff881cfa5c                ML_GB2312ToUnicode41
                0xffffffff881cfb18                ML_GB2312ToUnicode42
                0xffffffff881cfbd4                ML_GB2312ToUnicode43
                0xffffffff881cfc90                ML_GB2312ToUnicode44
                0xffffffff881cfd4c                ML_GB2312ToUnicode45
                0xffffffff881cfe08                ML_GB2312ToUnicode46
                0xffffffff881cfec4                ML_GB2312ToUnicode47
                0xffffffff881cff80                ML_GB2312ToUnicode48
                0xffffffff881d003c                ML_GB2312ToUnicode49
                0xffffffff881d00f8                ML_GB2312ToUnicode50
                0xffffffff881d01b4                ML_GB2312ToUnicode51
                0xffffffff881d0270                ML_GB2312ToUnicode52
                0xffffffff881d032c                ML_GB2312ToUnicode53
                0xffffffff881d03e0                ML_GB2312ToUnicode54
                0xffffffff881d049c                ML_GB2312ToUnicode55
                0xffffffff881d0558                ML_GB2312ToUnicode56
                0xffffffff881d0614                ML_GB2312ToUnicode57
                0xffffffff881d06d0                ML_GB2312ToUnicode58
                0xffffffff881d078c                ML_GB2312ToUnicode59
                0xffffffff881d0848                ML_GB2312ToUnicode60
                0xffffffff881d0904                ML_GB2312ToUnicode61
                0xffffffff881d09c0                ML_GB2312ToUnicode62
                0xffffffff881d0a7c                ML_GB2312ToUnicode63
                0xffffffff881d0b38                ML_GB2312ToUnicode64
                0xffffffff881d0bf4                ML_GB2312ToUnicode65
                0xffffffff881d0cb0                ML_GB2312ToUnicode66
                0xffffffff881d0d6c                ML_GB2312ToUnicode67
                0xffffffff881d0e28                ML_GB2312ToUnicode68
                0xffffffff881d0ee4                ML_GB2312ToUnicode69
                0xffffffff881d0fa0                ML_GB2312ToUnicode70
                0xffffffff881d105c                ML_GB2312ToUnicode71
                0xffffffff881d1118                ML_GB2312ToUnicode72
                0xffffffff881d11d4                ML_GB2312ToUnicode73
                0xffffffff881d1290                ML_GB2312ToUnicode74
                0xffffffff881d134c                ML_GB2312ToUnicode75
                0xffffffff881d1408                ML_GB2312ToUnicode76
                0xffffffff881d14c4                ML_GB2312ToUnicode77
                0xffffffff881d1580                ML_GB2312ToUnicode78
                0xffffffff881d163c                ML_GB2312ToUnicode79
                0xffffffff881d16f8                ML_GB2312ToUnicode80
                0xffffffff881d17b4                ML_GB2312ToUnicode81
                0xffffffff881d1870                ML_GB2312ToUnicode82
                0xffffffff881d192c                ML_GB2312ToUnicode83
                0xffffffff881d19e8                ML_GB2312ToUnicode84
                0xffffffff881d1aa4                ML_GB2312ToUnicode85
                0xffffffff881d1b60                gb2312_array
                0xffffffff881d2964                mmpTimDsc
                0xffffffff881d299c                mmpRauType2CombUpdType
                0xffffffff881d29a0                mm_TaskParse
                0xffffffff881d2de8                mm_rrIConnectCnf
                0xffffffff881d2df8                mm_rrIReleaseInd
                0xffffffff881d2e08                mm_rrICellInd
                0xffffffff881d2e18                mm_rrIPagingInd
                0xffffffff881d2e28                mm_rrICiphInd
                0xffffffff881d2e38                mm_rrICmkInd
                0xffffffff881d2e48                mm_rrIEndCongInd
                0xffffffff881d2e58                mmp_rrIPReleaseInd
                0xffffffff881d2e68                mmp_rrISuspendReq
                0xffffffff881d2e78                mmp_rrIPPagingInd
                0xffffffff881d2e88                mm_cmIEstabReq
                0xffffffff881d2e98                mm_cmIEstabInd
                0xffffffff881d2ea8                mm_cmIReleaseReq
                0xffffffff881d2eb8                mm_cmIAbortReq
                0xffffffff881d2ec8                mm_cmIReestabReq
                0xffffffff881d2ed8                mm_cmIDataReq
                0xffffffff881d2ee8                mm_simIUpdBinCnf
                0xffffffff881d2ef8                mmc_ISelfLocUp
                0xffffffff881d2f08                mmc_ISelfPaging
                0xffffffff881d2f18                mmp_ISelfPaging
                0xffffffff881d2f28                mmp_mmcAbortCurProc
                0xffffffff881d2f38                mmp_mmcReStartPrevProc
                0xffffffff881d2f48                mmp_GprsPending
                0xffffffff881d2f58                mm_apiISimOpenInd
                0xffffffff881d2f68                mm_apiISimClosedInd
                0xffffffff881d2f78                mm_apiIStartReq
                0xffffffff881d2f88                mm_apiIStopReq
                0xffffffff881d2f98                mmp_llcIQueueCreateInd
                0xffffffff881d2fa8                mmp_llcINewTlliInd
                0xffffffff881d2fb8                mmp_llcIStatusInd
                0xffffffff881d2fc8                mmp_l3IDataReq
                0xffffffff881d2fd8                mmp_L3IDelSaveDataReq
                0xffffffff881d2fe8                mmp_smIPdpCtxStatusInd
                0xffffffff881d2ff8                mmp_smINoNetrspInd
                0xffffffff881d3008                mmp_rlcITReadyInd
                0xffffffff881d3018                mmp_rlcISynchInd
                0xffffffff881d3028                mmp_apiIAttachReq
                0xffffffff881d3038                mmp_apiIPsDetachReq
                0xffffffff881d3048                T3210Exp
                0xffffffff881d3058                T3211Exp
                0xffffffff881d3068                T3212Exp
                0xffffffff881d3078                T3213Exp
                0xffffffff881d3088                T3230Exp
                0xffffffff881d3098                TWNKCExp
                0xffffffff881d30a8                TDetachExp
                0xffffffff881d30b8                T3302Exp
                0xffffffff881d30c8                T3310Exp
                0xffffffff881d30d8                T3311Exp
                0xffffffff881d30e8                T3312Exp
                0xffffffff881d30f8                T3321Exp
                0xffffffff881d3108                T3330Exp
                0xffffffff881d3118                mmc_AuthReqEvt
                0xffffffff881d3128                mmc_AuthRejEvt
                0xffffffff881d3138                mmc_IdentityReqEvt
                0xffffffff881d3148                mmc_LocUpAccEvt
                0xffffffff881d3158                mmc_LocUpRejEvt
                0xffffffff881d3168                mmc_CmServAccEvt
                0xffffffff881d3178                mmc_CmServRejEvt
                0xffffffff881d3188                mmc_TmsiReallocCmdEvt
                0xffffffff881d3198                mmc_AbortEvt
                0xffffffff881d31a8                mmc_HdleOtherPd
                0xffffffff881d31b8                mmc_InformationEvt
                0xffffffff881d31c8                mmp_AttachAccEvt
                0xffffffff881d31d8                mmp_AttachRejEvt
                0xffffffff881d31e8                mmp_IdReqEvt
                0xffffffff881d31f8                mmp_HdleOtherPd
                0xffffffff881d3208                mmp_DetachReqEvt
                0xffffffff881d3218                mmp_AuthAndCiphReqEvt
                0xffffffff881d3228                mmp_AuthAndCiphRejEvt
                0xffffffff881d3238                mmp_RauAccEvt
                0xffffffff881d3248                mmp_RauRejEvt
                0xffffffff881d3258                mmp_TmsiReallocCmdEvt
                0xffffffff881d3268                mmp_DetachAccEvt
                0xffffffff881d3278                mmp_InformationEvt
                0xffffffff881d3288                mmp_GmmStatus
                0xffffffff881d3298                mmp_GprsTestModeCmdEvt
                0xffffffff881d32a8                mm_rrOConnectReq
                0xffffffff881d32b4                mm_rrOCellRsp
                0xffffffff881d32c0                mm_rrODataReq
                0xffffffff881d32cc                mm_rrOAbortReq
                0xffffffff881d32d8                mm_rrOLocUpSta
                0xffffffff881d32e4                mm_rrOKcInd
                0xffffffff881d32f0                mm_rrStartReq
                0xffffffff881d32fc                mm_rrSimOpenInd
                0xffffffff881d3308                mm_cmOReleaseInd
                0xffffffff881d3314                mm_cmOEstabCnf
                0xffffffff881d3320                mm_cmOEstabErr
                0xffffffff881d332c                mm_cmOReestabCnf
                0xffffffff881d3338                mm_cmOReestabErr
                0xffffffff881d3344                mm_cmOServReqAck
                0xffffffff881d3350                mm_cmODataInd
                0xffffffff881d335c                mm_cmOPageBeginInd
                0xffffffff881d3368                mm_simOUmtsAlgoReq
                0xffffffff881d3374                mm_simOGsmAlgoReq
                0xffffffff881d3380                mm_simOReadBinReq
                0xffffffff881d338c                mm_simOUpdBinReq
                0xffffffff881d3398                mm_simOReadFileStatusReq
                0xffffffff881d33a4                mm_simOErrInd
                0xffffffff881d33b0                mm_apiOStopCnf
                0xffffffff881d33bc                mm_apiONwkInfoInd
                0xffffffff881d33c8                mm_apiOSimColseCnf
                0xffffffff881d33d4                mmp_macONewTlliInd
                0xffffffff881d33e0                mmp_rrORaUpSta
                0xffffffff881d33ec                mmp_rrOMmpProcInd
                0xffffffff881d33f8                mmp_rrOGprsReq
                0xffffffff881d3404                mmp_rrOMmpReadyStInd
                0xffffffff881d3410                mmp_rluTestModeReq
                0xffffffff881d341c                mmp_rluTReadyReq
                0xffffffff881d3428                mmp_llcOTlliInd
                0xffffffff881d3434                mmp_llcOCiphParamInd
                0xffffffff881d3440                mmp_llcOUnitDataReq
                0xffffffff881d344c                mmp_llcOTriggerReq
                0xffffffff881d3458                mmp_llcOSuspendReq
                0xffffffff881d3464                mmp_llcOResumeReq
                0xffffffff881d3470                mmp_l3ODataInd
                0xffffffff881d347c                mmp_smOAbortInd
                0xffffffff881d3488                mmp_smORauAccPdpStaInd
                0xffffffff881d3494                mmp_snOSequenceInd
                0xffffffff881d34a0                mm_apiOGprsTestModeInd
                0xffffffff881d34ac                mm_OEstabReq
                0xffffffff881d34b8                mmc_OSelfLocUp
                0xffffffff881d663c                mmc_GENE
                0xffffffff881d6674                mmc_NULL
                0xffffffff881d66ac                mmc_IDLE
                0xffffffff881d670c                mmc_WRRCX
                0xffffffff881d675c                mmc_WNKRSP
                0xffffffff881d67f4                mmc_CNTD
                0xffffffff881d684c                mmc_WNKCMD
                0xffffffff881d6918                mmc_FsmDec
                0xffffffff881d69f4                PagEstabCauseTab
                0xffffffff881d6a28                RejCauseTab
                0xffffffff881d6a48                mmp_GENE
                0xffffffff881d6b00                mmp_NULL
                0xffffffff881d6b30                mmp_DREG
                0xffffffff881d6b58                mmp_PIP
                0xffffffff881d6c40                mmp_REG
                0xffffffff881d6d08                mmp_NDET
                0xffffffff881d6d48                mmp_PEND
                0xffffffff881d6e34                mmp_FsmDec
                0xffffffff881d6f34                AttRejCnf
                0xffffffff881d6f74                RauRejCnf
                0xffffffff881d6fe8                DetachReqCnf
                0xffffffff881d7134                rld_TaskParse
                0xffffffff881d71b0                rld_IConIndEvt
                0xffffffff881d71c0                rld_IDataIndEvt
                0xffffffff881d71d0                rld_IRelIndEvt
                0xffffffff881d71e0                rld_ITestModeReqEvt
                0xffffffff881d71f0                rld_ODataIndEvt
                0xffffffff881d71fc                rld_OAckReqEvt
                0xffffffff881d7208                rld_OTestDatareqEvt
                0xffffffff881d7268                rlu_TaskParse
                0xffffffff881d7400                rlu_IContinueTxEvt
                0xffffffff881d7410                rlu_IRepeatReqEvt
                0xffffffff881d7420                rlu_ITxFillReqEvt
                0xffffffff881d7430                rlu_T3182ExpEvt
                0xffffffff881d7440                rlu_TReadyExpEvt
                0xffffffff881d7450                rlu_TPurgeExpEvt
                0xffffffff881d7460                rlu_llcQDataReqEvt
                0xffffffff881d7470                rlu_llcTestModeReqEvt
                0xffffffff881d7480                rlu_llcSuspendReqEvt
                0xffffffff881d7490                rlu_llcResumeReqEvt
                0xffffffff881d74a0                rlu_llcPurgeReqEvt
                0xffffffff881d74b0                rlu_rrpUlConnectCnfEvt
                0xffffffff881d74c0                rlu_rrpUlRelStartReqEvt
                0xffffffff881d74d0                rlu_rrpUlRelIndEvt
                0xffffffff881d74e0                rlu_rrpCellOptIndEvt
                0xffffffff881d74f0                rlu_macTlliIndEvt
                0xffffffff881d7500                rlu_macContResIndEvt
                0xffffffff881d7510                rlu_macAckNackIndEvt
                0xffffffff881d7520                rlu_l1TxIndEvt
                0xffffffff881d7530                rlu_l1PurgeDQIndEvt
                0xffffffff881d7540                rlu_l1TxDiscardIndEvt
                0xffffffff881d7550                rlu_mmpTReadyReqEvt
                0xffffffff881d7560                rld_testdataReqEvt
                0xffffffff881d7570                rlu_OContinueTxEvt
                0xffffffff881d757c                rlu_ORepeatReqEvt
                0xffffffff881d7588                rlu_OTxFillReqEvt
                0xffffffff881d7594                rlu_rrpConnectReqEvt
                0xffffffff881d75a0                rlu_rrpReleaseReqEvt
                0xffffffff881d75ac                rlu_rrpTestModeReqEvt
                0xffffffff881d75b8                rlu_macDataReqEvt
                0xffffffff881d75c4                rlu_macPurgeDQEvt
                0xffffffff881d75d0                rlu_QCreateIndEvt
                0xffffffff881d75dc                rlu_mmpTReadyIndEvt
                0xffffffff881d75e8                rlu_mmpSynchIndEvt
                0xffffffff881d75f4                rlu_l1TxDiscardReqEvt
                0xffffffff881d7600                rlu_l1TestModeReqEvt
                0xffffffff881d760c                rlu_UlCongestIndEvt
                0xffffffff881d7618                rlu_OTestModeReqEvt
                0xffffffff881d7624                rlu_GENE
                0xffffffff881d76a4                rlu_VOID
                0xffffffff881d76c4                rlu_WCON
                0xffffffff881d76dc                rlu_COND
                0xffffffff881d7724                rlu_WRLS
                0xffffffff881d7764                rlu_NACK
                0xffffffff881d77a4                rlu_TEST
                0xffffffff881d7828                rlu_FSM
                0xffffffff881d78f0                rlu_SpareBits
                0xffffffff881d78f4                rlu_UlBlkSize
                0xffffffff881d7938                rlu_PduSize
                0xffffffff881d7978                rr_TaskParse
                0xffffffff881d8544                rr_IPlmnSearchReqEvt
                0xffffffff881d8554                rr_IPlmnAcceptIndEvt
                0xffffffff881d8564                rr_IPlmnRejectIndEvt
                0xffffffff881d8574                rr_IPlmnScanReqEvt
                0xffffffff881d8584                rr_IPlmnStopScanReqEvt
                0xffffffff881d8594                rr_IPlmnInitReqEvt
                0xffffffff881d85a4                rr_IPlmnReFreshReqEvt
                0xffffffff881d85b4                rr_IBaCompleteEvt
                0xffffffff881d85c4                rr_ILookBestNearEvt
                0xffffffff881d85d4                rr_RecntRslExpEvt
                0xffffffff881d85e4                rr_ForwardPagExpEvt
                0xffffffff881d85f4                rr_GuardRslExpEvt
                0xffffffff881d8604                rr_PnltyRslExpEvt
                0xffffffff881d8614                rr_NoRetRslExpEvt
                0xffffffff881d8624                rr_AsleepExpEvt
                0xffffffff881d8634                rr_MonitIndExpEvt
                0xffffffff881d8644                rr_FreshSiExpEvt
                0xffffffff881d8654                rr_NonDrxExpEvt
                0xffffffff881d8664                rr_IPlmnFoundIndEvt
                0xffffffff881d8674                rr_IPlmnNotFoundIndEvt
                0xffffffff881d8684                rr_IPlmnLostIndEvt
                0xffffffff881d8694                rr_IPlmnAvailableIndEvt
                0xffffffff881d86a4                rr_IPlmnListDoneIndEvt
                0xffffffff881d86b4                rr_IPlmnSimLoadedEvt
                0xffffffff881d86c4                rr_NSvcTimExpEvt
                0xffffffff881d86d4                rr_LtdSvcTimExpEvt
                0xffffffff881d86e4                rr_HPlmnTimExpEvt
                0xffffffff881d86f4                rr_IPlmnNasUpdEvt
                0xffffffff881d8704                rr_LocationLockTimExpEvt
                0xffffffff881d8714                rr_SendAdjCReportTimExpEvt
                0xffffffff881d8724                rr_IReselReqEvt
                0xffffffff881d8734                rr_Il1ConIndEvt
                0xffffffff881d8744                rr_Il1NotConIndEvt
                0xffffffff881d8754                rr_ICellChangeIndEvt
                0xffffffff881d8764                rr_IPCCOIndEvt
                0xffffffff881d8774                rr_IPCCOCompleteEvt
                0xffffffff881d8784                rr_BlackArfcnListExpEvt
                0xffffffff881d8794                rr_rrICellIndEvt
                0xffffffff881d87a4                rr_IReselGrantReqEvt
                0xffffffff881d87b4                rr_ISendMeasReqEvt
                0xffffffff881d87c4                rr_IPCCOResultEvt
                0xffffffff881d87d4                rr_IL3DataIndEvt
                0xffffffff881d87e4                rr_T3122ExpEvt
                0xffffffff881d87f4                rr_T3124ExpEvt
                0xffffffff881d8804                rr_T3126ExpEvt
                0xffffffff881d8814                rr_l1PowerRspEvt
                0xffffffff881d8824                rr_l1SynchFoundEvt
                0xffffffff881d8834                rr_l1SynchNotFoundEvt
                0xffffffff881d8844                rr_l1MonitorIndEvt
                0xffffffff881d8854                rr_l1NcMonitorIndEvt
                0xffffffff881d8864                rr_l1BcchDataIndEvt
                0xffffffff881d8874                rr_l1PchDataIndEvt
                0xffffffff881d8884                rr_l1RachIndEvt
                0xffffffff881d8894                rr_l1ConnectCnfEvt
                0xffffffff881d88a4                rr_l1FrqRdfCnfEvt
                0xffffffff881d88b4                rr_rrConnectReqEvt
                0xffffffff881d88c4                rr_rrCellRspEvt
                0xffffffff881d88d4                rr_rrLocUpStaEvt
                0xffffffff881d88e4                rr_rrDataReqEvt
                0xffffffff881d88f4                rr_rrKcIndEvt
                0xffffffff881d8904                rr_rrAbortReqEvt
                0xffffffff881d8914                rr_rrRaUpdStaEvt
                0xffffffff881d8924                rr_rrMmpProcIndEvt
                0xffffffff881d8934                rr_rrMmReadyStIndEvt
                0xffffffff881d8944                rr_rrGprsReqEvt
                0xffffffff881d8954                rr_lapEstablishCnfEvt
                0xffffffff881d8964                rr_lapEstablishFailureIndEvt
                0xffffffff881d8974                rr_lapReleaseIndEvt
                0xffffffff881d8984                rr_lapResumeCnfEvt
                0xffffffff881d8994                rr_lapResumeFailureIndEvt
                0xffffffff881d89a4                rr_lapReconnectCnfEvt
                0xffffffff881d89b4                rr_lapReconnectFailureIndEvt
                0xffffffff881d89c4                rr_lapEstablishIndEvt
                0xffffffff881d89d4                rr_ImmAssCmdEvt
                0xffffffff881d89e4                rr_ImmAssExtCmdEvt
                0xffffffff881d89f4                rr_ImmAssRejEvt
                0xffffffff881d8a04                rr_AssCmdEvt
                0xffffffff881d8a14                rr_FrqRdfEvt
                0xffffffff881d8a24                rr_HovCmdEvt
                0xffffffff881d8a34                rr_ChanRelEvt
                0xffffffff881d8a44                rr_CipModCmdEvt
                0xffffffff881d8a54                rr_CmkEnqEvt
                0xffffffff881d8a64                rr_ChnModEvt
                0xffffffff881d8a74                rr_PhyInfoEvt
                0xffffffff881d8a84                rr_SysInf5Evt
                0xffffffff881d8a94                rr_SysInf5BEvt
                0xffffffff881d8aa4                rr_SysInf5TEvt
                0xffffffff881d8ab4                rr_SysInf6Evt
                0xffffffff881d8ac4                rr_ExtMeasOrdEvt
                0xffffffff881d8ad4                rr_ClsTchLoopEvt
                0xffffffff881d8ae4                rr_OpnTchLoopEvt
                0xffffffff881d8af4                rr_DaiTestEvt
                0xffffffff881d8b04                rr_StatusEvt
                0xffffffff881d8b14                rrd_l1ErrorIndEvt
                0xffffffff881d8b24                rri_l1ErrorIndEvt
                0xffffffff881d8b34                mac_L1PDchIndEvt
                0xffffffff881d8b44                mac_L1PBcchIndEvt
                0xffffffff881d8b54                mac_L1ChnQualIndEvt
                0xffffffff881d8b64                rrp_L1USFInd
                0xffffffff881d8b74                rrp_L1TBFCfgCnf
                0xffffffff881d8b84                rrp_L1PSDataInd
                0xffffffff881d8b94                rrp_L1EndFixedInd
                0xffffffff881d8ba4                mac_RrIDataReq
                0xffffffff881d8bb4                rr_MacPUlAckNackInd
                0xffffffff881d8bc4                rr_MacPQueNotif
                0xffffffff881d8bd4                rr_MacContResFail
                0xffffffff881d8be4                rr_MacAccRejInd
                0xffffffff881d8bf4                rr_MacEstabReq
                0xffffffff881d8c04                mac_UlIDataReq
                0xffffffff881d8c14                mac_IDlAckReq
                0xffffffff881d8c24                mac_IPurgeDQReq
                0xffffffff881d8c34                rrp_RlcConnectReqEvt
                0xffffffff881d8c44                rrp_RlcReleaseReqEvt
                0xffffffff881d8c54                rrp_RlcTestModeReqEvt
                0xffffffff881d8c64                rr_ConfliConnectReqEvt
                0xffffffff881d8c74                mac_NewTlliIndEvt
                0xffffffff881d8c84                mac_NewTlliCnfEvt
                0xffffffff881d8c94                mac_T3166Exp
                0xffffffff881d8ca4                mac_T3200AExp
                0xffffffff881d8cb4                mac_T3200BExp
                0xffffffff881d8cc4                mac_T3200CExp
                0xffffffff881d8cd4                mac_T3200DExp
                0xffffffff881d8ce4                mac_T3200EExp
                0xffffffff881d8cf4                mac_T3200FExp
                0xffffffff881d8d04                mac_T3200GExp
                0xffffffff881d8d14                mac_T3200HExp
                0xffffffff881d8d24                rrp_T3142Exp
                0xffffffff881d8d34                rrp_T3146Exp
                0xffffffff881d8d44                rrp_T3162Exp
                0xffffffff881d8d54                rrp_T3164Exp
                0xffffffff881d8d64                rrp_T3168Exp
                0xffffffff881d8d74                rrp_T3170Exp
                0xffffffff881d8d84                rrp_T3172Exp
                0xffffffff881d8d94                rrp_T3174Exp
                0xffffffff881d8da4                rrp_T3176Exp
                0xffffffff881d8db4                rrp_T3180Exp
                0xffffffff881d8dc4                rrp_T3184Exp
                0xffffffff881d8dd4                rrp_T3186Exp
                0xffffffff881d8de4                rrp_T3188Exp
                0xffffffff881d8df4                rrp_T3190Exp
                0xffffffff881d8e04                rrp_T3192Exp
                0xffffffff881d8e14                rrp_SegImmAssExp
                0xffffffff881d8e24                rrp_IImmAssCmplt
                0xffffffff881d8e34                rrp_PUlAssEvt
                0xffffffff881d8e44                rrp_PDlAssEvt
                0xffffffff881d8e54                rrp_PTSReconfEvt
                0xffffffff881d8e64                rrp_PPDCHRelEvt
                0xffffffff881d8e74                rrp_PPwrCtrlTAEvt
                0xffffffff881d8e84                rrp_PTBFRelEvt
                0xffffffff881d8e94                rrp_PCCOEvt
                0xffffffff881d8ea4                rrp_UlRelDelayEvt
                0xffffffff881d8eb4                rrp_DlRelDelayEvt
                0xffffffff881d8ec4                rrp_SglDlExp
                0xffffffff881d8ed4                rrp_SglUlExp
                0xffffffff881d8ee4                rr_PsiEvt
                0xffffffff881d8ef4                rr_PmoEvt
                0xffffffff881d8f04                rr_simReadBinaryCnfEvt
                0xffffffff881d8f14                rr_simReadRecordCnfEvt
                0xffffffff881d8f24                rr_simFileStatusCnfEvt
                0xffffffff881d8f34                rr_CbchReqEvt
                0xffffffff881d8f44                rr_apiSimOpenIndEvt
                0xffffffff881d8f54                rr_apiSimClosedIndEvt
                0xffffffff881d8f64                rr_apiStartReqEvt
                0xffffffff881d8f74                rr_apiStopReqEvt
                0xffffffff881d8f84                rr_rrReinitReqEvt
                0xffffffff881d8f94                rr_apiNwSelModeReqEvt
                0xffffffff881d8fa4                rr_apiNwListReqEvt
                0xffffffff881d8fb4                rr_apiNwListAbortReqEvt
                0xffffffff881d8fc4                rr_apiNwSelReqEvt
                0xffffffff881d8fd4                rr_apiNwReselReqEvt
                0xffffffff881d8fe4                rr_apiPowerScanReqEvt
                0xffffffff881d8ff4                rr_apiCellListReqEvt
                0xffffffff881d9004                rr_apiCurCellInfoReqEvt
                0xffffffff881d9014                rr_apiAdjCellInfoReqEvt
                0xffffffff881d9024                rr_apiQualReportReqEvt
                0xffffffff881d9034                rr_apiSyncInfoReqEvt
                0xffffffff881d9044                rr_apiNmoCfgReqEvt
                0xffffffff881d9054                rr_apiDetectMBSReqEvt
                0xffffffff881d9064                rr_OPlmnSearchReqEvt
                0xffffffff881d9070                rr_OPlmnAcceptIndEvt
                0xffffffff881d907c                rr_OPlmnRejectIndEvt
                0xffffffff881d9088                rr_OPlmnScanReqEvt
                0xffffffff881d9094                rr_OPlmnStopScanReqEvt
                0xffffffff881d90a0                rr_OPlmnReFreshReqEvt
                0xffffffff881d90ac                rr_OPlmnFoundIndEvt
                0xffffffff881d90b8                rr_OPlmnNotFoundIndEvt
                0xffffffff881d90c4                rr_OPlmnLostIndEvt
                0xffffffff881d90d0                rr_OPlmnAvailableIndEvt
                0xffffffff881d90dc                rr_OPlmnListDoneIndEvt
                0xffffffff881d90e8                rr_OPlmnInitReqEvt
                0xffffffff881d90f4                rr_OBaCompleteEvt
                0xffffffff881d9100                rr_OLookBestNearEvt
                0xffffffff881d910c                rr_OPlmnSimLoadedEvt
                0xffffffff881d9118                rr_OPlmnNasUpdEvt
                0xffffffff881d9124                rr_OReselGrantReqEvt
                0xffffffff881d9130                rr_OPCCOResultEvt
                0xffffffff881d913c                rr_OReselReqEvt
                0xffffffff881d9148                rr_OCellChangeIndEvt
                0xffffffff881d9154                rr_OConnectedIndEvt
                0xffffffff881d9160                rr_ONotConnectedIndEvt
                0xffffffff881d916c                rr_OPCCOIndEvt
                0xffffffff881d9178                rr_OPCCOCompleteEvt
                0xffffffff881d9184                rr_l1InitReqEvt
                0xffffffff881d9190                rr_l1PowerReqEvt
                0xffffffff881d919c                rr_l1SynchReqEvt
                0xffffffff881d91a8                rr_l1SynchUpdateReqEvt
                0xffffffff881d91b4                rr_l1StopSynchReqEvt
                0xffffffff881d91c0                rr_l1CchReqEvt
                0xffffffff881d91cc                rr_l1BcchReqEvt
                0xffffffff881d91d8                rr_l1PBcchReqEvt
                0xffffffff881d91e4                rr_l1MonitorReqEvt
                0xffffffff881d91f0                rr_l1ExtdMonitorReqEvt
                0xffffffff881d91fc                rr_l1NcMonitorReqEvt
                0xffffffff881d9208                rr_l1PMeasCtrlReqEvt
                0xffffffff881d9214                rr_l1CbchReqEvt
                0xffffffff881d9220                rr_l1PccchReqEvt
                0xffffffff881d922c                rr_l1BcchModeReqEvt
                0xffffffff881d9238                l1_HighBandChangeReq
                0xffffffff881d9244                rr_l1AdjCellReportReqEvt
                0xffffffff881d9250                rr_l1RachOnReqEvt
                0xffffffff881d925c                rr_l1RachOffReqEvt
                0xffffffff881d9268                rr_l1ConnectReqEvt
                0xffffffff881d9274                rr_l1ReleaseReqEvt
                0xffffffff881d9280                rr_l1CiphCfgReqEvt
                0xffffffff881d928c                rr_l1ChnModEvt
                0xffffffff881d9298                rr_l1PhyInfoReqEvt
                0xffffffff881d92a4                rr_l1CellOptUpdEvt
                0xffffffff881d92b0                rr_l1SetTstLoopEvt
                0xffffffff881d92bc                rr_l1StopChReqEvt
                0xffffffff881d92c8                rr_l1RachUpdReqEvt
                0xffffffff881d92d4                rr_l1FrqRdfReqEvt
                0xffffffff881d92e0                rr_rrReleaseIndEvt
                0xffffffff881d92ec                rr_rrConnectCnfEvt
                0xffffffff881d92f8                rr_rrOCellIndEvt
                0xffffffff881d9304                rr_rrDataIndEvt
                0xffffffff881d9310                rr_rrPagingEvt
                0xffffffff881d931c                rr_rrCiphIndEvt
                0xffffffff881d9328                rr_rrCmkIndEvt
                0xffffffff881d9334                rr_rrEndCongIndEvt
                0xffffffff881d9340                rr_lapEstablishReqEvt
                0xffffffff881d934c                rr_lapNReleaseReqEvt
                0xffffffff881d9358                rr_lapLReleaseReqEvt
                0xffffffff881d9364                rr_lapSuspendReqEvt
                0xffffffff881d9370                rr_lapResumeReqEvt
                0xffffffff881d937c                rr_lapReconnectReqEvt
                0xffffffff881d9388                rr_lapDataReqEvt
                0xffffffff881d9394                rr_lapUnitDataReqEvt
                0xffffffff881d93a0                rr_rrChanModeIndEvt
                0xffffffff881d93ac                rr_SimReadBinReqEvt
                0xffffffff881d93b8                rr_SimFileStatusReqEvt
                0xffffffff881d93c4                rr_SimUpdateBinReqEvt
                0xffffffff881d93d0                rr_apiNwListIndEvt
                0xffffffff881d93dc                rr_apiNwListAbortIndEvt
                0xffffffff881d93e8                rr_apiNwSelAbortIndEvt
                0xffffffff881d93f4                rr_apiNwCsRegStaIndEvt
                0xffffffff881d9400                rr_apiNwPsRegStaIndEvt
                0xffffffff881d940c                rr_apiNwStoreListInd
                0xffffffff881d9418                rr_apiQualReportCnfEvt
                0xffffffff881d9424                rr_apiCurCReportIndEvt
                0xffffffff881d9430                rr_apiAdjCReportIndEvt
                0xffffffff881d943c                rr_apiCellListReportIndEvt
                0xffffffff881d9448                rr_apiCellListAbortIndEvt
                0xffffffff881d9454                rr_apiPowerListIndEvt
                0xffffffff881d9460                rr_apiSyncInfoIndEvt
                0xffffffff881d946c                rr_apiStopCnfEvt
                0xffffffff881d9478                rr_apiPowerScanRspEvt
                0xffffffff881d9484                mac_rrODataReq
                0xffffffff881d9490                mac_l1PSDataReq
                0xffffffff881d949c                rrp_l1PPDCHRel
                0xffffffff881d94a8                rrp_l1PPwrCtrlTAReq
                0xffffffff881d94b4                rrp_l1TBFRelReq
                0xffffffff881d94c0                rrp_l1TBFCfgReq
                0xffffffff881d94cc                rrp_l1MacFixedUpdtReq
                0xffffffff881d94d8                mac_CtrlDataInd
                0xffffffff881d94e4                mac_PUlAckNackInd
                0xffffffff881d94f0                mac_PQueNotif
                0xffffffff881d94fc                mac_ContResFail
                0xffffffff881d9508                mac_AccRejInd
                0xffffffff881d9514                mac_EstabReq
                0xffffffff881d9520                mac_UlAckInd
                0xffffffff881d952c                mac_OTlliInd
                0xffffffff881d9538                mac_ContResCnf
                0xffffffff881d9544                rrp_PagingInd
                0xffffffff881d9550                rrp_OImmAssCmplt
                0xffffffff881d955c                rrp_DlConnectInd
                0xffffffff881d9568                rrp_UlConnectCnf
                0xffffffff881d9574                rrp_DlRelInd
                0xffffffff881d9580                rrp_UlRelStartReq
                0xffffffff881d958c                rrp_UlRelInd
                0xffffffff881d9598                rrp_CellOptInd
                0xffffffff881d95a4                rrp_ReleaseInd
                0xffffffff881d95b0                rr_SuspendReq
                0xffffffff881d960c                rrd_GENE
                0xffffffff881d967c                rrd_VOID
                0xffffffff881d96d4                rrd_ACCI
                0xffffffff881d978c                rrd_WCNI
                0xffffffff881d97fc                rrd_COND
                0xffffffff881d996c                rrd_WRSL
                0xffffffff881d997c                rrd_ACCN
                0xffffffff881d99ec                rrd_WCNN
                0xffffffff881d9a6c                rrd_WRLS
                0xffffffff881d9b08                rrd_FSM
                0xffffffff881d9b98                rrd_RachCause
                0xffffffff881d9d54                rrg_DtxtoL1
                0xffffffff881d9d64                rrg_L1ToApiChanMode
                0xffffffff881d9d84                rrg_GprsSuspendCause
                0xffffffff881d9d90                rri_CGENE
                0xffffffff881d9de0                rri_CNULL
                0xffffffff881d9e08                rri_CRSSI
                0xffffffff881d9e20                rri_CSYNCHR
                0xffffffff881d9e40                rri_CSVERIF
                0xffffffff881d9e68                rri_CRVERIF
                0xffffffff881d9f08                rri_CCAMPED
                0xffffffff881d9ff8                rri_CRESEL
                0xffffffff881da098                rri_CCONN
                0xffffffff881da130                rri_CTRANSF
                0xffffffff881da218                rri_CENDCO
                0xffffffff881da2fc                rri_C
                0xffffffff881da458                rr_SPRach
                0xffffffff881da464                rr_TxIntPRach
                0xffffffff881da474                rr_PersLev
                0xffffffff881da494                rri_PGENE
                0xffffffff881da4dc                rri_PNULL
                0xffffffff881da4fc                rri_PWCS
                0xffffffff881da52c                rri_PCAMP
                0xffffffff881da594                rri_PLTD
                0xffffffff881da5f4                rri_PNSVC
                0xffffffff881da614                rri_PCONN
                0xffffffff881da6c0                rri_P
                0xffffffff881da7c8                InvPlmn
                0xffffffff881da7cc                DispBand
                0xffffffff881da894                DispResel
                0xffffffff881da8c0                rr_GprsCro
                0xffffffff881da8e0                rr_ArfcnList
                0xffffffff881da9dc                sap_StackCfgDefal
                0xffffffff881daa34                sap_StackDynCfgVal
                0xffffffff881dad5c                smc_MO_Gene
                0xffffffff881dad74                smc_MO_Idle
                0xffffffff881dad94                smc_MO_WaitEstabCnf
                0xffffffff881dadbc                smc_MO_WaitCpAck
                0xffffffff881dadfc                smc_MO_Connected
                0xffffffff881dae3c                smc_MO_WaitNewEstabCnf
                0xffffffff881daf48                smc_MO_FSM
                0xffffffff881dafa8                smc_MT_Gene
                0xffffffff881dafb8                smc_MT_Idle
                0xffffffff881dafd8                smc_MT_Connected
                0xffffffff881db008                smc_MT_WaitCpAck
                0xffffffff881db030                smc_MT_FSM
                0xffffffff881db0a0                smr_MO_Gene
                0xffffffff881db0b8                smr_MO_Idle
                0xffffffff881db0e0                smr_MO_WaitRpAck
                0xffffffff881db128                smr_MO_WaitMmaRpAck
                0xffffffff881db170                smr_MO_WaitMmaRetrans
                0xffffffff881db240                smr_MO_FSM
                0xffffffff881db290                smr_MT_Gene
                0xffffffff881db2a0                smr_MT_Idle
                0xffffffff881db2c0                smr_MT_WaitApiReport
                0xffffffff881db2d8                smr_MT_FSM
                0xffffffff881db77c                lwip_cyclic_timers
                0xffffffff881dbbd8                vds_crc32_table
                0xffffffff881dc028                dtmfFadInoutTable
                0xffffffff881dd9a4                ATExtendedAsciiToDefaultArray
                0xffffffff881ddaa4                ATAsciiToDefaultArray
                0xffffffff881ddba4                ATDefaultToExtendedAsciiArray
                0xffffffff881ddc24                ATDefaultToAsciiArray
                0xffffffff881de4f0                sl1_TchFSchd
                0xffffffff881de50c                sl1_TchSubFrames
                0xffffffff881e2f88                CSN1Action_cc_3411077250
                0xffffffff881e2f8c                CSN1Action_cc_852952723
                0xffffffff881e2f94                CSN1Action_cc_1341359855
                0xffffffff881e2f98                CSN1Action_cc_3539756953
                0xffffffff881e2f9c                CSN1Action_cc_3746309177
                0xffffffff881e2fa0                CSN1Action_cc_1111737679
                0xffffffff881e2fa4                CSN1Action_cc_1042473108
                0xffffffff881e2fa8                CSN1Action_cc_4122588436
                0xffffffff881e2fac                CSN1Action_cc_1756779618
                0xffffffff881e2fb0                CSN1Action_cc_3617440091
                0xffffffff881e2fb4                CSN1Action_cc_444111116
                0xffffffff881e2fbc                CSN1Action_cc_3047440023
                0xffffffff881e2fc0                CSN1Action_cc_745283224
                0xffffffff881e2fc4                CSN1Action_cc_1816175321
                0xffffffff881e2fc8                CSN1Action_cc_2999663823
                0xffffffff881e2fcc                CSN1Action_cc_2940555322
                0xffffffff881e2fd0                CSN1Action_cc_816369318
                0xffffffff881e2fd4                CSN1Action_cc_1389037149
                0xffffffff881e2fd8                CSN1Action_cc_4160415732
                0xffffffff881e2fdc                CSN1Action_cc_1449069044
                0xffffffff881e2fe0                CSN1Action_cc_3355616505
                0xffffffff881e2fe4                CSN1Action_cc_708717615
                0xffffffff881e2fe8                CSN1Action_cc_3073494361
                0xffffffff881e2fec                CSN1Action_cc_931186599
                0xffffffff881e2ff4                CSN1Action_cc_1332709388
                0xffffffff881e2ff8                CSN1Action_cc_3529533818
                0xffffffff881e2ffc                CSN1Action_cc_2919320737
                0xffffffff881e3000                CSN1Action_cc_2726219986
                0xffffffff881e3004                CSN1Action_cc_400867018
                0xffffffff881e300c                CSN1Action_cc_3089161910
                0xffffffff881e3010                CSN1Action_cc_2249596254
                0xffffffff881e3014                CSN1Action_cc_1201086337
                0xffffffff881e301c                CSN1Action_cc_4219277482
                0xffffffff881e3020                CSN1Action_cc_2497997005
                0xffffffff881e3024                CSN1Action_cc_3815527810
                0xffffffff881e302c                CSN1Action_cc_856600023
                0xffffffff881e3030                CSN1Action_cc_1455621911
                0xffffffff881e3034                CSN1Action_cc_3419203169
                0xffffffff881e3038                CSN1Action_cc_3081618362
                0xffffffff881e303c                CSN1Action_cc_715268812
                0xffffffff881e3040                CSN1Action_cc_4122251973
                0xffffffff881e3048                CSN1Action_cc_3248223767
                0xffffffff881e3050                CSN1Action_cc_2858390854
                0xffffffff881e3058                CSN1Action_cc_2573661299
                0xffffffff881e3060                CSN1Action_cc_2151347776
                0xffffffff881e3068                CSN1Action_cc_3003357045
                0xffffffff881e3070                CSN1Action_cc_133130082
                0xffffffff881e3078                CSN1Action_cc_3775613770
                0xffffffff881e3080                CSN1Action_cc_1725880936
                0xffffffff881e3088                CSN1Action_cc_3108273707
                0xffffffff881e3090                CSN1Action_cc_1075303956
                0xffffffff881e3098                CSN1Action_cc_49129937
                0xffffffff881e30a0                CSN1Action_cc_2659164212
                0xffffffff881e30a8                CSN1Action_cc_634812366
                0xffffffff881e30b0                CSN1Action_cc_1706666803
                0xffffffff881e30b8                CSN1Action_cc_820373715
                0xffffffff881e30c0                CSN1Action_cc_2242778983
                0xffffffff881e30c8                CSN1Action_cc_3797123900
                0xffffffff881e30d0                CSN1Action_cc_626852723
                0xffffffff881e30d8                CSN1Action_cc_4124638579
                0xffffffff881e30e0                CSN1Action_cc_852917564
                0xffffffff881e30e8                CSN1Action_cc_3093738256
                0xffffffff881e30ec                CSN1Action_cc_2617825877
                0xffffffff881e30f0                CSN1Action_cc_2289505114
                0xffffffff881e30f4                CSN1Action_cc_3096087395
                0xffffffff881e30f8                CSN1Action_cc_2632245798
                0xffffffff881e30fc                CSN1Action_cc_2901754476
                0xffffffff881e3100                CSN1Action_cc_3857833984
                0xffffffff881e3104                CSN1Action_cc_444487554
                0xffffffff881e3108                CSN1Action_cc_2012783832
                0xffffffff881e310c                CSN1Action_cc_1400567278
                0xffffffff881e3110                CSN1Action_cc_3245584694
                0xffffffff881e3114                CSN1Action_cc_870274782
                0xffffffff881e3118                CSN1Action_cc_3039770797
                0xffffffff881e311c                CSN1Action_cc_4230716097
                0xffffffff881e3120                CSN1Action_cc_3635006455
                0xffffffff881e3124                CSN1Action_cc_1997839531
                0xffffffff881e3128                CSN1Action_cc_1402391965
                0xffffffff881e312c                CSN1Action_cc_1847778841
                0xffffffff881e3130                CSN1Action_cc_656833653
                0xffffffff881e3134                CSN1Action_cc_1252036399
                0xffffffff881e3138                CSN1Action_cc_2444061083
                0xffffffff881e313c                CSN1Action_cc_1016208246
                0xffffffff881e3140                CSN1Action_cc_3628462980
                0xffffffff881e3144                CSN1Action_cc_2209104785
                0xffffffff881e3148                CSN1Action_cc_1486988581
                0xffffffff881e314c                CSN1Action_cc_891770495
                0xffffffff881e3150                CSN1Action_cc_290012986
                0xffffffff881e3154                CSN1Action_cc_902524428
                0xffffffff881e3158                CSN1Action_cc_296027977
                0xffffffff881e315c                CSN1Action_cc_3074499951
                0xffffffff881e3160                CSN1Action_cc_3670529589
                0xffffffff881e3164                CSN1Action_cc_2276251829
                0xffffffff881e3168                CSN1Action_cc_30027905
                0xffffffff881e316c                CSN1Action_cc_3461621577
                0xffffffff881e3170                CSN1Action_cc_3939923583
                0xffffffff881e3174                CSN1Action_cc_2738809952
                0xffffffff881e3178                CSN1Action_cc_2270201125
                0xffffffff881e317c                CSN1Action_cc_2277293398
                0xffffffff881e3180                CSN1Action_cc_3616431496
                0xffffffff881e3184                CSN1Action_cc_2659909604
                0xffffffff881e3188                CSN1Action_cc_61091139
                0xffffffff881e318c                CSN1Action_cc_3904400317
                0xffffffff881e3190                CSN1Action_cc_2235472103
                0xffffffff881e3194                CSN1Action_cc_2713504209
                0xffffffff881e3198                CSN1Action_cc_1580432979
                0xffffffff881e319c                CSN1Action_cc_2058432357
                0xffffffff881e31a0                CSN1Action_cc_389536831
                0xffffffff881e31a4                CSN1Action_cc_867536137
                0xffffffff881e31a8                CSN1Action_cc_2319916898
                0xffffffff881e31ac                CSN1Action_cc_400286796
                0xffffffff881e31b0                CSN1Action_cc_3233347900
                0xffffffff881e31b4                CSN1Action_cc_4031078661
                0xffffffff881e31b8                CSN1Action_cc_1187935467
                0xffffffff881e31bc                CSN1Action_cc_3108094825
                0xffffffff881e31c0                CSN1Action_cc_2646839903
                0xffffffff881e31c4                CSN1Action_cc_3569823795
                0xffffffff881e31c8                CSN1Action_cc_458827771
                0xffffffff881e31cc                CSN1Action_cc_2303746851
                0xffffffff881e31d0                CSN1Action_cc_1381860759
                0xffffffff881e31d4                CSN1Action_cc_1071347405
                0xffffffff881e31d8                CSN1Action_cc_2916233749
                0xffffffff881e31dc                CSN1Action_cc_3226779983
                0xffffffff881e31e0                CSN1Action_cc_1994380449
                0xffffffff881e31e4                CSN1Action_cc_2316897944
                0xffffffff881e31e8                CSN1Action_cc_3273501940
                0xffffffff881e31ec                CSN1Action_cc_3883124145
                0xffffffff881e31f0                CSN1Action_cc_3886022082
                0xffffffff881e31f4                CSN1Action_cc_2929418158
                0xffffffff881e31f8                CSN1Action_cc_3400928984
                0xffffffff881e31fc                CSN1Action_cc_3910935046
                0xffffffff881e3204                CSN1Action_cc_1145480881
                0xffffffff881e3214                CSN1Action_cc_353270059
                0xffffffff881e3218                CSN1Action_cc_1158056526
                0xffffffff881e3228                CSN1Action_cc_3226288519
                0xffffffff881e3238                CSN1Action_cc_2442363333
                0xffffffff881e3248                CSN1Action_cc_902688955
                0xffffffff881e3258                CSN1Action_cc_621582356
                0xffffffff881e3268                CSN1Action_cc_1841477667
                0xffffffff881e3270                CSN1Action_cc_3150253922
                0xffffffff881e3274                CSN1Action_cc_3603190230
                0xffffffff881e327c                CSN1Action_cc_1588188796
                0xffffffff881e328c                CSN1Action_cc_2000878133
                0xffffffff881e3294                CSN1Action_cc_2237429408
                0xffffffff881e32a4                CSN1Action_cc_2872518491
                0xffffffff881e32a8                CSN1Action_cc_1551163954
                0xffffffff881e32b0                CSN1Action_cc_4159826591
                0xffffffff881e32c0                CSN1Action_cc_2158205455
                0xffffffff881e32c4                CSN1Action_cc_2988756088
                0xffffffff881e32cc                CSN1Action_cc_1239295324
                0xffffffff881e32dc                CSN1Action_cc_1299413427
                0xffffffff881e32e4                CSN1Action_cc_886045474
                0xffffffff881e32f4                CSN1Action_cc_930541888
                0xffffffff881e3304                CSN1Action_cc_1872252617
                0xffffffff881e3314                CSN1Action_cc_1370079816
                0xffffffff881e331c                CSN1Action_cc_4062270970
                0xffffffff881e3320                CSN1Action_cc_2668768181
                0xffffffff881e3328                CSN1Action_cc_1983885861
                0xffffffff881e332c                CSN1Action_cc_1021005843
                0xffffffff881e3330                CSN1Action_cc_2129262679
                0xffffffff881e3334                CSN1Action_cc_275842905
                0xffffffff881e333c                CSN1Action_cc_2888958485
                0xffffffff881e3344                CSN1Action_cc_1752591521
                0xffffffff881e3348                CSN1Action_cc_532227770
                0xffffffff881e3350                CSN1Action_cc_138710429
                0xffffffff881e3360                CSN1Action_cc_221275285
                0xffffffff881e3364                CSN1Action_cc_1707433197
                0xffffffff881e336c                CSN1Action_cc_59777470
                0xffffffff881e337c                CSN1Action_cc_453656169
                0xffffffff881e3380                CSN1Action_cc_813585101
                0xffffffff881e3388                CSN1Action_cc_2662488628
                0xffffffff881e3398                CSN1Action_cc_1689139655
                0xffffffff881e339c                CSN1Action_cc_2686291257
                0xffffffff881e33a4                CSN1Action_cc_4117176081
                0xffffffff881e33b4                CSN1Action_cc_3342536839
                0xffffffff881e33b8                CSN1Action_cc_2986951842
                0xffffffff881e33c0                CSN1Action_cc_3845412285
                0xffffffff881e33d0                CSN1Action_cc_1715158171
                0xffffffff881e33d4                CSN1Action_cc_3974991088
                0xffffffff881e33dc                CSN1Action_cc_2344643024
                0xffffffff881e33ec                CSN1Action_cc_3306215593
                0xffffffff881e33f0                CSN1Action_cc_2128213795
                0xffffffff881e33f8                CSN1Action_cc_2032749385
                0xffffffff881e3408                CSN1Action_cc_2093895806
                0xffffffff881e340c                CSN1Action_cc_727906563
                0xffffffff881e3414                CSN1Action_cc_53901852
                0xffffffff881e3424                CSN1Action_cc_1220248098
                0xffffffff881e3428                CSN1Action_cc_1754470270
                0xffffffff881e3430                CSN1Action_cc_2752432356
                0xffffffff881e3440                CSN1Action_cc_193127317
                0xffffffff881e3448                CSN1Action_cc_4186688045
                0xffffffff881e344c                CSN1Action_cc_3375202559
                0xffffffff881e3454                CSN1Action_cc_1245712084
                0xffffffff881e345c                CSN1Action_cc_1927831968
                0xffffffff881e3460                CSN1Action_cc_3266869057
                0xffffffff881e3468                CSN1Action_cc_1476502180
                0xffffffff881e3470                CSN1Action_cc_3838236598
                0xffffffff881e3480                CSN1Action_cc_2746917974
                0xffffffff881e3484                CSN1Action_cc_3353783689
                0xffffffff881e348c                CSN1Action_cc_4251177976
                0xffffffff881e349c                CSN1Action_cc_1653083693
                0xffffffff881e34a4                CSN1Action_cc_681416798
                0xffffffff881e34ac                CSN1Action_cc_3848175428
                0xffffffff881e34b0                CSN1Action_cc_796677307
                0xffffffff881e34b8                CSN1Action_cc_3514194362
                0xffffffff881e34c8                CSN1Action_cc_2766579062
                0xffffffff881e34d0                CSN1Action_cc_1133422472
                0xffffffff881e34e0                CSN1Action_cc_1420649506
                0xffffffff881e34e8                CSN1Action_cc_2388995421
                0xffffffff881e34f8                CSN1Action_cc_827491236
                0xffffffff881e3500                CSN1Action_cc_1074194284
                0xffffffff881e3510                CSN1Action_cc_262541364
                0xffffffff881e3518                CSN1Action_cc_2207852933
                0xffffffff881e3520                CSN1Action_cc_807986200
                0xffffffff881e3524                CSN1Action_cc_2833843784
                0xffffffff881e3528                CSN1Action_cc_3020789524
                0xffffffff881e3530                CSN1Action_cc_1823305613
                0xffffffff881e3534                CSN1Action_cc_4197697887
                0xffffffff881e353c                CSN1Action_cc_514932597
                0xffffffff881e3540                CSN1Action_cc_31439822
                0xffffffff881e3544                CSN1Action_cc_1303189246
                0xffffffff881e354c                CSN1Action_cc_1282322265
                0xffffffff881e3550                CSN1Action_cc_3201809906
                0xffffffff881e3558                CSN1Action_cc_977988876
                0xffffffff881e355c                CSN1Action_cc_4051522621
                0xffffffff881e3564                CSN1Action_cc_1573567058
                0xffffffff881e3568                CSN1Action_cc_3409003004
                0xffffffff881e3570                CSN1Action_cc_4035638784
                0xffffffff881e3574                CSN1Action_cc_4073983436
                0xffffffff881e357c                CSN1Action_cc_3980988668
                0xffffffff881e358c                CSN1Action_cc_3664392443
                0xffffffff881e3594                CSN1Action_cc_229196921
                0xffffffff881e35a4                CSN1Action_cc_3703184713
                0xffffffff881e35ac                CSN1Action_cc_3525396322
                0xffffffff881e35bc                CSN1Action_cc_3445233437
                0xffffffff881e35c4                CSN1Action_cc_3006754349
                0xffffffff881e35d4                CSN1Action_cc_840315633
                0xffffffff881e35dc                CSN1Action_cc_2024367848
                0xffffffff881e35e4                CSN1Action_cc_2175835239
                0xffffffff881e35e8                CSN1Action_cc_1380761786
                0xffffffff881e35ec                CSN1Action_cc_1465459865
                0xffffffff881e35f4                CSN1Action_cc_2079741542
                0xffffffff881e35f8                CSN1Action_cc_3501688733
                0xffffffff881e3600                CSN1Action_cc_377527041
                0xffffffff881e3608                CSN1Action_cc_4027663242
                0xffffffff881e3618                CSN1Action_cc_2222786206
                0xffffffff881e3628                CSN1Action_cc_3331057133
                0xffffffff881e3630                CSN1Action_cc_2226886432
                0xffffffff881e3638                CSN1Action_cc_3157102492
                0xffffffff881e363c                CSN1Action_cc_2934334830
                0xffffffff881e3644                CSN1Action_cc_3349973769
                0xffffffff881e3654                CSN1Action_cc_3861988065
                0xffffffff881e3658                CSN1Action_cc_3400590874
                0xffffffff881e3660                CSN1Action_cc_3992153106
                0xffffffff881e3670                CSN1Action_cc_1772875302
                0xffffffff881e3674                CSN1Action_cc_3382778295
                0xffffffff881e367c                CSN1Action_cc_3774644643
                0xffffffff881e368c                CSN1Action_cc_131146044
                0xffffffff881e3690                CSN1Action_cc_67122536
                0xffffffff881e3698                CSN1Action_cc_4233307634
                0xffffffff881e36a8                CSN1Action_cc_3901413999
                0xffffffff881e36ac                CSN1Action_cc_2294833426
                0xffffffff881e36b4                CSN1Action_cc_490859788
                0xffffffff881e36c4                CSN1Action_cc_2419602553
                0xffffffff881e36c8                CSN1Action_cc_4208198203
                0xffffffff881e36d0                CSN1Action_cc_2335041139
                0xffffffff881e36e0                CSN1Action_cc_4088121906
                0xffffffff881e36e4                CSN1Action_cc_3555498293
                0xffffffff881e36ec                CSN1Action_cc_2455652453
                0xffffffff881e36fc                CSN1Action_cc_1671890077
                0xffffffff881e3704                CSN1Action_cc_4088925312
                0xffffffff881e3708                CSN1Action_cc_1146369898
                0xffffffff881e370c                CSN1Action_cc_1118317905
                0xffffffff881e3710                CSN1Action_cc_2762580295
                0xffffffff881e3718                CSN1Action_cc_1100304528
                0xffffffff881e371c                CSN1Action_cc_2473740054
                0xffffffff881e3724                CSN1Action_cc_941954885
                0xffffffff881e3734                CSN1Action_cc_2266540147
                0xffffffff881e373c                CSN1Action_cc_1030016365
                0xffffffff881e374c                CSN1Action_cc_3081063057
                0xffffffff881e3750                CSN1Action_cc_3536840962
                0xffffffff881e3758                CSN1Action_cc_2359866880
                0xffffffff881e3768                CSN1Action_cc_2075517348
                0xffffffff881e376c                CSN1Action_cc_843726042
                0xffffffff881e3774                CSN1Action_cc_809313225
                0xffffffff881e3778                CSN1Action_cc_3710005275
                0xffffffff881e3780                CSN1Action_cc_3722580566
                0xffffffff881e3790                CSN1Action_cc_3749297656
                0xffffffff881e3798                CSN1Action_cc_2797395583
                0xffffffff881e37a8                CSN1Action_cc_1897139565
                0xffffffff881e37b0                CSN1Action_cc_2250900012
                0xffffffff881e37c0                CSN1Action_cc_410193901
                0xffffffff881e37c8                CSN1Action_cc_3455978900
                0xffffffff881e37d8                CSN1Action_cc_2385887278
                0xffffffff881e37e0                CSN1Action_cc_658164215
                0xffffffff881e37f0                CSN1Action_cc_4224949542
                0xffffffff881e37f8                CSN1Action_cc_3796135119
                0xffffffff881e3808                CSN1Action_cc_4221717494
                0xffffffff881e3818                CSN1Action_cc_979837026
                0xffffffff881e3828                CSN1Action_cc_3605156616
                0xffffffff881e3830                CSN1Action_cc_1825751974
                0xffffffff881e3834                CSN1Action_cc_4182485271
                0xffffffff881e383c                CSN1Action_cc_1666300355
                0xffffffff881e384c                CSN1Action_cc_1040633023
                0xffffffff881e3854                CSN1Action_cc_2762766377
                0xffffffff881e3864                CSN1Action_cc_963504207
                0xffffffff881e3874                CSN1Action_cc_3017240667
                0xffffffff881e3884                CSN1Action_cc_1229674022
                0xffffffff881e3894                CSN1Action_cc_529167968
                0xffffffff881e38a4                CSN1Action_cc_2914849624
                0xffffffff881e38b4                CSN1Action_cc_210500043
                0xffffffff881e38bc                CSN1Action_cc_964346841
                0xffffffff881e38c0                CSN1Action_cc_2213595614
                0xffffffff881e38c8                CSN1Action_cc_2813987237
                0xffffffff881e38d8                CSN1Action_cc_1683811483
                0xffffffff881e38e0                CSN1Action_cc_1354706373
                0xffffffff881e38e4                CSN1Action_cc_607771889
                0xffffffff881e38ec                CSN1Action_cc_841036727
                0xffffffff881e38fc                CSN1Action_cc_737192080
                0xffffffff881e390c                CSN1Action_cc_262739892
                0xffffffff881e3910                CSN1Action_cc_2853052809
                0xffffffff881e3920                CSN1Action_cc_91856451
                0xffffffff881e3930                CSN1Action_cc_2731816533
                0xffffffff881e3934                CSN1Action_cc_4010734005
                0xffffffff881e393c                CSN1Action_cc_2533015138
                0xffffffff881e3940                CSN1Action_cc_726173617
                0xffffffff881e3944                CSN1Action_cc_982304886
                0xffffffff881e3948                CSN1Action_cc_2281177646
                0xffffffff881e394c                CSN1Action_cc_3774523959
                0xffffffff881e3950                CSN1Action_cc_1817136603
                0xffffffff881e3954                CSN1Action_cc_3833634472
                0xffffffff881e3958                CSN1Action_cc_732217282
                0xffffffff881e395c                CSN1Action_cc_4165700834
                0xffffffff881e3960                CSN1Action_cc_254209780
                0xffffffff881e3964                CSN1Action_cc_3570087538
                0xffffffff881e396c                CSN1Action_cc_3766743187
                0xffffffff881e3974                CSN1Action_cc_1616868386
                0xffffffff881e3984                CSN1Action_cc_1595149866
                0xffffffff881e3988                CSN1Action_cc_2826991294
                0xffffffff881e3990                CSN1Action_cc_1746019740
                0xffffffff881e3994                CSN1Action_cc_2073452316
                0xffffffff881e3998                CSN1Action_cc_2473106058
                0xffffffff881e399c                CSN1Action_cc_907963356
                0xffffffff881e39a4                CSN1Action_cc_1440400685
                0xffffffff881e39a8                CSN1Action_cc_370191430
                0xffffffff881e39ac                CSN1Action_cc_2247516746
                0xffffffff881e39b0                CSN1Action_cc_809346664
                0xffffffff881e39b8                CSN1Action_cc_4049487921
                0xffffffff881e39bc                CSN1Action_cc_3441249010
                0xffffffff881e39c0                CSN1Action_cc_4172668897
                0xffffffff881e39c8                CSN1Action_cc_1136845788
                0xffffffff881e39cc                CSN1Action_cc_1713566261
                0xffffffff881e39d4                CSN1Action_cc_2597421497
                0xffffffff881e39d8                CSN1Action_cc_3170572631
                0xffffffff881e39e0                CSN1Action_cc_2295125808
                0xffffffff881e39e4                CSN1Action_cc_1897261891
                0xffffffff881e39ec                CSN1Action_cc_379913519
                0xffffffff881e39f0                CSN1Action_cc_988398749
                0xffffffff881e39f8                CSN1Action_cc_3651848284
                0xffffffff881e39fc                CSN1Action_cc_137022685
                0xffffffff881e3a04                CSN1Action_cc_3157119530
                0xffffffff881e3a08                CSN1Action_cc_2947784073
                0xffffffff881e3a10                CSN1Action_cc_3926522531
                0xffffffff881e3a14                CSN1Action_cc_2079062065
                0xffffffff881e3a1c                CSN1Action_cc_323156570
                0xffffffff881e3a20                CSN1Action_cc_1681691394
                0xffffffff881e3a28                CSN1Action_cc_1659318371
                0xffffffff881e3a2c                CSN1Action_cc_3919518660
                0xffffffff881e3a30                CSN1Action_cc_2305931879
                0xffffffff881e3a34                CSN1Action_cc_2635619618
                0xffffffff881e3a3c                CSN1Action_cc_2987918999
                0xffffffff881e3a40                CSN1Action_cc_2216290462
                0xffffffff881e3a44                CSN1Action_cc_1456211332
                0xffffffff881e3a4c                CSN1Action_cc_1148664851
                0xffffffff881e3a50                CSN1Action_cc_3915597396
                0xffffffff881e3a54                CSN1Action_cc_639863330
                0xffffffff881e3a58                CSN1Action_cc_3020441812
                0xffffffff881e3a5c                CSN1Action_cc_3752490235
                0xffffffff881e3a64                CSN1Action_cc_3644256291
                0xffffffff881e3a68                CSN1Action_cc_1352558557
                0xffffffff881e3a70                CSN1Action_cc_3675174633
                0xffffffff881e3a78                CSN1Action_cc_2705093056
                0xffffffff881e3a80                CSN1Action_cc_2079674404
                0xffffffff881e3a84                CSN1Action_cc_2692186587
                0xffffffff881e3a88                CSN1Action_cc_4059339386
                0xffffffff881e3a8c                CSN1Action_cc_2694560168
                0xffffffff881e3a90                CSN1Action_cc_215255762
                0xffffffff881e3a98                CSN1Action_cc_676031829
                0xffffffff881e3a9c                CSN1Action_cc_637602828
                0xffffffff881e3aa0                CSN1Action_cc_310141753
                0xffffffff881e3aa8                CSN1Action_cc_1128824597
                0xffffffff881e3aac                CSN1Action_cc_42163514
                0xffffffff881e3ab0                CSN1Action_cc_866215047
                0xffffffff881e3ab8                CSN1Action_cc_3942000816
                0xffffffff881e3ac0                CSN1Action_cc_45900188
                0xffffffff881e3ad0                CSN1Action_cc_4010655922
                0xffffffff881e3ad4                CSN1Action_cc_2547294548
                0xffffffff881e3adc                CSN1Action_cc_2030010
                0xffffffff881e3ae0                CSN1Action_cc_2190160872
                0xffffffff881e3ae4                CSN1Action_cc_257741642
                0xffffffff881e3ae8                CSN1Action_cc_599709352
                0xffffffff881e3af0                CSN1Action_cc_2677374129
                0xffffffff881e3af4                CSN1Action_cc_2800048813
                0xffffffff881e3af8                CSN1Action_cc_3446269274
                0xffffffff881e3b00                CSN1Action_cc_3666336121
                0xffffffff881e3b04                CSN1Action_cc_2291995947
                0xffffffff881e3b08                CSN1Action_cc_2785632990
                0xffffffff881e3b0c                CSN1Action_cc_3685612832
                0xffffffff881e3b10                CSN1Action_cc_3414644666
                0xffffffff881e3b18                CSN1Action_cc_3395391009
                0xffffffff881e3b1c                CSN1Action_cc_3686771038
                0xffffffff881e3b24                CSN1Action_cc_2506752940
                0xffffffff881e3b28                CSN1Action_cc_1267203926
                0xffffffff881e3b2c                CSN1Action_cc_1301849335
                0xffffffff881e3b34                CSN1Action_cc_923475874
                0xffffffff881e3b38                CSN1Action_cc_1502008668
                0xffffffff881e3b3c                CSN1Action_cc_1347901770
                0xffffffff881e3b40                CSN1Action_cc_1877579283
                0xffffffff881e3b44                CSN1Action_cc_3462442878
                0xffffffff881e3b48                CSN1Action_cc_1862643296
                0xffffffff881e3b4c                CSN1Action_cc_535937020
                0xffffffff881e3b50                CSN1Action_cc_2097448042
                0xffffffff881e3b54                CSN1Action_cc_564128041
                0xffffffff881e3b58                CSN1Action_cc_276985648
                0xffffffff881e3b5c                CSN1Action_cc_1935931641
                0xffffffff881e3b60                CSN1Action_cc_1265354533
                0xffffffff881e555c                OperatorInfo
                0xffffffff881e7ef0                SpecialOperatorInfo
                0xffffffff881e8e28                IPCP_OPTION
                0xffffffff881ea808                TerminalResponse
                0xffffffff881ea814                ResponseText
                0xffffffff881ea818                ResponseItem
                0xffffffff881ea81c                MenuSelection
                0xffffffff881ea828                EventDownload
                0xffffffff881ea834                TimerExpirationDownload
                0xffffffff881ea844                ResponseLocalInfo
                0xffffffff881ea850                ResponseMeasure
                0xffffffff881ea864                ResponseDateTime
                0xffffffff881ea870                ResponseLanguage
                0xffffffff881ea874                ResponseTimingAdvance
                0xffffffff881ea878                ResponseCardStatus
                0xffffffff881eb3f4                CSW_RID_3G
                0xffffffff881ecc78                KnownL3IEs
                0xffffffff881edae8                ethbroadcast
                0xffffffff881edaf0                ethzero
                0xffffffff881ee194                g_halOverlayDesc
                0xffffffff881ee2b4                ip_addr_any_type
                0xffffffff881ee880                ip_addr_any
                0xffffffff881ee898                ip_addr_broadcast
                0xffffffff881ef0d0                ip6_addr_any
                0xffffffff881ef1e0                lap_ControlField
                0xffffffff881ef1e8                lap_SupervisoryFrame
                0xffffffff881ef1f0                lap_TabN200
                0xffffffff881ef1f4                llc_DummyFcs
                0xffffffff881ef268                SupervisoryFrmName
                0xffffffff881ef278                llc_UFrmName
                0xffffffff881ef308                mac_PdchDist
                0xffffffff881ef528                memp_RAW_PCB
                0xffffffff881ef530                memp_UDP_PCB
                0xffffffff881ef538                memp_TCP_PCB
                0xffffffff881ef540                memp_TCP_PCB_LISTEN
                0xffffffff881ef548                memp_TCP_SEG
                0xffffffff881ef550                memp_ALTCP_PCB
                0xffffffff881ef558                memp_REASSDATA
                0xffffffff881ef560                memp_FRAG_PBUF
                0xffffffff881ef568                memp_NETBUF
                0xffffffff881ef570                memp_NETCONN
                0xffffffff881ef578                memp_TCPIP_MSG_API
                0xffffffff881ef580                memp_API_MSG
                0xffffffff881ef588                memp_DNS_API_MSG
                0xffffffff881ef590                memp_SOCKET_SETGETSOCKOPT_DATA
                0xffffffff881ef598                memp_TCPIP_MSG_INPKT
                0xffffffff881ef5a0                memp_NETDB
                0xffffffff881ef5a8                memp_ND6_QUEUE
                0xffffffff881ef5b0                memp_IP6_REASSDATA
                0xffffffff881ef5b8                memp_MLD6_GROUP
                0xffffffff881ef5c0                memp_PBUF
                0xffffffff881ef5c8                memp_PBUF_POOL
                0xffffffff881ef5d0                memp_pools
                0xffffffff881ef92c                codec_wav_tags
                0xffffffff881efd20                PCMSamplesRate
                0xffffffff881efdcc                M51BCCH
                0xffffffff881f1ce0                memp_PPP_PCB
                0xffffffff881f1cf4                memp_PPPAPI_MSG
                0xffffffff881f1fa4                memp_PPPOS_PCB
                0xffffffff881f2160                rr_TxInteger
                0xffffffff881f2170                rr_SComb
                0xffffffff881f2180                rr_SNComb
                0xffffffff881f2190                rr_MaxRetrans
                0xffffffff881f2194                rr_RrToApiFrqBand
                0xffffffff881f6e79                netconn_aborted
                0xffffffff881f6e7a                netconn_reset
                0xffffffff881f6e7b                netconn_closed
                0xffffffff881f7b78                tcp_pcb_lists
                0xffffffff881fb508                IF1_475_table
                0xffffffff881fb5c8                IF1_515_table
                0xffffffff881fb698                IF1_59_table
                0xffffffff881fb784                IF1_67_table
                0xffffffff881fb890                IF1_74_table
                0xffffffff881fb9b8                IF1_795_table
                0xffffffff881fbaf8                IF1_102_table
                0xffffffff881fbc90                IF1_122_table
                0xffffffff881fbe78                AmrHead_table
                0xffffffff881fbe80                SNDRECBUF_LEN_AMR
                0xffffffff881fbea0                Voc_frame_bytes
                0xffffffff881fc3b4                g_charsets
                0xffffffff881fdc68                aiuser_itf
                0xffffffff881fe5f4                AMR_HEADER
                0xffffffff88201c90                mbedtls_rsa_info
                0xffffffff88201cc0                mbedtls_eckey_info
                0xffffffff88201cf0                mbedtls_eckeydh_info
                0xffffffff88201d20                mbedtls_ecdsa_info
                0xffffffff882044cc                mbedtls_x509_crt_profile_default
                0xffffffff882044dc                mbedtls_x509_crt_profile_suiteb
                0xffffffff882045c0                altcp_tcp_functions
                0xffffffff88204934                altcp_mbedtls_functions
                0xffffffff88204a88                mbedtls_cipher_definitions
                0xffffffff88206e84                mbedtls_md4_info
                0xffffffff88206eb4                mbedtls_md5_info
                0xffffffff88206ee4                mbedtls_ripemd160_info
                0xffffffff88206f14                mbedtls_sha1_info
                0xffffffff88206f44                mbedtls_sha224_info
                0xffffffff88206f74                mbedtls_sha256_info
                0xffffffff88206fa4                mbedtls_sha384_info
                0xffffffff88206fd4                mbedtls_sha512_info

.boot_sector_reload_struct_ptr
                0xffffffff81c00274        0x4
 hex/app/SW_V2112_csdk.elf(.boot_sector_reload_struct_ptr)
 .boot_sector_reload_struct_ptr
                0xffffffff81c00274        0x4 hex/app/SW_V2112_csdk.elf
                0xffffffff81c00274                g_bootSectorReloadStructPtr

.ucbackup       0xffffffffa20568a0       0x10
 hex/app/SW_V2112_csdk.elf(.ucbackup)
 .ucbackup      0xffffffffa20568a0       0x10 hex/app/SW_V2112_csdk.elf
                0xffffffffa20568a4                g_stackAutoCallStruct

.cust_bss       0xffffffff82300000       0x10
 hex/app/app.elf(.cust_bss)
 .cust_bss      0xffffffff82300000       0x10 hex/app/app.elf
                0xffffffff82300000                temp000___
                0xffffffff82300004                g_InterfaceVtbl
                0xffffffff82300008                mainTaskHandle
                0xffffffff8230000c                otherTaskHandle

.boot_sector_struct_ptr
                0xffffffff81c00278        0x4
 hex/app/SW_V2112_csdk.elf(.boot_sector_struct_ptr)
 .boot_sector_struct_ptr
                0xffffffff81c00278        0x4 hex/app/SW_V2112_csdk.elf
                0xffffffff81c00278                g_bootSectorStructPtr

.bcpu_rom_version_number
                0xffffffff81e97ff8        0x4
 hex/app/SW_V2112_csdk.elf(.bcpu_rom_version_number)
 .bcpu_rom_version_number
                0xffffffff81e97ff8        0x4 hex/app/SW_V2112_csdk.elf
                0xffffffff81e97ff8                g_bcpuRomVersionNumber
                0xffffffff81e97ff8                _bcpu_rom_version_number

.cust_rotext    0xffffffff88240010      0x190
 hex/app/app.elf(.cust_rotext)
 .cust_rotext   0xffffffff88240010      0x190 hex/app/app.elf
                0xffffffff88240011                user_Main
                0xffffffff8824002d                user_Init
                0xffffffff88240075                LoopTask
                0xffffffff882400b1                AppMainTask
                0xffffffff8824013d                app_Main

.sys_sram_overlay_1
                0xffffffff81c09690       0x10 load address 0xffffffff8801b790
 hex/app/SW_V2112_csdk.elf(.sys_sram_overlay_1)
 .sys_sram_overlay_1
                0xffffffff81c09690       0x10 hex/app/SW_V2112_csdk.elf

.backup         0xffffffff82056800       0xa0
 hex/app/SW_V2112_csdk.elf(.backup)
 .backup        0xffffffff82056800       0xa0 hex/app/SW_V2112_csdk.elf
                0xffffffff82056800                g_halWatchdogCtx

.internal_rom.crc
                0xffffffff81e05ffc        0x4
 hex/app/SW_V2112_csdk.elf(.internal_rom.crc)
 .internal_rom.crc
                0xffffffff81e05ffc        0x4 hex/app/SW_V2112_csdk.elf
                0xffffffff81e05ffc                __int_rom_crc
                0xffffffffa1b00000                _dualport_sram_uncached_data_end
                0xffffffffa1b00000                _dualport_sram_uncached_data_start
                0xffffffff81b00000                _dualport_sram_cached_data_start
                0xffffffff81b00000                _dualport_sram_text_end
                0xffffffff81b00000                _dualport_sram_text_start
                0xffffffff81b00000                _dualport_sram_cached_data_end

.bootsrambss    0xffffffff81c08cd0       0x10
 hex/app/SW_V2112_csdk.elf(.bootsrambss)
 .bootsrambss   0xffffffff81c08cd0       0x10 hex/app/SW_V2112_csdk.elf

.bcpu_rom_text  0xffffffffa1e80000    0x137b0 load address 0xffffffff81e80000
 hex/app/SW_V2112_csdk.elf(.bcpu_rom_text)
 .bcpu_rom_text
                0xffffffffa1e80000    0x137b0 hex/app/SW_V2112_csdk.elf
                0xffffffffa1e80000                __bcpu_start
                0xffffffffa1e80000                __bcpu_rom_main
                0xffffffffa1e80024                __bcpu_init
                0xffffffffa1e80060                spal_InvalidateDcache
                0xffffffffa1e80090                spal_InvalidateCache
                0xffffffffa1e800c1                spal_Open
                0xffffffffa1e800f0                spp_DummyPCH_DisAsm
                0xffffffffa1e80141                spp_Open
                0xffffffffa1e80180                __bb_int_handler
                0xffffffffa1e80438                spal_BbGetSp
                0xffffffffa1e80440                spal_IrqInit
                0xffffffffa1e80471                spp_CipherA53Open
                0xffffffffa1e80491                spp_CipherDecipherNb
                0xffffffffa1e804e1                spp_CipherCipherNb
                0xffffffffa1e80531                spp_CipherStart
                0xffffffffa1e80581                spp_CipherCountInit
                0xffffffffa1e805d0                spp_FcchDetectAsm
                0xffffffffa1e80921                spp_GetAmrIc
                0xffffffffa1e80a51                spp_GetAmrMetric
                0xffffffffa1e80b41                spp_SearchAmrMarker
                0xffffffffa1e80fb1                spp_ReorderFR_EFR
                0xffffffffa1e813e1                spp_DecodeBlock
                0xffffffffa1e82881                spp_QrDecomposition
                0xffffffffa1e82aa1                spp_ComputePrefilter
                0xffffffffa1e82cd1                spp_HardDecisionToSym
                0xffffffffa1e82df1                spp_8tapDetectGsm
                0xffffffffa1e82ef1                spp_InterfereDetect
                0xffffffffa1e82f11                spp_EqShiftParam
                0xffffffffa1e82f81                spp_EqSoftShift
                0xffffffffa1e83071                spp_TofSearch
                0xffffffffa1e83191                spp_DcocProcess
                0xffffffffa1e83271                spp_FofEstimation
                0xffffffffa1e834e1                spp_SaicProstep2
                0xffffffffa1e83bd1                spp_SaicPro
                0xffffffffa1e84b81                spp_DigitalAgc
                0xffffffffa1e84c71                spp_Equalize_saic
                0xffffffffa1e84e31                spp_Equalize
                0xffffffffa1e85441                spp_Chest
                0xffffffffa1e854f1                spp_ChannelEstimation
                0xffffffffa1e85811                spp_EqualizeDecodeSch
                0xffffffffa1e859c1                spp_EqualizeNBurstSaic
                0xffffffffa1e85dd1                spp_ChannelEstimation8taps
                0xffffffffa1e860d1                spp_TapsShorten
                0xffffffffa1e861f1                spp_GaussSeidel
                0xffffffffa1e86351                spp_ChannelTracking
                0xffffffffa1e864f1                spp_EqualizeNBurst
                0xffffffffa1e86961                spp_GetUSF
                0xffffffffa1e86a81                spp_DecodeStealingBits
                0xffffffffa1e86bd1                spp_GetChannelType
                0xffffffffa1e86dd1                spp_GetMonPower
                0xffffffffa1e86e21                spp_DeinterleaveBlock
                0xffffffffa1e86e71                spp_SearchFcchFilter
                0xffffffffa1e87371                spp_SearchFcch
                0xffffffffa1e87931                spp_Modulation
                0xffffffffa1e87c81                spp_BuildNBurst
                0xffffffffa1e87d41                spp_EncodeABurst
                0xffffffffa1e87eb1                spp_EncodeBlock
                0xffffffffa1e89681                spp_10log10
                0xffffffffa1e89741                spp_Log2
                0xffffffffa1e89801                spp_DivL
                0xffffffffa1e898b1                spp_Sqrt
                0xffffffffa1e89921                spp_FullBurstReady
                0xffffffffa1e89931                spp_ResetFullBurstReady
                0xffffffffa1e89941                spp_OneFullBurstReady
                0xffffffffa1e89971                spp_OneFullBurstDone
                0xffffffffa1e899a1                spp_DetectDummyPCH
                0xffffffffa1e89b30                spp_FcchDetectFilterAsm
                0xffffffffa1e89d51                spal_DbgPxtsProfileTask
                0xffffffffa1e89e21                spal_DbgHstSendEvent
                0xffffffffa1e89e81                spal_DbgPxtsProfilePulse
                0xffffffffa1e89f51                spal_DbgPxtsProfileFunctionEnter
                0xffffffffa1e8a021                spal_DbgPxtsProfileFunctionExit
                0xffffffffa1e8a0f1                spal_DbgPxtsProfileWindowEnter
                0xffffffffa1e8a1c1                spal_DbgPxtsProfileWindowExit
                0xffffffffa1e8a291                spal_DbgGdbHstSendEvent
                0xffffffffa1e8a2d1                spal_GdbOpen
                0xffffffffa1e8a311                spal_GdbBreaks
                0xffffffffa1e8a341                spal_GdbBreakPrint
                0xffffffffa1e8a3f1                spal_GdbPrepare
                0xffffffffa1e8a411                spal_GdbSendcmd
                0xffffffffa1e8a471                spal_Gdb16Step
                0xffffffffa1e8a801                spal_Gdb32Step
                0xffffffffa1e8aa61                spal_Gdb16EndStep
                0xffffffffa1e8aa91                spal_Gdb32EndStep
                0xffffffffa1e8aab1                spal_GdbLoop
                0xffffffffa1e8ae11                spal_GdbException
                0xffffffffa1e8aeb1                spal_GdbIrqDebug
                0xffffffffa1e8af41                spal_GdbBreakRaise
                0xffffffffa1e8aff1                spal_GdbBreakSoftBreakPoint
                0xffffffffa1e8b091                spal_GdbBreakBreakPoint
                0xffffffffa1e8b121                spal_GdbBreakDivBy0
                0xffffffffa1e8b1e1                spal_IrqSetMask
                0xffffffffa1e8b201                spal_IrqHandler
                0xffffffffa1e8b361                spal_ItlvBusy
                0xffffffffa1e8b371                spal_ItlvItlv
                0xffffffffa1e8b3c1                spal_ItlvDitlv
                0xffffffffa1e8b411                spal_ItlvIntClear
                0xffffffffa1e8b421                spal_VitacBusy
                0xffffffffa1e8b441                spal_VitacEqualize
                0xffffffffa1e8b531                spal_VitacFullDecoding
                0xffffffffa1e8b6a1                spal_XcorResetFchFilterParam
                0xffffffffa1e8b6c1                spal_XcorTscxcNb
                0xffffffffa1e8b6f1                spal_XcorTscxcSch
                0xffffffffa1e8b721                spal_XcorBiterror
                0xffffffffa1e8b751                spal_XcorChest
                0xffffffffa1e8b7d1                spal_XcorSrec
                0xffffffffa1e8b821                spal_XcorBmsum
                0xffffffffa1e8b931                spal_XcorErrCalc
                0xffffffffa1e8b961                spal_XcorIcorCalc
                0xffffffffa1e8b991                spal_XcorHvextract
                0xffffffffa1e8b9c1                spal_XcorDcoc
                0xffffffffa1e8bb71                spal_XcorDcocHburst
                0xffffffffa1e8bbe1                spal_XcorFchxc_Delay
                0xffffffffa1e8bd71                spal_XcorChest8taps
                0xffffffffa1e8bdf1                spal_XcorFchxc_AutoCorr
                0xffffffffa1e8be41                spal_XcorFchxc
                0xffffffffa1e8bf91                spal_XcorFchFilter
                0xffffffffa1e8c100                spal_XcorFchFilterAsm
                0xffffffffa1e8c2a0                spal_CapDecodeCrc
                0xffffffffa1e8c360                spal_CapEncodeCrc
                0xffffffffa1e8c420                spal_CapConvoluate
                0xffffffffa1e8c510                spal_CapConvSrc
                0xffffffffa1e8c5d0                spal_CapFireCorrection
                0xffffffffa1e8c6a1                spal_CholkBusy
                0xffffffffa1e8c6c1                spal_CholkCgStep1
                0xffffffffa1e8c741                spal_CholkCg
                0xffffffffa1e8c7d1                spal_CipherCountInit
                0xffffffffa1e8c7f1                spal_CipherStart
                0xffffffffa1e8c841                spal_CipherCipherNb
                0xffffffffa1e8c891                spal_CipherDecipherNb
                0xffffffffa1e8c8c1                spal_CipherA53CountInit
                0xffffffffa1e8c911                spal_CipherA53Start
                0xffffffffa1e8c941                spal_CipherCipherA53Nb
                0xffffffffa1e8c971                spal_CipherDecipherA53Nb
                0xffffffffa1e8c9d1                spal_CordicAngle
                0xffffffffa1e8ca01                spal_XcorBmmlZf
                0xffffffffa1e8ca81                spal_XcorComplexPower16
                0xffffffffa1e8cb01                spal_XcorComplexPower32
                0xffffffffa1e8cb51                spal_XcorDerotate
                0xffffffffa1e8cbd1                spal_XcorDcIqCompensate
                0xffffffffa1e8cc41                spal_XcorSrecPSK8
                0xffffffffa1e8ccd1                spal_XcorComplexConvolution
                0xffffffffa1e8cd91                spal_XcorComplexMatrixMultiply
                0xffffffffa1e8ce31                spal_ExcorIQShift
                0xffffffffa1e8ce81                spal_ExcorEgprsRotate
                0xffffffffa1e8cf01                spal_XcorFastConvolutionInit
                0xffffffffa1e8cf31                spal_XcorFastConvolutionSet
                0xffffffffa1e8cf71                spal_XcorFastMatrixMultiplySet
                0xffffffffa1e8cff1                spal_XcorFastMatrixMultiplyInit
                0xffffffffa1e8d021                spal_XcorFastMatrixMultiplyS
                0xffffffffa1e8d061                spal_XcorFastMatrixMultiply
                0xffffffffa1e8d0f1                spal_XcorFastConvolution
                0xffffffffa1e8d181                spal_ExcorIrRecombine
                0xffffffffa1e8d510                spal_DbgGdbPrintf
                0xffffffffa1e8d521                spal_IfcTxFifoReset
                0xffffffffa1e8d531                spal_IfcTxFifoSetup
                0xffffffffa1e8d551                spal_IfcDisableRf
                0xffffffffa1e8d561                spal_IfcParamRf
                0xffffffffa1e8d581                spc_AHSencoding
                0xffffffffa1e8d991                spc_AFSencoding
                0xffffffffa1e8dc61                spc_UpdateAmrCfg
                0xffffffffa1e8ddc1                spc_RetrieveCodecMode
                0xffffffffa1e8de81                spc_AmrEncode
                0xffffffffa1e8e0b1                spc_AmrFrameFilter
                0xffffffffa1e8e0e1                spc_UpdateCMR
                0xffffffffa1e8e1b1                spc_AHSdecoding
                0xffffffffa1e8e851                spc_AFSdecoding
                0xffffffffa1e8ecd1                spc_AmrRatscch
                0xffffffffa1e8ee11                spc_AmrDecode
                0xffffffffa1e8f421                bb_prog_rx_win
                0xffffffffa1e8f681                spc_IrqHandler
                0xffffffffa1e8fad1                spc_SppToMboxSpeechMode
                0xffffffffa1e8fb31                spc_CheckLoopMode
                0xffffffffa1e8fc91                spc_BfiFilter
                0xffffffffa1e8fe71                spc_SetFacch
                0xffffffffa1e8ff91                spc_VocBfiFilter
                0xffffffffa1e90111                spc_UpdateSpeechDec
                0xffffffffa1e90281                spc_TCHRxProcess
                0xffffffffa1e90b21                spc_CCHRxProcess
                0xffffffffa1e91321                spc_NBurstProcess
                0xffffffffa1e91381                spc_SchProcess
                0xffffffffa1e91461                spc_MonitoringProcess
                0xffffffffa1e914c1                spc_FcchProcess
                0xffffffffa1e91621                spc_RxProcess
                0xffffffffa1e918b1                spc_GnrlReset
                0xffffffffa1e91c01                spc_SchedulerMain
                0xffffffffa1e91de1                spc_MboxToSppSpeechMode
                0xffffffffa1e91ed1                spc_UpdateSpeechEnc
                0xffffffffa1e920b1                spc_ResetCodec
                0xffffffffa1e921a1                spc_DataFacch
                0xffffffffa1e922b1                spc_DataEncode
                0xffffffffa1e92421                spc_TCHTxProcess
                0xffffffffa1e92891                spc_CCHTxProcess
                0xffffffffa1e92ab1                spc_RACHTxProcess
                0xffffffffa1e92bb1                spc_TxProcess
                0xffffffffa1e92c71                spc_UpdateOnFint

.sys_sram_overlay_0
                0xffffffff81c09690       0x10 load address 0xffffffff8801b780
 hex/app/SW_V2112_csdk.elf(.sys_sram_overlay_0)
 .sys_sram_overlay_0
                0xffffffff81c09690       0x10 hex/app/SW_V2112_csdk.elf

.fixptr         0xffffffff81c0027c        0x4
 hex/app/SW_V2112_csdk.elf(.fixptr)
 .fixptr        0xffffffff81c0027c        0x4 hex/app/SW_V2112_csdk.elf
                0xffffffff81c0027c                g_halFixedPointer

.boot_rom_version_number
                0xffffffff81e05ff8        0x4
 hex/app/SW_V2112_csdk.elf(.boot_rom_version_number)
 .boot_rom_version_number
                0xffffffff81e05ff8        0x4 hex/app/SW_V2112_csdk.elf
                0xffffffff81e05ff8                g_bootRomVersionNumber
                0xffffffff81e05ff8                _int_rom_version_number

.bcpu_rom.crc   0xffffffff81e97ffc        0x4
 hex/app/SW_V2112_csdk.elf(.bcpu_rom.crc)
 .bcpu_rom.crc  0xffffffff81e97ffc        0x4 hex/app/SW_V2112_csdk.elf
                0xffffffff81e97ffc                __bcpu_rom_crc
                0x00000000000001b9                _bb_sram_not_romed_globals_start
                0x00000000000001b9                _bb_sram_not_romed_globals_end

.rotext         0xffffffff880714e0   0x14e6e0
 hex/app/SW_V2112_csdk.elf(.rotext)
 .rotext        0xffffffff880714e0   0x14e6e0 hex/app/SW_V2112_csdk.elf
                0xffffffff880714e1                hal_DbgPxtsSetEnabled
                0xffffffff88071565                hal_DbgPxtsProfileJobExit
                0xffffffff88071595                hal_DbgPxtsProfileJobEnter
                0xffffffff880715bd                hal_DbgPxtsProfilePulse
                0xffffffff880715d1                hal_DbgPxtsProfileTask
                0xffffffff880715f9                hal_DbgPxtsProfileWindowExit
                0xffffffff8807161d                hal_DbgPxtsProfileWindowEnter
                0xffffffff88071631                hal_DbgPxtsProfileFunctionExit
                0xffffffff88071655                hal_DbgPxtsProfileFunctionEnter
                0xffffffff88071669                hal_DbgPxtsSendTrigger
                0xffffffff880716c8                pmd_Deactive
                0xffffffff88071711                pmd_SetPadVoltage
                0xffffffff88071765                pmd_SetPadVoltageModeLP
                0xffffffff880717a9                pmd_SetPadVoltageMode
                0xffffffff880717ed                pmd_RegIrqSettingSet
                0xffffffff88071835                pmd_Close
                0xffffffff880718cd                hal_DbgTrace
                0xffffffff880718f4                hal_LpsDeepSleepWrapper
                0xffffffff88071950                hal_LpsLightSleepWrapper
                0xffffffff880719b0                hal_GdbInvalidCache
                0xffffffff880719c8                hal_GdbInvalidICache
                0xffffffff880719e8                hal_GdbInvalidCacheData
                0xffffffff88071a10                hal_GdbDisableDebugIrq
                0xffffffff88071a31                __ucmpdi2
                0xffffffff88071a59                __ffssi2
                0xffffffff88071a99                calib_SxsInit
                0xffffffff88071b51                calib_StubMain
                0xffffffff88071b89                calib_SxsTaskIdle
                0xffffffff88071bb9                calib_SxsTimerDelivery
                0xffffffff88071bd1                hal_MapEngineOpen
                0xffffffff88071bfd                hal_MapEngineRegisterModule
                0xffffffff88071c19                hal_MapEnginePrintModuleVersion
                0xffffffff88071c35                hal_MapEnginePrintAllModulesVersion
                0xffffffff88071c51                hal_DbgPageProtectSetup
                0xffffffff88071c85                hal_DbgPageProtectEnable
                0xffffffff88071cb1                hal_AudEnableRecvMode
                0xffffffff88071cbd                hal_AudVMicValid
                0xffffffff88071cc9                hal_AudOutputMuted
                0xffffffff88071cd5                hal_AudDeepPowerDown
                0xffffffff88071d05                hal_GetAudForceReceiverMicSelectionFlag
                0xffffffff88071d11                hal_AudSetMicCfg
                0xffffffff88071d1d                hal_AudSetSpkCfg
                0xffffffff88071d29                hal_AudSetRcvGain
                0xffffffff88071d39                hal_AudSetHeadGain
                0xffffffff88071d6d                hal_AudForcePowerDown
                0xffffffff88071d8d                hal_AudGetPowerStatus
                0xffffffff88071dbd                hal_AudGetSelCfg
                0xffffffff88071dcd                hal_AudRcvGainDb2Val
                0xffffffff88071ded                hal_AudHeadGainDb2Val
                0xffffffff88071e0d                hal_AudSpkGainDb2Val
                0xffffffff88071e3d                hal_AudMicGainDb2Val
                0xffffffff88071e5d                clkInitAUDIO
                0xffffffff88071e89                hal_AudGetDacVolumn
                0xffffffff88071ea5                hal_AudEnRcv
                0xffffffff88071f55                hal_AudSetSelCfg
                0xffffffff88072059                hal_AudForceReceiverMicSelection
                0xffffffff88072079                hal_AudPowerDown
                0xffffffff880720d5                hal_AudPowerOn
                0xffffffff88072105                hal_AudClose
                0xffffffff880721b9                hal_AudOpen
                0xffffffff88072329                hal_AudMuteOutput
                0xffffffff8807234d                hal_AudEarpieceDetectInit
                0xffffffff880723d9                hal_SpeechPopRxPushTx
                0xffffffff880724b1                hal_SpeechFifoReset
                0xffffffff88072531                hal_SpeechMuteVoiceFrame
                0xffffffff88072d99                hal_UsbReset
                0xffffffff88072e1d                hal_UsbEpRxTransferedSize
                0xffffffff88072e55                hal_UsbEpEnableInterrupt
                0xffffffff88072fa5                hal_UsbSend
                0xffffffff88073079                hal_UsbRecv
                0xffffffff88073145                hal_UsbEpStall
                0xffffffff88073359                hal_UsbClose
                0xffffffff880733ed                hal_UsbEpTransfertDone
                0xffffffff880734ed                hal_UsbOpen
                0xffffffff88073be1                hal_UsbIrqHandler
                0xffffffff88073f95                hal_HostUsbSend
                0xffffffff880740fd                hal_HostUsbClose
                0xffffffff88074175                hal_HostUsbOpen
                0xffffffff880741b1                hal_HostUsbCallback
                0xffffffff880741e5                hal_HostUsbEvent
                0xffffffff8807473d                hal_HostUsbRecv
                0xffffffff880747d1                hal_VocGetPointer
                0xffffffff880747dd                hal_VocIrqHandler
                0xffffffff88074845                clkInitVOC
                0xffffffff88074871                hal_VocGetDmaiPointer
                0xffffffff880748cd                hal_VocWakeup
                0xffffffff88074935                hal_VocClose
                0xffffffff88074a39                hal_VocOpen
                0xffffffff88074bb9                hal_VocInit
                0xffffffff88074c15                pmd_SetHighActivity
                0xffffffff88074c25                pmd_GetHighActivity
                0xffffffff88074c35                pmd_GetChargerVoltageValidity
                0xffffffff88074c45                pmd_GetChargerStatus
                0xffffffff88074c51                pmd_GetChargingStage
                0xffffffff88074c5d                pmd_UpdateChargeCurrentInternal
                0xffffffff88074cad                pmd_ReduceChargingCurrentDynamic
                0xffffffff88074ce5                pmd_SetChargeCurrent
                0xffffffff88074cfd                pmd_InitMaxChargeCurrent
                0xffffffff88074d39                pmd_ChargerEnterPulseStage
                0xffffffff88074d59                pmd_GetVfbWindowOffset
                0xffffffff88074d89                pmd_StopCharging
                0xffffffff88074dc5                pmd_CutOffCharger
                0xffffffff88074de1                pmd_BatteryLevelToPercent
                0xffffffff88074ea1                pmd_GetPowerDownVoltPercent
                0xffffffff88074ebd                pmd_GetPowerOnVoltPercent
                0xffffffff88074ed9                pmd_ChargerPlugout
                0xffffffff88074f6d                pmd_CalculateMeanBatteryLevel
                0xffffffff88074f99                pmd_CalculateMeanChargerLevel
                0xffffffff88074fc5                pmd_ChargerMonChargerVolt
                0xffffffff880750d1                pmd_GetGpadcBatteryLevel
                0xffffffff88075105                pmd_ChargerChargingState
                0xffffffff880754c1                pmd_ChargerPlugin
                0xffffffff880755d5                pmd_DcOnHandler
                0xffffffff88075609                pmd_SetChargerStatusHandler
                0xffffffff88075645                pmd_GetAverageGpadcBatteryLevel
                0xffffffff88075689                pmd_InitCharger
                0xffffffff88075975                pmd_GetRealTimeBatteryLevel
                0xffffffff88075aa1                pmd_GetBatteryLevel
                0xffffffff88075ad5                pmd_CalculateMeanTemperature
                0xffffffff88075b01                pmd_ChargerMonBattTemperature
                0xffffffff88075bf9                pmd_ChargerManager
                0xffffffff88075d29                pmd_RegisterYourself
                0xffffffff88075d45                PM_ProLPMDisable
                0xffffffff88075d49                sxs_StartAll
                0xffffffff88075e31                main
                0xffffffff88075ec5                sxs_TimerDelivery
                0xffffffff88075ee5                sxs_Task
                0xffffffff88075f45                sxs_FreeUsrInitTasks
                0xffffffff88075f85                sxs_TaskIdle
                0xffffffff88075fd5                sxs_UsrInitTask
                0xffffffff88075ff1                sap_InitUsr
                0xffffffff8807601d                sim_ProcessEvt
                0xffffffff88076039                sim_Parse
                0xffffffff880760c9                sim_ParseEvt
                0xffffffff8807621d                sim_ParseMsg
                0xffffffff880763ad                sim_MultiSim_Init
                0xffffffff880764e1                sim_Init
                0xffffffff88076505                sim_GiveEvtdx
                0xffffffff8807651d                sim_PollOffReq
                0xffffffff8807655d                sim_PollReq
                0xffffffff880765a5                sim_RetryReq
                0xffffffff880765f5                sim_PowerOffReq
                0xffffffff88076641                sim_SetUsimPbkReq
                0xffffffff8807668d                sim_CheckResetState
                0xffffffff880767a1                sim_ManageChannelReq
                0xffffffff88076819                sim_SendCmdReq
                0xffffffff88076929                sim_SelectApplicationReq
                0xffffffff880769cd                sim_StatusTimer
                0xffffffff88076a2d                sim_DedicFileStatusReq
                0xffffffff88076ac1                sim_EnableCHVReq
                0xffffffff88076b2d                sim_DisableCHVReq
                0xffffffff88076b99                sim_ChangeCHVReq
                0xffffffff88076c21                sim_VerifyCHVReq
                0xffffffff88076cc5                sim_StopReq
                0xffffffff88076d5d                sim_ElemFileStatusReq
                0xffffffff88076de9                sim_TerminalResponseReq
                0xffffffff88076e71                sim_EnvelopeReq
                0xffffffff88076ef9                sim_TerminalProfileReq
                0xffffffff88076f81                sim_IncreaseReq
                0xffffffff88077011                sim_SeekAllReq
                0xffffffff880770c9                sim_SeekReq
                0xffffffff88077171                sim_RehabilitateReq
                0xffffffff88077239                sim_InvalidateReq
                0xffffffff88077301                sim_UnblockCHVReq
                0xffffffff880773c9                sim_UpdateRecordReq
                0xffffffff88077469                sim_ReadRecordReq
                0xffffffff88077501                sim_UpdateBinaryReq
                0xffffffff880775a5                sim_ReadBinaryReq
                0xffffffff88077641                sim_RunUmtsAlgoReq
                0xffffffff880776e1                sim_RunGsmAlgoReq
                0xffffffff8807779d                sim_ResetReq
                0xffffffff88077851                sim_getDefaultContent
                0xffffffff88077891                sim_TestSW1SW2
                0xffffffff88077f25                sim_CheckVoltageFault
                0xffffffff88077f8d                sim_ReleaseResource
                0xffffffff88077fd5                sim_InitVar
                0xffffffff880780b9                sim_SendOneByteOfData
                0xffffffff88078155                sim_SendInstruction
                0xffffffff88078279                sim_StartEnhancedPPSProcedure
                0xffffffff880782f9                sim_StartPPSProcedure
                0xffffffff88078345                sim_SendDataOfInstructionWithInput
                0xffffffff880783e5                sim_BuildAnswerMessage
                0xffffffff88078629                sim_AnalyzeATR
                0xffffffff88078acd                sim_SetNextVoltage
                0xffffffff88078c15                sim_Reset
                0xffffffff88079089                sim_ProcessInstruction
                0xffffffff8807a2f5                sim_TimerWaitSw2
                0xffffffff8807a371                sim_AnalyzeReceivedBytes
                0xffffffff8807a701                sim_Interrupt
                0xffffffff8807a889                sim_SW1TimeOut
                0xffffffff8807a8d5                sm_ProcessEvt
                0xffffffff8807a931                sm_Parse
                0xffffffff8807a9a5                sm_ParseSignal
                0xffffffff8807aa9d                sm_ParseMsg
                0xffffffff8807ab15                sm_Init
                0xffffffff8807ab6d                sm_GiveDsc
                0xffffffff8807ab95                sm_SaveMsg
                0xffffffff8807abd1                sm_RouteAbortInd
                0xffffffff8807ac21                sm_RouteRauAccPdpStatuInd
                0xffffffff8807ac71                sm_RouteModifyRsp
                0xffffffff8807acc1                sm_RouteDeactivateRsp
                0xffffffff8807ad11                sm_RouteActivateRsp
                0xffffffff8807ad61                sm_RoutePdpCtxActivateReq
                0xffffffff8807ae09                sm_RouteStatusReq
                0xffffffff8807ae59                sm_RoutePdpCtxModifyReq
                0xffffffff8807aed5                sm_RoutePdpCtxModifyRej
                0xffffffff8807af2d                sm_RoutePdpCtxModifyAcc
                0xffffffff8807af85                sm_RoutePdpCtxDeactivateReq
                0xffffffff8807aff9                sm_RoutePdpCtxActivateRej
                0xffffffff8807b02d                sm_RouteDataInd
                0xffffffff8807b291                sm_DoNothing
                0xffffffff8807b295                sm_StopTimer
                0xffffffff8807b2c5                sm_StartTimer
                0xffffffff8807b305                sm_WaitApiCtxModifyAcc_MmpCtxDeactivateReqEvt
                0xffffffff8807b391                sm_WaitApiCtxModifyAcc_ApiCtxDeactivateReqEvt
                0xffffffff8807b3e1                sm_PdpActive_ApiCtxActivateReq
                0xffffffff8807b459                sm_PdpActive_MmpCtxDeactivateReq
                0xffffffff8807b4e5                sm_PdpActive_ApiCtxDeactivateReq
                0xffffffff8807b535                sm_PdpInactive_ApiCtxDeactivateReq
                0xffffffff8807b579                sm_Allstate_MmpRauAccPdpStateInd
                0xffffffff8807b625                sm_WaitApiCtxModifyAcc_ApiCtxModifyRej
                0xffffffff8807b685                sm_WaitApiCtxModifyAcc_ApiCtxModifyAcc
                0xffffffff8807b719                sm_WaitSmModifyRsp_SmModifyRsp
                0xffffffff8807b7a9                sm_WaitSmActivateRsp_SmActivateRsp
                0xffffffff8807b895                sm_NotifyMMPReleaseSavedL3Msg
                0xffffffff8807b8fd                sm_WaitMmpCtxDeactivateAcc_MmpCtxDeactivateReq
                0xffffffff8807b9d9                sm_WaitMmpCtxDeactivateAcc_MmpCtxDeactivateAcc
                0xffffffff8807bb71                sm_WaitMmpCtxModifyAcc_MmpCtxDeactivateReq
                0xffffffff8807bc49                sm_WaitMmpCtxModifyAcc_ApiCtxDeactivateReq
                0xffffffff8807bce5                sm_WaitMmpCtxActivateAcc_MmpCtxDeactivateReq
                0xffffffff8807bdd5                sm_WaitMmpCtxActivateAcc_ApiCtxDeactivateReq
                0xffffffff8807bef9                sm_Allstate_SmStatusReq
                0xffffffff8807c091                sm_Allstate_MmpAbortInd
                0xffffffff8807c1d1                sm_WaitMmpCtxDeactivateAcc_T3390
                0xffffffff8807c285                sm_WaitMmpCtxModifyAcc_T3381
                0xffffffff8807c37d                sm_WaitMmpCtxModifyAcc_MmpCtxModifyReq
                0xffffffff8807c465                sm_WaitMmpCtxModifyAcc_MmpCtxModifyRej
                0xffffffff8807c541                sm_PdpActive_MmpCtxModifyReq
                0xffffffff8807c5f9                sm_WaitMmpCtxModifyAcc_MmpCtxModifyAcc
                0xffffffff8807c7c1                sm_PdpActive_ApiCtxModifyReq
                0xffffffff8807c871                sm_WaitMmpCtxActivateAcc_MmpCtxActivateRej
                0xffffffff8807c97d                sm_WaitMmpCtxActivateAcc_T3380
                0xffffffff8807cab1                sm_WaitMmpCtxActivateAcc_MmpCtxActivateAcc
                0xffffffff8807cd19                sm_PdpInactive_ApiCtxActivateReq
                0xffffffff8807ce35                sm_WaitSmDeactivateRsp_SmDeactivateRsp
                0xffffffff8807cfb1                sm_Allstate_SmStatusInd
                0xffffffff8807d001                sm_SelectSapi
                0xffffffff8807d01d                sm_ConvertR97R98QoSIntoR99QoS
                0xffffffff8807d111                sm_GetNSapiIdxFromSmIndex
                0xffffffff8807d16d                sm_GetNSapiIdx
                0xffffffff8807d1c5                sm_StoreNetworkOriginatedTI
                0xffffffff8807d211                sm_FreeAllTi
                0xffffffff8807d24d                sm_QoSCheck
                0xffffffff8807d451                sm_RetransMsg
                0xffffffff8807d4d9                sm_FreeTi
                0xffffffff8807d5a9                sm_AllocTi
                0xffffffff8807d631                sm_GetPdpCtx
                0xffffffff8807d661                sms_Init
                0xffffffff8807d6d9                sms_ProcessEvt
                0xffffffff8807d7c9                sms_Parse
                0xffffffff8807d841                sms_ParseSignal
                0xffffffff8807d889                sms_ParseMsg
                0xffffffff8807d901                sms_GiveEvtdx
                0xffffffff8807d919                sms_RouteAbortInd
                0xffffffff8807d971                sms_RouteReleaseInd
                0xffffffff8807d9ed                smr_DataInd
                0xffffffff8807db4d                sms_DataInd
                0xffffffff8807dcc1                sms_RouteMmpDataInd
                0xffffffff8807dce1                sms_RouteMmDataInd
                0xffffffff8807dd01                snd_ProcessEvt
                0xffffffff8807dd3d                snd_Parse
                0xffffffff8807ddc9                snd_ParseSignal
                0xffffffff8807de65                snd_ParseMsg
                0xffffffff8807dedd                snd_Init
                0xffffffff8807dfc5                snd_GiveEvtdx
                0xffffffff8807dfdd                snd_SendPduToAPI
                0xffffffff8807e031                snd_SendMsg
                0xffffffff8807e095                snd_PrepMsg
                0xffffffff8807e0d9                snd_RouteResetInd
                0xffffffff8807e145                snd_RouteXidCnf
                0xffffffff8807e281                snd_RouteSequenceInd
                0xffffffff8807e33d                snd_RouteReleaseInd
                0xffffffff8807e3d1                snd_RouteReleaseCnf
                0xffffffff8807e465                snd_RouteDataCnf
                0xffffffff8807e4c5                snd_RouteEstabInd
                0xffffffff8807e63d                snd_RouteEstabCnf
                0xffffffff8807e77d                snd_RouteUnitDataInd
                0xffffffff8807e801                snd_RouteDataInd
                0xffffffff8807e885                snd_RouteXidInd
                0xffffffff8807e9f1                snd_RouteModifyInd
                0xffffffff8807ea61                snd_RouteDeactivateInd
                0xffffffff8807eb19                snd_RouteActivateInd
                0xffffffff8807eba5                snd_RouteQueueDataReq
                0xffffffff8807eca9                snd_DoNothing
                0xffffffff8807ecad                snd_AllState_QueueCreateInd
                0xffffffff8807ecd1                snd_Idle_EstabInd
                0xffffffff8807ecfd                snd_WaitReleaseCnf_ModifyInd
                0xffffffff8807ed01                snd_RoutingAreaUpdInter_DataReq
                0xffffffff8807ed5d                snd_RoutingAreaUpdInter_EstabInd
                0xffffffff8807edf1                snd_RoutingAreaUpdInter_SequenceInd
                0xffffffff8807eeb9                snd_WaitReleaseInd_ReleaseCnf
                0xffffffff8807ef09                snd_WaitReleaseInd_ReleaseInd
                0xffffffff8807ef59                snd_WaitEstabInd_DeactivateInd
                0xffffffff8807ef99                snd_WaitReleaseCnf_ReleaseInd
                0xffffffff8807eff5                snd_WaitEstabCnf_DeactivateInd
                0xffffffff8807f0cd                snd_WaitEstabCnf_ReleaseInd
                0xffffffff8807f115                snd_Idle_DeactivateInd
                0xffffffff8807f171                snd_WaitReleaseInd_ResetInd
                0xffffffff8807f19d                snd_WaitEstabInd_ResetInd
                0xffffffff8807f1c9                snd_WaitReleaseCnf_ResetInd
                0xffffffff8807f1f5                snd_Connected_ResetInd
                0xffffffff8807f269                snd_WaitEstabCnf_ResetInd
                0xffffffff8807f295                snd_Idle_ResetInd
                0xffffffff8807f2c1                snd_WaitEstabInd_EstabInd
                0xffffffff8807f3c1                snd_Connected_EstabCnf
                0xffffffff8807f411                snd_Connected_EstabInd
                0xffffffff8807f461                snd_WaitReleaseCnf_ReleaseCnf
                0xffffffff8807f5d5                snd_Connected_DeactivateInd
                0xffffffff8807f6b9                snd_RoutingAreaUpdInter_DeactivateInd
                0xffffffff8807f6d9                snd_Connected_ModifyInd
                0xffffffff8807ff3d                snd_Connected_ReleaseInd
                0xffffffff8807ffb5                snd_Connected_DataInd
                0xffffffff880802b5                snd_Connected_DataCnf
                0xffffffff88080319                snd_Connected_DataReq
                0xffffffff88080389                snd_WaitEstabCnf_EstabInd
                0xffffffff880803ed                snd_WaitEstabCnf_EstabCnf
                0xffffffff880804c9                snd_Idle_EstabCnf
                0xffffffff88080501                snd_Idle_ModifyInd
                0xffffffff880807dd                snd_WaitEstabCnf_ModifyInd
                0xffffffff880807ed                snd_Idle_ActivateInd
                0xffffffff88080a25                snd_AllState_UnitDataInd
                0xffffffff88080ca5                snd_AllState_UnitDataReq
                0xffffffff88080d15                snd_BuildUnitDataReqSpecific
                0xffffffff88080d85                snd_TestSndDataCnf
                0xffffffff88080d99                snd_ResetXidParameter
                0xffffffff88080d9d                snd_DecodeXidCnf
                0xffffffff88080e51                snd_Purge
                0xffffffff88080e69                snd_ReleaseAllAckSeg
                0xffffffff88080ec9                snd_ReleaseAllUnackSeg
                0xffffffff88080f21                snd_SendUnitDataReq
                0xffffffff880812ed                snd_ResumeUnackTransmission
                0xffffffff88081361                snd_Reassemble
                0xffffffff88081545                snd_ReestabReq
                0xffffffff88081639                snd_SendDataReq
                0xffffffff88081925                snd_RetransmitBufNPDU
                0xffffffff880819d1                snd_RAUInterRetransmission
                0xffffffff88081ab9                snd_ReleaseNSapiCtx
                0xffffffff88081b81                snd_GetNSapiCtx
                0xffffffff88081cdd                snd_CheckAndsndReassemble
                0xffffffff88081eb9                ss_EvtParse
                0xffffffff88081f45                ss_MsgParse
                0xffffffff88081fad                ss_Init
                0xffffffff88082005                ss_ParseMessage
                0xffffffff880825bd                ss_RunFSM
                0xffffffff8808260d                ss_mmReleaseInd_Gene
                0xffffffff88082669                ss_TICmp
                0xffffffff88082675                ss_SendMsg
                0xffffffff88082709                ss_SendNetworkNoFacilityIEMsg
                0xffffffff8808277d                ss_SendNetworkRejectMsg
                0xffffffff880828b5                ss_SendNetworkReturnErrorMsg
                0xffffffff880829e1                ss_SendNetworkReturnResultMsg
                0xffffffff88082ca9                ss_PrepMsg
                0xffffffff88082d15                ss_getCtxtPtr
                0xffffffff88082d61                ss_AllocTI
                0xffffffff88082fc5                ss_StartTimer
                0xffffffff88083005                ss_StopAllTimers
                0xffffffff88083041                ss_StartMSInitiatedTransaction
                0xffffffff88083825                ss_apiActionReq_U0
                0xffffffff88083895                ss_Init_U0
                0xffffffff8808390d                ss_ussdMSReleaseComplete_U01
                0xffffffff88083941                ss_mmReleaseInd_U01
                0xffffffff88083999                ss_Timer0Exp_U01
                0xffffffff88083a2d                ss_mmEstabErr_U01
                0xffffffff88083a91                ss_mmEstabCnf_U01
                0xffffffff88083b09                ss_mmServReq_U01
                0xffffffff88083b39                ss_ussdMSReleaseComplete_U1
                0xffffffff88083b6d                ss_mmReleaseInd_U1
                0xffffffff88083c39                ss_Timer0Exp_U1
                0xffffffff88083d3d                ss_componentReceived_U1
                0xffffffff88084091                sxs_FsIdleHook
                0xffffffff880840a9                sxs_RegisterDebugIdleHookElem
                0xffffffff880840f5                sxs_RegisterDebugIdleHookFunc
                0xffffffff88084105                sxs_DebugIdleHook
                0xffffffff88084141                sxs_RmtIdleHook
                0xffffffff88084145                sxs_SaveRmtBuffer
                0xffffffff88084179                sxs_GetRmtBuffer
                0xffffffff880841b1                _sxs_SetFnStamp
                0xffffffff880841c1                sxs_RmtInit
                0xffffffff880841f5                tgt_GetHalConfig
                0xffffffff88084201                tgt_GetAudConfig
                0xffffffff8808420d                tgt_GetPmdConfig
                0xffffffff88084219                tgt_GetPmdBattCapCurve
                0xffffffff88084221                tgt_GetMcdConfig
                0xffffffff8808422d                tgt_GetUctlsConfig
                0xffffffff88084239                tgt_GetKeyCode
                0xffffffff88084259                tgt_GetXcvConfig
                0xffffffff88084265                tgt_GetPaConfig
                0xffffffff88084271                tgt_GetSwConfig
                0xffffffff8808427d                tgt_GetDsmCfg
                0xffffffff88084289                mmi_RegisterYourself
                0xffffffff8808428d                GetIsEarphonePlugIn
                0xffffffff88084291                tgt_RegisterMonitorModules
                0xffffffff880842ad                tgt_RegisterAllModules
                0xffffffff88084311                tgt_GetImeiSv
                0xffffffff88084351                tgt_SyncSetStationPassed
                0xffffffff88084385                tgt_SyncSetStationPerformed
                0xffffffff880843b9                tgt_SyncGetStationPassed
                0xffffffff880843ed                tgt_SyncSetStationPassedByID
                0xffffffff88084441                tgt_SyncGetStationPerformed
                0xffffffff88084475                tgt_SyncSetStationPerformedByID
                0xffffffff880844c9                tgt_SyncGetStationName
                0xffffffff8808450d                tgt_SyncGetStationIDByName
                0xffffffff8808455d                tgt_SyncSetStationPerformedAndPassedByName
                0xffffffff880848a5                uat_transportTask
                0xffffffff88084ac9                uctls_ChangeDeviceDescriptor
                0xffffffff88084ad9                uctls_ChangeDeviceDescriptorSerialNmber
                0xffffffff88084add                uctls_NewDeviceDescriptor
                0xffffffff88084b41                uctls_NewConfigDescriptor
                0xffffffff88084b79                uctls_NewInterfaceDescriptor
                0xffffffff88084bbd                uctls_NewInterruptEpDescriptor
                0xffffffff88084c01                uctls_NewBulkEpDescriptor
                0xffffffff88084c3d                uctls_CleanInterfaceListDescriptor
                0xffffffff88084c99                init_uFlash_Func
                0xffffffff88084d6d                init_uFlash_Param
                0xffffffff88085029                scsiSend
                0xffffffff88085269                boSendCsw
                0xffffffff88085345                scsiRecv
                0xffffffff8808546d                umss_TransportBoScsiTask
                0xffffffff88085be9                Usim_DecodeDataLength
                0xffffffff88085bf1                Usim_DecUiccCharacteristics
                0xffffffff88085c85                Usim_DecAppPowerConsumption
                0xffffffff88085cbd                Usim_DecMinClockFrequency
                0xffffffff88085cd5                Usim_DecMemAvailable
                0xffffffff88085ce5                Usim_DecProprietaryInfo
                0xffffffff88085d89                Usim_DecDirSecurityAttributes
                0xffffffff88085d99                Usim_DecUsageQualifier
                0xffffffff88085dc1                Usim_SetPinStatus
                0xffffffff88085e7d                Usim_DecKeyReference
                0xffffffff88085ebd                Usim_DecPinStatusTemplateDO
                0xffffffff88085fb9                Usim_DecTotalDirFileSize
                0xffffffff88085fc9                Usim_DecLifeCycleStatus
                0xffffffff88086035                Usim_DecodePbrRecord
                0xffffffff880868e1                Usim_DecDirId
                0xffffffff88086941                Usim_DecDirFileDescriptor
                0xffffffff88086971                Usim_DecDfName
                0xffffffff880869c9                Usim_DecodeDFFcp
                0xffffffff88086b2d                vfs_async_task_handle
                0xffffffff88086b39                vfs_async_init
                0xffffffff88086b99                vois_RegisterYourself
                0xffffffff88086bb5                vpp_RegisterYourself
                0xffffffff88086bd1                api_SetGsmstackStarted
                0xffffffff88086bdd                api_CheckTestSim
                0xffffffff88086bed                api_DoNothing
                0xffffffff88086c1d                api_ParseMsg
                0xffffffff88086dbd                api_Parse
                0xffffffff88086e45                api_ParseSignal
                0xffffffff88086e9d                api_Init
                0xffffffff88086f49                api_GiveDsc
                0xffffffff88087dc5                api_PsDetachReq
                0xffffffff88087e2d                api_PsAttachReq
                0xffffffff88087e89                api_TrsSimCloseInd
                0xffffffff88087eb9                api_TrsStopCnf
                0xffffffff88087f49                api_TrsMemoryAlert
                0xffffffff88087fc1                api_TrsMemAlertExp
                0xffffffff88087fe5                api_TrsUlCongInd
                0xffffffff88088069                api_SetDebugMode
                0xffffffff880880e1                api_TrsDbgInfoCmd
                0xffffffff880880fd                api_DebugNotification
                0xffffffff8808813d                smspp_TrsReceiveInd
                0xffffffff880881ed                smspp_TrsErrorInd
                0xffffffff88088295                smspp_TrsAckInd
                0xffffffff88088319                api_TrsStopReq
                0xffffffff88088369                api_TrsSmsPPErrorReq
                0xffffffff88088429                api_TrsSmsPPAckReq
                0xffffffff880884c9                api_TrsSmsPPSendReq
                0xffffffff88088585                api_TrsSimOpenInd
                0xffffffff88088605                api_TrsSimCloseCnf
                0xffffffff880886f1                api_TrsImeiReq
                0xffffffff88088761                api_TrsStartReq
                0xffffffff8808883d                WatchDog_Close
                0xffffffff8808884d                WatchDog_KeepAlive
                0xffffffff8808885d                WatchDogSetPeriod
                0xffffffff8808886d                WatchDog_Open
                0xffffffff88088885                api_SendMsg
                0xffffffff880888c5                api_PrepSmsMsg
                0xffffffff88088909                api_PrepMsg
                0xffffffff88088951                api_UlFlowCtrl
                0xffffffff88088a15                api_CheckCurrentSimTestSim
                0xffffffff88088a2d                ars_RegisterYourself
                0xffffffff88088a49                __assert
                0xffffffff88088a71                aud_CodecGalliteCalibUpdateValues
                0xffffffff88088a81                aud_CodecGalliteTonePause
                0xffffffff88088a95                aud_CodecGalliteTone
                0xffffffff88088aa9                aud_CodecGalliteStreamRecord
                0xffffffff88088aed                aud_CodecGalliteStreamPause
                0xffffffff88088b01                aud_CodecGalliteStreamStop
                0xffffffff88088b11                aud_CodecGalliteStreamStart
                0xffffffff88088b55                aud_CodecGalliteSetup
                0xffffffff88088b65                aud_SetCurOutputDevice
                0xffffffff88088b79                aud_GetCurOutputDevice
                0xffffffff88088b85                aud_LoudspeakerWithEarpiece
                0xffffffff88088b91                aud_TestModeRegisterMallocFreeFunc
                0xffffffff88088bb1                aud_GetMicMuteFlag
                0xffffffff88088bbd                aud_EnFMRecNewPath
                0xffffffff88088bd1                aud_GetBtNRECFlag
                0xffffffff88088be1                aud_GetOutAlgGainDb2Val
                0xffffffff88088bf1                aud_InitEarpieceSetting
                0xffffffff88088c01                aud_GetForceReceiverMicSelectionFlag
                0xffffffff88088c11                aud_ToneSetup
                0xffffffff88088c3d                aud_MutexRelease
                0xffffffff88088c59                aud_MutexTake
                0xffffffff88088c99                aud_MuteOutputDevice
                0xffffffff88088cc1                aud_EnableEarpieceSetting
                0xffffffff88088d05                aud_ForceReceiverMicSelection
                0xffffffff88088d2d                aud_TonePause
                0xffffffff88088d99                aud_ToneStop
                0xffffffff88088e15                aud_ToneStart
                0xffffffff88088edd                aud_StreamRecord
                0xffffffff88088fb1                aud_StreamPause
                0xffffffff8808905d                aud_StreamStop
                0xffffffff88089139                aud_StreamStart
                0xffffffff88089239                aud_Setup
                0xffffffff8808934d                aud_FmEnRecNewPath
                0xffffffff88089361                aud_FmCalibUpdateValues
                0xffffffff88089371                aud_FmTonePause
                0xffffffff88089385                aud_FmTone
                0xffffffff88089399                aud_FmStreamRecord
                0xffffffff880893f5                aud_FmStreamPause
                0xffffffff88089409                aud_FmStreamStop
                0xffffffff88089419                aud_FmStreamStart
                0xffffffff88089461                aud_FmSetup
                0xffffffff88089471                aud_RegisterYourself
                0xffffffff8808948d                BAL_TH
                0xffffffff880894ad                BAL_DecompressCode
                0xffffffff880894c9                BAL_TaskInit
                0xffffffff88089919                BAL_DevHandlerInit
                0xffffffff8808993d                BAL_BackgroundTask
                0xffffffff88089991                CFW_bal_GetTaskHandle
                0xffffffff880899a5                DM_SendArlarmMessage
                0xffffffff880899dd                DM_SendPowerOnMessage
                0xffffffff88089a15                DM_SendPMMessage
                0xffffffff88089a61                BAL_DevMonitorTask
                0xffffffff88089cd9                BAL_SysTask
                0xffffffff88089e41                DM_SendKeyMessage
                0xffffffff88089ec1                bcpu_RegisterYourself
                0xffffffff88089f01                calib_GetPointers
                0xffffffff88089f0d                calib_DaemonTracePrint
                0xffffffff88089f11                calib_CheckCalibVersion
                0xffffffff88089f15                calib_DaemonSetContext
                0xffffffff88089f21                calib_DaemonSetNsftContext
                0xffffffff88089f2d                calib_SetStationFlag
                0xffffffff88089f99                calib_GetStationPassFlag
                0xffffffff8808a23d                calib_CheckRfCrc
                0xffffffff8808a2c1                calib_DaemonInit
                0xffffffff8808a54d                calib_DaemonProcess
                0xffffffff8808aa15                calib_DaemonUsrDataProcess
                0xffffffff8808aa7d                calib_RegisterYourself
                0xffffffff8808aa99                calib_SapInitUsr
                0xffffffff8808ab35                calib_StubTaskInit
                0xffffffff8808abfd                cb_ParseSignal
                0xffffffff8808ac01                cb_ParseMsg
                0xffffffff8808ad21                cb_Init
                0xffffffff8808ad69                cb_TrsDoNothing
                0xffffffff8808ad6d                cbRxBlk_DataInd
                0xffffffff8808aef1                cb_InitIdle
                0xffffffff8808af2d                cbIdle_DataInd
                0xffffffff8808b0f5                cb_InitNull
                0xffffffff8808b11d                cbNull_ActivateReq
                0xffffffff8808b185                cbNull_CellInd
                0xffffffff8808b1ad                cbGene_CellInd
                0xffffffff8808b2cd                cbGene_DeactivateReq
                0xffffffff8808b311                cbGene_ActivateReq
                0xffffffff8808b3bd                cb_FindSmsCbCtx
                0xffffffff8808b405                cb_7To8bitsData
                0xffffffff8808b45d                cb_SchedMIdOk
                0xffffffff8808b495                cb_IsWantedDCS
                0xffffffff8808b4e5                cb_IsWantedMId
                0xffffffff8808b535                cb_HdleMsgDsc
                0xffffffff8808b601                cb_StopRcvSchedMsg
                0xffffffff8808b669                cb_GetRelSlot
                0xffffffff8808b6d1                cb_UpdtSchedCtx
                0xffffffff8808b76d                cb_FreeSchedCtx
                0xffffffff8808b7a9                cb_CheckSchedValidity
                0xffffffff8808b805                cb_ReleaseCfgLists
                0xffffffff8808b82d                cb_SndSkipReq
                0xffffffff8808b8f1                cb_SndCbchReq
                0xffffffff8808b935                cb_UpdCellPar
                0xffffffff8808b9a1                cb_DelHistory
                0xffffffff8808ba31                cb_AddInHistory
                0xffffffff8808bab9                cb_DelSmsCbCtx
                0xffffffff8808bb8d                cb_ClearSmsCbCtx
                0xffffffff8808bc19                cb_ProcessCbMsg
                0xffffffff8808c1a9                cb_SaveCfgLists
                0xffffffff8808c219                cb_StopRcvSmsCbMsg
                0xffffffff8808c355                cc_Parse
                0xffffffff8808c595                cc_EvtParse
                0xffffffff8808c601                cc_MsgParse
                0xffffffff8808c6e1                cc_Init
                0xffffffff8808c76d                cc_GiveDsc
                0xffffffff8808cbb9                cc_EndProcDtmf_Gene
                0xffffffff8808cc35                cc_AckProcDtmf_Gene
                0xffffffff8808ccb1                cc_apiStopDtmfReq_Gene
                0xffffffff8808cccd                cc_apiStartDtmfReq_Gene
                0xffffffff8808cced                cc_Status_Gene
                0xffffffff8808ce55                cc_TrsnApiRelCmpt
                0xffffffff8808cea5                cc_UserInfo_Gene
                0xffffffff8808cf11                cc_apiUserInfoReq_Gene
                0xffffffff8808d029                cc_Facility_Gene
                0xffffffff8808d0cd                cc_ReleaseCmpl_Gene
                0xffffffff8808d1a9                cc_Release_Gene
                0xffffffff8808d295                cc_Disconnect_Gene
                0xffffffff8808d3e1                cc_Progress_Gene
                0xffffffff8808d459                cc_mmEstabErr_Gene
                0xffffffff8808d495                cc_mmReleaseInd_Gene
                0xffffffff8808d4b5                cc_rrChanMode_Gene
                0xffffffff8808d5dd                cc_StatusEnquiry_Gene
                0xffffffff8808d5f1                cc_apiDiscReq_Gene
                0xffffffff8808d615                cc_SendMsg
                0xffffffff8808d69d                cc_PrepMsg
                0xffffffff8808d6f9                cc_TS10Exp_REEST
                0xffffffff8808d71d                cc_mmReestabErr_REEST
                0xffffffff8808d75d                cc_mmReestabCnf_REEST
                0xffffffff8808d7a1                cc_apiDiscReq_REEST
                0xffffffff8808d7f5                cc_GiveDataIndDsc
                0xffffffff8808dbcd                cc_EncCause
                0xffffffff8808dbe5                cc_DoNothing
                0xffffffff8808dbe9                cc_TICmp
                0xffffffff8808dbf5                cc_AllocTI
                0xffffffff8808dc65                cc_EncSdConnect
                0xffffffff8808dd91                cc_HdleAudioOn
                0xffffffff8808ddd5                cc_HdleProgressInd
                0xffffffff8808de09                cc_SdApiErrorInd
                0xffffffff8808de65                cc_EncSdSimpleMsg
                0xffffffff8808deb1                cc_ReadSimSST
                0xffffffff8808e005                cc_EncSdAlert
                0xffffffff8808e109                cc_StopAllTimers
                0xffffffff8808e265                cc_RelCon
                0xffffffff8808e2d5                cc_EncSdRelCmplt
                0xffffffff8808e3ad                cc_EncSdStatus
                0xffffffff8808e4f9                cc_InconState
                0xffffffff8808e51d                cc_EncSdRelMO
                0xffffffff8808e6c9                cc_CreateCtx
                0xffffffff8808e7a1                cc_CallClearing
                0xffffffff8808ea39                cc_TimerCallClear
                0xffffffff8808ea89                cc_mmReleaseInd_U0
                0xffffffff8808ea9d                cc_rrChanMode_U0
                0xffffffff8808eaed                cc_Setup_U0
                0xffffffff8808ed11                cc_apiSetupReq_U0
                0xffffffff8808edb5                cc_InitU0
                0xffffffff8808ef29                cc_mmPageBegin_U01
                0xffffffff8808efa1                cc_TWaitLuExp_U01
                0xffffffff8808efc1                cc_mmLocUp_U01
                0xffffffff8808f091                cc_TRetryExp_U01
                0xffffffff8808f0dd                cc_T303Exp_U01
                0xffffffff8808f109                cc_mmServReq_U01
                0xffffffff8808f14d                cc_mmEstabErr_U01
                0xffffffff8808f2bd                cc_apiDiscReq_U01
                0xffffffff8808f381                cc_mmEstabCnf_U01
                0xffffffff8808f66d                cc_apiDiscReq_U1
                0xffffffff8808f751                cc_Connect_U1
                0xffffffff8808f8f1                cc_Alerting_U1
                0xffffffff8808f9dd                cc_CallProceeding_U1
                0xffffffff8808fbc1                cc_InitU10
                0xffffffff8808fbc5                cc_CongCtrl_U10
                0xffffffff8808fc41                cc_Notify_U10
                0xffffffff8808fc79                cc_apiNotifyReq_U10
                0xffffffff8808fccd                cc_apiModifyRejReq_U10
                0xffffffff8808fde9                cc_RtrvRej_U10
                0xffffffff8808fe79                cc_RtrvAck_U10
                0xffffffff8808fee9                cc_HoldRej_U10
                0xffffffff8808ff75                cc_HoldAck_U10
                0xffffffff8808ffe9                cc_apiModifyCmpltReq_U10
                0xffffffff8809010d                cc_Modify_U10
                0xffffffff88090349                cc_ModifyRej_U10
                0xffffffff880903f5                cc_ModifyCmplt_U10
                0xffffffff88090495                cc_apiModifyReq_U10
                0xffffffff880905cd                cc_TECTExp_U10
                0xffffffff880905f1                cc_mmReleaseInd_U10
                0xffffffff880906ad                cc_TMPTYExp_U10
                0xffffffff88090711                cc_apiFacilityReq_U10
                0xffffffff88090b1d                cc_apiCallRtrvReq_U10
                0xffffffff88090ba9                cc_apiCallHoldReq_U10
                0xffffffff88090c51                cc_T305Exp_U11
                0xffffffff88090d2d                cc_apiRelReq_U12
                0xffffffff88090d45                cc_T308Exp_U19
                0xffffffff88090de5                cc_Release_U19
                0xffffffff88090e35                cc_apiCallConfReq_U6
                0xffffffff88091005                cc_ConnectAck_U8
                0xffffffff880910bd                cc_apiConnectReq_U9
                0xffffffff8809114d                cc_apiAlertReq_U9
                0xffffffff880911bd                CFW_CfgInit
                0xffffffff88091231                CFW_CfgSimGetChvParam
                0xffffffff88091241                CFW_CfgSimGetMicParam
                0xffffffff88091255                CFW_CfgSimGetSatParam
                0xffffffff88091299                CFW_CfgSimGetPbkParam
                0xffffffff880912e1                CFW_CfgSimParamsInit
                0xffffffff88091409                NV_SetSmsSimOptStor
                0xffffffff88091451                NV_GetSmsSimOptStor
                0xffffffff88091491                NV_SetSmsSimOption
                0xffffffff880914d9                NV_GetSmsSimOption
                0xffffffff88091519                NV_SetSmsSimParaml
                0xffffffff8809158d                NV_GetSmsSimParaml
                0xffffffff880915fd                NV_SetSmsDefParamInd
                0xffffffff88091645                NV_GetSmsDefParamInd
                0xffffffff88091685                NV_SetSmsFullForNew
                0xffffffff880916cd                NV_GetSmsFullForNew
                0xffffffff8809170d                NV_SetSmsOverInd
                0xffffffff88091755                NV_GetSmsOverInd
                0xffffffff88091795                NV_GetSmsStorage
                0xffffffff880917dd                NV_SetSimSoftReset
                0xffffffff88091819                NV_SetGprsDwnSumSim
                0xffffffff88091861                NV_GetGprsDwnSumSim
                0xffffffff880918a5                NV_SetGprsUpSumSim
                0xffffffff880918ed                NV_GetGprsUpSumSim
                0xffffffff88091931                NV_GetNwDetectMBS
                0xffffffff88091965                NV_SetNwSimStoreLast
                0xffffffff880919b1                NV_GetNwSimStoreLast
                0xffffffff880919f5                NV_SetNwSimArfceList
                0xffffffff88091a5d                NV_GetNwSimArfceList
                0xffffffff88091ac5                NV_SetNwSimBaCount
                0xffffffff88091b0d                NV_GetNwSimBaCount
                0xffffffff88091b4d                NV_SetNwSimPlmn
                0xffffffff88091bb1                NV_GetNwSimPlmn
                0xffffffff88091c0d                NV_GetNwSimFregBand
                0xffffffff88091c4d                NV_SetNwSimFlightMode
                0xffffffff88091c91                NV_GetNwSimFlightMode
                0xffffffff88091cd1                NV_SetNwSimWorkMode
                0xffffffff88091d19                NV_GetNwSimWorkMode
                0xffffffff88091d59                NV_SetGenImsiSim
                0xffffffff88091dbd                NV_GetGenImsiSim
                0xffffffff88091e19                NV_GetGenIndEvent
                0xffffffff88091e4d                NV_GetGenMemInfo
                0xffffffff88091ea5                NV_GetCmColpSim
                0xffffffff88091ee5                NV_GetCmClirSim
                0xffffffff88091f25                NV_GetCmCcwaSim
                0xffffffff88091f65                NV_SetCmPublic
                0xffffffff88091fa1                NV_GetCmPublic
                0xffffffff88091fd5                NV_SetTmAlarml
                0xffffffff88092041                NV_GetTmAlarml
                0xffffffff880920a9                NV_SetTmTime
                0xffffffff88092101                NV_GetTmBase
                0xffffffff88092155                NV_GetTmAlarm
                0xffffffff880921a9                NV_SetTmZone
                0xffffffff88092201                NV_GetTmZone
                0xffffffff88092255                NV_GetTmFormat
                0xffffffff880922a9                NV_Init
                0xffffffff880924ad                COS_GetHeapUsageStatus
                0xffffffff880924f1                csw_MemIint
                0xffffffff88092631                COS_Free
                0xffffffff880926b1                free
                0xffffffff880926c1                Stack_MsgFree
                0xffffffff880926d5                CSW_Free
                0xffffffff88092741                COS_UpdateMemCallAdd
                0xffffffff88092751                COS_Malloc
                0xffffffff880927c9                calloc
                0xffffffff880927f9                malloc
                0xffffffff88092809                COS_Realloc
                0xffffffff8809285d                CSW_Malloc
                0xffffffff880928bd                Stack_MsgMalloc
                0xffffffff88092901                COS_Msec2Tick
                0xffffffff88092911                COS_Tick2Msec
                0xffffffff88092921                COS_SemaInited
                0xffffffff88092931                COS_MutexDestroy
                0xffffffff88092959                COS_SemaDestroy
                0xffffffff88092981                COS_MutexUnlock
                0xffffffff880929c1                COS_SemaRelease
                0xffffffff880929f9                COS_MutexLock
                0xffffffff88092a51                COS_SemaTake
                0xffffffff88092a95                COS_MutexInit
                0xffffffff88092ab9                COS_SemaInit
                0xffffffff88092add                COS_GetTickCount
                0xffffffff88092aed                COS_UnlockMutex
                0xffffffff88092b0d                COS_LockMutex
                0xffffffff88092b21                COS_DeleteMutex
                0xffffffff88092b35                COS_CreateMutex
                0xffffffff88092b45                COS_ReleaseSemaphore
                0xffffffff88092b5d                COS_WaitForSemaphore
                0xffffffff88092b75                COS_DeleteSemaphore
                0xffffffff88092b8d                COS_CreateSemaphore
                0xffffffff88092ba1                COS_Sleep
                0xffffffff88092bc5                COS_QueryCallbackTimer
                0xffffffff88092bf5                COS_StopCallbackTimer
                0xffffffff88092c1d                COS_StartCallbackTimer
                0xffffffff88092c81                COS_TaskCallbackNotif
                0xffffffff88092cdd                COS_TaskCallback
                0xffffffff88092d0d                COS_SendEvent
                0xffffffff88092d41                COS_KillTimerEX
                0xffffffff88092d71                COS_SetTimerEX
                0xffffffff88092db9                COS_IsEventAvailable
                0xffffffff88092dd5                COS_ResetEventQueue
                0xffffffff88092ded                COS_SendSysEvent
                0xffffffff88092e1d                COS_TaskEventCount
                0xffffffff88092e3d                COS_WaitEvent
                0xffffffff88092ed5                COS_Assert
                0xffffffff88092f2d                COS_GetDefaultMmiTaskHandle
                0xffffffff88092f55                COS_ResumeTask
                0xffffffff88092f69                COS_SuspendTask
                0xffffffff88092f7d                COS_DeleteTask
                0xffffffff88092f9d                COS_GetCurrentTaskHandle
                0xffffffff88092fad                COS_SetLastError
                0xffffffff88092fc5                COS_TaskCallbackSync
                0xffffffff88093031                COS_TaskWaitEventHandled
                0xffffffff88093045                COS_CreateTask_Prv
                0xffffffff880930c1                COS_StartTask
                0xffffffff880930d1                COS_CreateTask
                0xffffffff8809314d                COS_StopTask
                0xffffffff8809315c                memd_ChangeDdr
                0xffffffff88093470                memd_ChangeVcore
                0xffffffff8809349d                DM_BuzzerOpen
                0xffffffff880934b1                DM_BuzzerVibratingOff
                0xffffffff880934f9                DM_BuzzerVibratingOn
                0xffffffff88093541                DM_BuzzerStop
                0xffffffff8809356d                DM_BuzzerPlay
                0xffffffff8809369d                DM_BuzzerDelayNmS
                0xffffffff880936ad                DM_BuzzerSongMsg
                0xffffffff880938a1                DM_GetStdKey
                0xffffffff880938bd                DM_KeyInit
                0xffffffff880938e5                DM_KeyHandler
                0xffffffff88093995                csw_SetResourceActivity
                0xffffffff880939fd                DM_KeyboardInit
                0xffffffff88093a1d                DM_Init
                0xffffffff88093a49                Delay_for_audio
                0xffffffff88093a6d                DM_SetSPKMuteFlag
                0xffffffff88093a79                DM_GetSPKMuteFlag
                0xffffffff88093a85                DM_ArsStopEx
                0xffffffff88093a99                DM_ArsPauseEx
                0xffffffff88093ab5                DM_ArsRecordEx
                0xffffffff88093ad9                DM_ArsSetupEx
                0xffffffff88093af5                DM_VoisRecordStopEx
                0xffffffff88093b09                DM_VoisRecordStartEx
                0xffffffff88093b25                DM_AudLoudspeakerWithEarpieceEx
                0xffffffff88093b39                DM_AudMuteOutputDeviceEx
                0xffffffff88093b4d                DM_AudSetCurOutputDeviceEx
                0xffffffff88093b61                DM_AudForceReceiverMicSelectionEx
                0xffffffff88093b75                DM_AudTestModeSetupEx
                0xffffffff88093b99                DM_AudStreamRecordEx
                0xffffffff88093bb9                DM_AudStreamPauseEx
                0xffffffff88093be1                DM_AudStreamStopEx
                0xffffffff88093bfd                DM_AudStreamStartEx
                0xffffffff88093c1d                DM_AudSetupEx
                0xffffffff88093c39                DM_StartAudio
                0xffffffff88093c7d                DM_StopAudio
                0xffffffff88093cbd                Mic_open
                0xffffffff88093d05                DM_MicOpen
                0xffffffff88093d1d                Mic_close
                0xffffffff88093d69                DM_MicClose
                0xffffffff88093d7d                Speaker_Open
                0xffffffff88093dc5                DM_SpeakerOpen
                0xffffffff88093dd9                Speaker_Close
                0xffffffff88093e25                DM_SpeakerClose
                0xffffffff88093e39                DM_StopAudioEX
                0xffffffff88093eb1                DM_ResumMic
                0xffffffff88093f31                DM_MuteMic
                0xffffffff88093fad                DM_SetAudioModeEX
                0xffffffff88094089                DM_ResumSpeaker
                0xffffffff880940ed                DM_MuteSpeaker
                0xffffffff88094279                DM_sysMSleep
                0xffffffff88094289                DM_StartAudioEX
                0xffffffff88094349                DM_SetAudioVolumeEX
                0xffffffff88094429                DM_SetMicGainEX
                0xffffffff88094581                DM_ToneTimerHandlerEx
                0xffffffff8809475d                DM_SendAudOperResult
                0xffffffff880947f5                DM_ToneMsgHandlerEx
                0xffffffff88094a39                DM_GetAudSyncSlot
                0xffffffff88094aa5                DM_WaitAudOperResult
                0xffffffff88094b51                DM_StopTone
                0xffffffff88094ba1                DM_StartRingTone
                0xffffffff88094c05                DM_PlayTone
                0xffffffff88094ce5                DM_SetAudioVolume
                0xffffffff88094d35                DM_SetAudioMode
                0xffffffff88094d89                DM_SetMicGain
                0xffffffff88094dd9                DM_AudInit
                0xffffffff88094e21                DM_CheckPowerOnCause
                0xffffffff88094ea1                DM_PowerOnCheck
                0xffffffff88094ee9                DM_Reset
                0xffffffff88094f09                DM_DeviceSwithOff
                0xffffffff88094f6d                DRV_FlashInit
                0xffffffff88094f71                DRV_FlashPowerUp
                0xffffffff88094f75                DRV_CacheGetNodeCount
                0xffffffff88094f85                DRV_SuspendIsEnable
                0xffffffff88094f95                DRV_CacheFlush
                0xffffffff88094fa5                DRV_SuspendDisable
                0xffffffff88094fb5                DRV_SuspendEnable
                0xffffffff88094fc5                DRV_FlashRegionMap
                0xffffffff88094ffd                DRV_EraseFlashSectorResume
                0xffffffff88095069                DRV_WriteFlash
                0xffffffff88095129                DRV_ReadFlash
                0xffffffff880951ed                DRV_EraseFlashSectorFirst
                0xffffffff88095299                DRV_EraseFlashSector
                0xffffffff88095315                DRV_EraseAllUserDataSector
                0xffffffff88095381                DRV_GpioSetMode
                0xffffffff88095385                DRV_GpioSetLevel
                0xffffffff880953c1                DRV_GpioSetDirection
                0xffffffff88095415                DSM_GetDevType
                0xffffffff88095441                DSM_GetDevModuleId
                0xffffffff8809546d                DSM_GetDeviceInfo
                0xffffffff880954a1                DSM_SemInit
                0xffffffff880954b9                DSM_GetFsRootDevName
                0xffffffff88095501                DSM_DevName2DevNo
                0xffffffff8809554d                DSM_DevInit
                0xffffffff880958b1                reportDTMFChar
                0xffffffff880958b5                DTMF_DetectStop
                0xffffffff880958d9                DTMF_DetectFinish
                0xffffffff880958f5                DTMF_DetectRun
                0xffffffff8809593d                DTMF_DetectStart
                0xffffffff880959bd                DTMF_DetectPushVoiceData
                0xffffffff88095a89                checkDtmfChar
                0xffffffff88095bd1                DTMF_Detect_Process
                0xffffffff88095cc5                dtmf_init_coeff
                0xffffffff88095cc9                dtmf_validframe_check
                0xffffffff88095d01                tone_check_character
                0xffffffff88096079                dtmf_check_character
                0xffffffff880963c9                FREE_TCcch_Data
                0xffffffff880963f5                SETPRESENT_TCcch_Data
                0xffffffff88096441                FREE_TccDl_Data
                0xffffffff8809646d                SETPRESENT_TccDl_Data
                0xffffffff880964b9                FREE_TmmDl_Data
                0xffffffff880964e5                SETPRESENT_TmmDl_Data
                0xffffffff88096531                FREE_TDchD_Data
                0xffffffff8809655d                SETPRESENT_TDchD_Data
                0xffffffff880965d9                FACTORY_ReadField
                0xffffffff8809661d                FACTORY_SyncReadField
                0xffffffff880966a9                factory_FlushEraseBegin
                0xffffffff880968d1                FACTORY_WriteField
                0xffffffff8809691d                FACTORY_SyncWriteField
                0xffffffff8809694d                FACTORY_Init
                0xffffffff88096ac1                FS_GetDeviceInfo
                0xffffffff88096ae9                FS_GetCurDir
                0xffffffff88096b4d                FS_PowerOn
                0xffffffff88096ba9                FS_GetFileSize
                0xffffffff88096c61                FS_IsEndOfFile
                0xffffffff88096ce9                FS_Seek
                0xffffffff88096e49                FS_GetFileName
                0xffffffff88096f29                FS_Flush
                0xffffffff88096fa9                FS_ChangeSize
                0xffffffff88097109                FS_Truncate
                0xffffffff88097119                FS_RemoveDir
                0xffffffff880972dd                FS_Delete
                0xffffffff8809745d                FS_FindNextFile
                0xffffffff880975dd                FS_MakeDir
                0xffffffff88097751                FS_Write
                0xffffffff8809786d                FS_Read
                0xffffffff880979c5                FS_Close
                0xffffffff88097a8d                FS_Open
                0xffffffff88097d35                FS_Create
                0xffffffff88097d4d                FS_FindFirstFile
                0xffffffff88097f61                FS_ChangeDir
                0xffffffff880980d1                FS_FindClose
                0xffffffff88098181                FS_GetDirSize
                0xffffffff88098599                FS_Mount
                0xffffffff880987a1                FS_MountRoot
                0xffffffff88098965                FS_Rename
                0xffffffff88098bb5                FS_GetFSInfo
                0xffffffff88098cdd                FS_Format
                0xffffffff88098dc9                FS_HasFormatted
                0xffffffff88098e81                fs_set_error_code
                0xffffffff88098ffd                fs_get_free_sb
                0xffffffff88099035                fs_find_sb
                0xffffffff88099071                fs_get_inode_super
                0xffffffff8809909d                fs_fd_list_add
                0xffffffff880990b1                fs_is_file_opened
                0xffffffff880990c9                fs_is_opened
                0xffffffff880990e9                fs_get_partition_offset
                0xffffffff88099125                fs_get_file_name
                0xffffffff88099145                fs_write_inode
                0xffffffff88099165                fs_file_truncate
                0xffffffff8809918d                fs_file_extend
                0xffffffff880991b1                fs_file_write
                0xffffffff880991d5                fs_file_read
                0xffffffff880991f9                fs_trunc_file
                0xffffffff8809921d                fs_create_file
                0xffffffff88099241                fs_do_unlink
                0xffffffff88099265                fs_do_link
                0xffffffff88099285                fs_fd_list_del
                0xffffffff880992b9                fs_read_mbr
                0xffffffff88099361                fs_read_super
                0xffffffff88099455                fs_set_mbr_type
                0xffffffff880994cd                fs_write_mbr
                0xffffffff8809962d                fs_format
                0xffffffff880997b5                fs_alloc_fd
                0xffffffff880997e9                fs_delete_sb
                0xffffffff88099845                fs_scan_disk
                0xffffffff880998e1                fs_has_formated
                0xffffffff88099949                fs_set_work_dir
                0xffffffff88099b35                fs_global_var_init
                0xffffffff88099db9                inode_list_add
                0xffffffff88099dcd                inode_list_del
                0xffffffff88099e01                get_empty_inode
                0xffffffff88099e35                iput
                0xffffffff88099e71                iget
                0xffffffff88099f29                is_file_name_valid
                0xffffffff8809a04d                fs_findclose
                0xffffffff8809a0fd                fs_close
                0xffffffff8809a19d                do_find_entry
                0xffffffff8809a27d                fs_find_entry
                0xffffffff8809a2a5                dir_namei
                0xffffffff8809a3d5                namei
                0xffffffff8809a441                pattern_match_oem
                0xffffffff8809a5a9                pattern_match
                0xffffffff8809a75d                format_dir_name
                0xffffffff8809a7e1                fsm_IdxEvt
                0xffffffff8809a80d                fsm_FindEvt
                0xffffffff8809a841                fsm_Save
                0xffffffff8809a909                fsm_Retrieve
                0xffffffff8809a971                fsm_Run
                0xffffffff8809aad9                hal_AudDacGainDb2Val
                0xffffffff8809aaf1                hal_AudAdcGainDb2Val
                0xffffffff8809ab0d                hal_AudSetAdcVolume
                0xffffffff8809ab2d                hal_AudSetDacVolume
                0xffffffff8809ab51                hal_AudEnableAuxpll
                0xffffffff8809abbd                hal_AudEnableDSSI
                0xffffffff8809ac09                hal_AudSetFmMode
                0xffffffff8809acc1                hal_AbbEnableSim
                0xffffffff8809ad09                hal_AbbEnableUsbPhy
                0xffffffff8809ad29                hal_AudSetCodecMode
                0xffffffff8809ae05                hal_AudSetAdcSampleRate
                0xffffffff8809af65                hal_AudSetSampleRate
                0xffffffff8809b069                hal_AudSetHPMode
                0xffffffff8809b091                hal_AudEnableCodecDsp
                0xffffffff8809b0f1                hal_AudEnableDac
                0xffffffff8809b12d                hal_AudSetVoiceMode
                0xffffffff8809b16d                hal_AbbIspiReadOutputSelect
                0xffffffff8809b19d                hal_AbbOpen
                0xffffffff8809b2f5                hal_DcacheFlushAll
                0xffffffff8809b329                hal_DcacheFlushAddrRange
                0xffffffff8809b371                hal_TimRtcSetTime
                0xffffffff8809b3f5                hal_TimRtcNotProgrammed
                0xffffffff8809b405                hal_TimRtcIrqSetMask
                0xffffffff8809b425                hal_TimRtcSetAlarm
                0xffffffff8809b499                hal_TimRtcAlarmEnable
                0xffffffff8809b4b1                hal_TimRtcAlarmIrqSetHandler
                0xffffffff8809b4bd                hal_TimRtcIrqHandler
                0xffffffff8809b52d                hal_TimRtcGetTime
                0xffffffff8809b5f1                hal_CameraSetVsyncInvert
                0xffffffff8809b629                hal_CameraControllerEnable
                0xffffffff8809b659                hal_CameraIrqHandler
                0xffffffff8809b695                hal_CameraSetupClockDivider
                0xffffffff8809b6c9                clkInitCAM
                0xffffffff8809b6f5                hal_CameraPowerDown
                0xffffffff8809b851                hal_CameraReset
                0xffffffff8809b8b1                hal_CameraClose
                0xffffffff8809b911                hal_CameraOpen
                0xffffffff8809bc61                hal_SwUserIsActive
                0xffffffff8809bc75                hal_SwReleaseClk
                0xffffffff8809bc89                hal_SwRequestClk
                0xffffffff8809bcf9                hal_ClkGetRate
                0xffffffff8809bd09                hal_ClkSetRate
                0xffffffff8809bd1d                hal_ClkIsEnabled
                0xffffffff8809bd35                hal_ClkDisable
                0xffffffff8809bd45                hal_ClkEnable
                0xffffffff8809bd59                hal_ClkGet
                0xffffffff8809bd69                hal_ClkInit
                0xffffffff8809be45                hal_GoudaUpdateSerialTiming
                0xffffffff8809beb1                hal_GoudaIsActive
                0xffffffff8809bed5                hal_GoudaIrqHandler
                0xffffffff8809bef9                clkInitLCD
                0xffffffff8809bf25                hal_GoudaInitResetPin
                0xffffffff8809bf71                hal_GpioGetCfg
                0xffffffff8809bf75                hal_GpioIrqHandler
                0xffffffff8809bfe9                hal_GpioIrqSetHandler
                0xffffffff8809c031                hal_GpioResetIrq
                0xffffffff8809c079                hal_GpioIrqSetMask
                0xffffffff8809c189                hal_GpioGet
                0xffffffff8809c1d5                hal_GpioSetIn
                0xffffffff8809c21d                hal_GpioSetOut
                0xffffffff8809c265                hal_GpioClose
                0xffffffff8809c2e9                hal_GpioOpen
                0xffffffff8809c391                hal_I2cUpdateDivider
                0xffffffff8809c441                hal_I2C_ReadRawByte
                0xffffffff8809c5b1                hal_I2C_SendRawByte
                0xffffffff8809c6f1                hal_I2C_ReadMem
                0xffffffff8809ca61                hal_I2C_WriteMem
                0xffffffff8809cdb9                hal_I2C_Receive
                0xffffffff8809d051                hal_I2C_Transmit
                0xffffffff8809d2e9                clkInitI2C
                0xffffffff8809d315                hal_I2cClose
                0xffffffff8809d345                hal_I2cOpen
                0xffffffff8809d5dd                hal_KeyClose
                0xffffffff8809d5f1                hal_KeyOnOffStateGet
                0xffffffff8809d601                hal_KeyOnOffStateAtPowerOn
                0xffffffff8809d629                hal_KeyIrqSetHandler
                0xffffffff8809d645                hal_KeyIrqSetMask
                0xffffffff8809d6ed                hal_KeyIrqHandler
                0xffffffff8809d875                hal_KeyRemoteHandler
                0xffffffff8809d8dd                hal_KeyOpen
                0xffffffff8809d9f9                hal_RegisterYourself
                0xffffffff8809da15                hal_SdioUpdateDivider
                0xffffffff8809da51                hal_SdioIrqHandler
                0xffffffff8809da69                clkInitSDIO
                0xffffffff8809da95                hal_SdmmcSetClkMode
                0xffffffff8809dad1                hal_SdmmcSendCmd
                0xffffffff8809dbb9                hal_SdmmcCmdDone
                0xffffffff8809dbcd                hal_SdmmcUpdateDivider
                0xffffffff8809dc09                hal_SdmmcGetOpStatus
                0xffffffff8809dc19                hal_SdmmcEnterDataTransferMode
                0xffffffff8809dc31                hal_SdmmcIsBusy
                0xffffffff8809dc65                clkInitSDMMC
                0xffffffff8809dc91                hal_SdmmcSetDataWidth
                0xffffffff8809dcc1                hal_SdmmcGetResp
                0xffffffff8809dd79                hal_SdmmcNeedResponse
                0xffffffff8809de05                hal_SdmmcStopTransfer
                0xffffffff8809de75                hal_SdmmcTransferDone
                0xffffffff8809def9                hal_SdmmcTransfer
                0xffffffff8809df8d                hal_SdmmcSetClk
                0xffffffff8809dfc1                hal_SdmmcSleep
                0xffffffff8809dfd9                hal_SdmmcClose
                0xffffffff8809e011                hal_SdmmcWakeUp
                0xffffffff8809e045                hal_SdmmcOpen
                0xffffffff8809e0bd                hal_SdmmcUpdateDivider_2
                0xffffffff8809e0f9                clkInitSDMMC2
                0xffffffff8809e125                hal_UartEnable
                0xffffffff8809e209                hal_UartDisable
                0xffffffff8809e305                hal_UartIrqHandler
                0xffffffff8809e37d                clkInitUART2
                0xffffffff8809e3a9                clkInitUART1
                0xffffffff8809e3d5                hal_UartFifoFlush
                0xffffffff8809e419                hal_UartTxFifoAvailable
                0xffffffff8809e46d                hal_UartIrqSetMask
                0xffffffff8809e4bd                hal_UartIrqSetHandler
                0xffffffff8809e4fd                hal_UartSetRts
                0xffffffff8809e54d                hal_UartClearErrorStatus
                0xffffffff8809e585                hal_UartRxDmaDone
                0xffffffff8809e61d                hal_UartRxFifoLevel
                0xffffffff8809e66d                hal_UartTxFinished
                0xffffffff8809e6d1                hal_UartTxDmaDone
                0xffffffff8809e779                hal_UartOpen
                0xffffffff8809eaa5                hal_UartRxDmaPurgeFifo
                0xffffffff8809eb21                hal_UartRxDmaFifoEmpty
                0xffffffff8809eb9d                hal_UartRxDmaLevel
                0xffffffff8809ec19                hal_UartRxDmaStop
                0xffffffff8809ecd1                hal_UartClose
                0xffffffff8809edc9                hal_UartGetData
                0xffffffff8809ef55                hal_UartSendData
                0xffffffff8809f095                hal_UsbDescriptorNewCSInterfaceDescriptor
                0xffffffff8809f0c5                hal_UsbDescriptorCopyInterfaceDescriptor
                0xffffffff8809f155                l1a_HighBandChangeReq
                0xffffffff8809f1b5                itf_ConvTxRmtMsg
                0xffffffff8809f1b9                itf_ConvRxRmtMsg
                0xffffffff8809f1bd                l1a_TimerParse
                0xffffffff8809f1d9                l1a_InitReq
                0xffffffff8809f931                l1a_MsgParse
                0xffffffff8809fd71                l1a_Init
                0xffffffff8809ff8d                l1s_CellListPurge
                0xffffffff8809ff91                l1s_Fn
                0xffffffff8809ffcd                l1s_CounterUpdate
                0xffffffff880a01a5                l1s_ResetChannelQuality
                0xffffffff880a0201                l1s_PacketPwrCtrlCfg
                0xffffffff880a0259                l1s_InitialBox
                0xffffffff880a028d                l1s_ReleaseBox
                0xffffffff880a02b1                l1s_UpdateAimFn
                0xffffffff880a030d                l1s_HoppingArfcn
                0xffffffff880a03dd                l1s_HoppingArfcnSlave
                0xffffffff880a04cd                l1s_TxPower
                0xffffffff880a0535                l1s_IlData
                0xffffffff880a0545                l1s_RxQual
                0xffffffff880a0585                l1s_GetPCchCellGain
                0xffffffff880a05dd                l1s_GetPdchGain
                0xffffffff880a0649                l1s_StartingTime
                0xffffffff880a06b1                l1s_ResetCValue
                0xffffffff880a0705                l1s_MeasReport
                0xffffffff880a072d                l1s_SendPSDataInd
                0xffffffff880a076d                l1s_SynchRsp
                0xffffffff880a07a5                l1s_NearTimer
                0xffffffff880a09f1                l1s_ProceedHo
                0xffffffff880a0bb5                l1s_TxPwrCtrlTimer
                0xffffffff880a0c71                l1s_TOfCtrlTimer
                0xffffffff880a0d09                l1s_SendTxInd
                0xffffffff880a0d89                l1s_ChangePMeasCtrl
                0xffffffff880a0f85                l1s_FreeCell
                0xffffffff880a1091                l1s_SetTchChannel
                0xffffffff880a1275                l1s_TxDiscardQueuePurge
                0xffffffff880a12bd                l1s_PDataQueuePurge
                0xffffffff880a12e1                l1s_QueuePurge
                0xffffffff880a12f5                l1s_SetNewFrequencyParam
                0xffffffff880a1399                l1s_GetNBlockResult_Fast
                0xffffffff880a15f9                l1s_PacketTxPowerUpdate
                0xffffffff880a1801                l1s_CValueUpdate
                0xffffffff880a1905                l1s_GetNBlockResult
                0xffffffff880a277d                l1s_GetNBurstResult
                0xffffffff880a3055                l1s_GetComBox
                0xffffffff880a32f1                l1s_SynchroUpdate
                0xffffffff880a34ed                l1s_QueueRmv
                0xffffffff880a3541                l1s_CellBecomesOld
                0xffffffff880a3595                l1s_UpdtNearRLCnt
                0xffffffff880a3615                l1s_GetSchResult
                0xffffffff880a38b1                l1s_CheckCell
                0xffffffff880a392d                l1s_FindCell
                0xffffffff880a39c9                l1s_RmvCellFromList
                0xffffffff880a3a4d                l1s_NewCell
                0xffffffff880a3ae1                l1s_ExitHoAccess
                0xffffffff880a3b29                l1s_ExitCchControl
                0xffffffff880a3b61                l1s_HoAccessJob
                0xffffffff880a3cb1                l1s_ExitRach
                0xffffffff880a3d0d                l1s_ExitCnx
                0xffffffff880a3e65                l1s_ExitTch
                0xffffffff880a3ecd                l1s_ExitSdcch
                0xffffffff880a3f0d                l1s_StartBlindHo
                0xffffffff880a3fc5                l1s_StartCnx
                0xffffffff880a4439                l1s_TchJob
                0xffffffff880a4d65                l1s_SdcchJob
                0xffffffff880a5371                l1s_RachJob
                0xffffffff880a58f1                l1s_ExitRxBcch
                0xffffffff880a5961                l1s_ExitRxCbch
                0xffffffff880a59ed                l1s_ExitRxCch
                0xffffffff880a5aad                l1s_ExitRxCchB
                0xffffffff880a5ac5                l1s_ExitRxCchA
                0xffffffff880a5add                l1s_RxBcchJob
                0xffffffff880a60dd                l1s_RxCbchJob
                0xffffffff880a66b9                l1s_CchControlJob
                0xffffffff880a6871                l1s_RxCchCOMJob
                0xffffffff880a772d                l1s_ExitMonitoring
                0xffffffff880a7815                l1s_ExitMonitoringB
                0xffffffff880a782d                l1s_ExitMonitoringA
                0xffffffff880a7845                l1s_MonitoringJob
                0xffffffff880a7eb9                l1s_ExitPowerJob
                0xffffffff880a7f3d                l1s_NearCellBcch
                0xffffffff880a8651                l1s_CheckMinBcchDistance
                0xffffffff880a8719                l1s_NearCellSch
                0xffffffff880a8885                l1s_ExitNearJob
                0xffffffff880a88c1                l1s_CellSlicedSynch
                0xffffffff880a8bcd                l1s_CellSynch
                0xffffffff880a9455                l1s_NearJob
                0xffffffff880a982d                l1s_PowerJob
                0xffffffff880a9a99                l1s_FrameBoundary
                0xffffffff880a9bd1                l1s_FrameInterrupt
                0xffffffff880a9c51                l1s_DspIrq
                0xffffffff880a9c9d                l1s_TBFReleaseExit
                0xffffffff880a9cc5                l1s_PSJob
                0xffffffff880a9cc9                l1s_ExitPS
                0xffffffff880a9ccd                l1s_Allocation
                0xffffffff880a9e6d                l1s_PTCchJob
                0xffffffff880aa31d                l1s_PSEncodeTimer
                0xffffffff880aa719                l1s_TBFSetUpExit
                0xffffffff880aa769                l1s_TBFSetUpJob
                0xffffffff880ab0e9                l1s_GetTxBitMap
                0xffffffff880ab321                l1s_PDataQueuePurgeReq
                0xffffffff880ab449                l1s_ExitPdch
                0xffffffff880ab63d                l1s_PdchJob
                0xffffffff880ac381                l1s_TBFReleaseJob
                0xffffffff880ac691                lap_ProcessEvt
                0xffffffff880ac6cd                lap_Parse
                0xffffffff880ac729                lap_ParseEvt
                0xffffffff880ac7cd                lap_ParseMsg
                0xffffffff880ac871                lap_Init
                0xffffffff880ac965                lap_GiveEvtdx
                0xffffffff880ac97d                lap_DoNothing
                0xffffffff880ac981                lap_MFE_RxUa
                0xffffffff880ac99d                lap_AllState_RxUi
                0xffffffff880aca55                lap_SendRRDelayedMsg
                0xffffffff880acab9                lap_AllState_L1TxInd
                0xffffffff880acc79                lap_SabmOrDiscSent_T200
                0xffffffff880acc8d                lap_TimerRecovery_T200
                0xffffffff880acca1                lap_MFE_T200
                0xffffffff880accc5                lap_AllState_LocalReleaseReq
                0xffffffff880accfd                lap_AllState_UnitDataReq
                0xffffffff880acd25                lap_ReleaseDiscSent_RxDisc
                0xffffffff880acd71                lap_MFE_NormalReleaseReq
                0xffffffff880acdc1                lap_Idle_RxDisc
                0xffffffff880acdfd                lap_ReleaseDiscSent_LastT200
                0xffffffff880ace6d                lap_ReleaseDiscSent_RxDm
                0xffffffff880acee9                lap_ReleaseDiscSent_RxUa
                0xffffffff880acf65                lap_TimerRecovery_LastT200
                0xffffffff880acfb5                lap_ReconnectSabmSent_LastT200
                0xffffffff880ad00d                lap_ReconnectSabmSent_RxDm
                0xffffffff880ad085                lap_MFE_RxSabm
                0xffffffff880ad129                lap_MFE_RxDisc
                0xffffffff880ad1bd                lap_MFE_RxDm
                0xffffffff880ad241                lap_EstabSabmSent_LastT200
                0xffffffff880ad2a5                lap_EstabSabmSent_RxDisc
                0xffffffff880ad339                lap_EstabSabmSent_RxDm
                0xffffffff880ad3b9                lap_EstabSabmSent_RxUa
                0xffffffff880ad4b5                lap_Idle_RxSabm
                0xffffffff880ad551                lap_TimerRecovery_DataReq
                0xffffffff880ad585                lap_Suspended_DataReq
                0xffffffff880ad5bd                lap_ResumeSabmSent_LastT200
                0xffffffff880ad63d                lap_ResumeSabmSent_SuspendReq
                0xffffffff880ad695                lap_ResumeSabmSent_RxDm
                0xffffffff880ad731                lap_ReconnectSabmSent_RxUa
                0xffffffff880ad7d5                lap_ResumeSabmSent_RxUa
                0xffffffff880ad875                lap_MFE_DataReq
                0xffffffff880ad8dd                lap_TimerRecovery_RxI
                0xffffffff880adab9                lap_TimerRecovery_RxRrOrRej
                0xffffffff880adbfd                lap_MFE_RxRr
                0xffffffff880add69                lap_MFE_RxI
                0xffffffff880adf4d                lap_ResumeSabmSent_ReconnectReq
                0xffffffff880adfd5                lap_Suspended_ReconnectReq
                0xffffffff880ae029                lap_Suspended_ResumeReq
                0xffffffff880ae07d                lap_MFE_ReconnectReq
                0xffffffff880ae101                lap_MFE_SuspendReq
                0xffffffff880ae2a5                lap_MFE_RxRej
                0xffffffff880ae445                lap_Idle_EstablishReq
                0xffffffff880ae4f5                lap_TestDISCFrame
                0xffffffff880ae555                lap_TestDMFrame
                0xffffffff880ae5b5                lap_TestSABMFrame
                0xffffffff880ae615                lap_TestUAFrame
                0xffffffff880ae675                lap_TestREJFrame
                0xffffffff880ae6d1                lap_TestRRFrame
                0xffffffff880ae72d                lap_TestUIFrame
                0xffffffff880ae78d                lap_TestIFrame
                0xffffffff880ae815                lap_L1DataInd
                0xffffffff880aea89                lcdd_RegisterYourself
                0xffffffff880aeaa5                llc_ProcessEvt
                0xffffffff880aeb51                llc_Parse
                0xffffffff880aecbd                llc_ParseSignal
                0xffffffff880aed91                llc_ParseMsg
                0xffffffff880aee15                llc_Init
                0xffffffff880aefd1                llc_GiveDsc
                0xffffffff880aeff9                llc_SndUFrm
                0xffffffff880af0a5                llc_SndUIFrmInDataReq
                0xffffffff880af119                llc_SendMsg
                0xffffffff880af16d                llc_SndXidCnfOrInd
                0xffffffff880af211                llc_SndEstabCnfOrInd
                0xffffffff880af271                llc_SndDataInd
                0xffffffff880af2ed                llc_PrepMsg
                0xffffffff880af335                llc_RluPurgeReq
                0xffffffff880af35d                llc_SndDataCnf
                0xffffffff880af3c1                llc_SndResetInd
                0xffffffff880af3f5                llc_SndReleaseCnf
                0xffffffff880af429                llc_SndReleaseInd
                0xffffffff880af469                llc_SndStatusInd
                0xffffffff880af4b1                llc_SndNewTlliInd
                0xffffffff880af501                llc_RluQueueCreateInd
                0xffffffff880af515                llc_MmpTriggerReq
                0xffffffff880af5e5                llc_MmpResumeReq
                0xffffffff880af679                llc_MmpSuspendReq
                0xffffffff880af709                llc_RldDataInd
                0xffffffff880af805                llc_MmpCiphParamInd
                0xffffffff880af8c9                llc_MmpTlliInd
                0xffffffff880afa4d                llcGene_TrsT201Exp
                0xffffffff880afa61                llcGene_RxFRMR
                0xffffffff880afa65                llc_TrsDoNothing
                0xffffffff880afa69                llcGene_TrsXidReq
                0xffffffff880afa85                llcLocRel_TrsRxDISC
                0xffffffff880afacd                llcAdm_TrsRxDISC
                0xffffffff880afb05                llcAbm_TrsSuspendReq
                0xffffffff880afb45                llcAdm_TrsRelReq
                0xffffffff880afb59                llcLocRel_TrsRxUA_DM
                0xffffffff880afba9                llcLocRel_TrsRxSABM
                0xffffffff880afbcd                llcGene_TrsRxUUndefFrame
                0xffffffff880afc0d                llcAbm_TrsRxUUndefFrame
                0xffffffff880afc41                llcAbm_TrsChangLlcParReq
                0xffffffff880afc55                llcAbm_TrsTriggerReq
                0xffffffff880afc79                llcGene_TrsResumeReq
                0xffffffff880afc8d                llcAbm_TrsResumeReq
                0xffffffff880afd2d                llcAbm_TrsRxSFrm
                0xffffffff880afe09                llcAbm_TrsRxIFrm
                0xffffffff880b0001                llcAbm_TrsT201Exp
                0xffffffff880b0165                llcAbm_TrsRxDISC
                0xffffffff880b01ad                llcLocEst_TrsRxDISC
                0xffffffff880b01d1                llcLocEst_TrsRxDM
                0xffffffff880b0215                llcAbm_TrsRxDM
                0xffffffff880b024d                llc_TrsRxUnsolicitedUA
                0xffffffff880b0261                llcLocEst_TrsRelReq
                0xffffffff880b02a5                llcAbm_TrsRelReq
                0xffffffff880b02e1                llcRemEst_TrsRelReq
                0xffffffff880b02fd                llcRemEst_TrsEstabRsp
                0xffffffff880b0345                llcAdm_TrsTriggerReq
                0xffffffff880b0391                llcAdm_TrsNullFrame
                0xffffffff880b03e9                llcAdm_TrsSndDM_0
                0xffffffff880b040d                llcGene_TrsRxSABM
                0xffffffff880b05c1                llcAdmAbm_TrsEstabReq
                0xffffffff880b0675                llcNull_TrsInitLleCtx
                0xffffffff880b06a5                llc_TrsXidRsp
                0xffffffff880b06c1                llc_TrsXidReq
                0xffffffff880b06d5                llcGene_TrsReset
                0xffffffff880b06e9                llcGene_TrsT200Exp
                0xffffffff880b0855                llcLocEst_TrsRxUA
                0xffffffff880b095d                llc_TrsRxXID
                0xffffffff880b0c85                llcGene_TrsClearLleCtx
                0xffffffff880b0d0d                llcGene_TrsQueueDataReq
                0xffffffff880b0dd5                llcGene_TrsRxUIFrame
                0xffffffff880b0fc1                llc_SaveLlcParam
                0xffffffff880b102d                llc_IsValInWindow
                0xffffffff880b104d                llc_PduNsSort
                0xffffffff880b1061                llc_PduNsCmp
                0xffffffff880b106d                llc_RxIFrmIndShift
                0xffffffff880b10b1                llc_UpdateVr
                0xffffffff880b1105                llc_UpdateVs
                0xffffffff880b1159                llc_PopInFrame
                0xffffffff880b11dd                llc_SearchTxL3PduQ_Ns
                0xffffffff880b121d                llc_SaveMsg
                0xffffffff880b1255                llc_RelXidParTab
                0xffffffff880b1295                llc_PurgeQueue
                0xffffffff880b12a9                llc_ProcessRelease
                0xffffffff880b1315                llc_ProcessSavedMsg
                0xffffffff880b13a5                llc_ResetLLE
                0xffffffff880b13f5                llc_StopRetransTimer
                0xffffffff880b1469                llc_ReleaseUCmd
                0xffffffff880b14c5                llc_StartRetransTimer
                0xffffffff880b15b1                llc_ProcessReestab
                0xffffffff880b16b1                llc_InitiateReestab
                0xffffffff880b16e9                llc_ProcessXidReqRsp
                0xffffffff880b1811                llc_InitAbmVar
                0xffffffff880b18b9                llc_CheckUnitDataReqParam
                0xffffffff880b191d                llc_CheckTLLI
                0xffffffff880b198d                llc_CipherFrm
                0xffffffff880b1a59                llc_IsFcsCorrect
                0xffffffff880b1b05                mcd_GetCardSize
                0xffffffff880b1bd9                mcd_CardStatus
                0xffffffff880b1bf1                mcd_hal_delay_sd1
                0xffffffff880b1cd5                mcd_Close
                0xffffffff880b1d45                mcd_sdmmc_Close_all_volt
                0xffffffff880b1d69                mcd_sdmmc_rst_volt
                0xffffffff880b1e4d                mcd_Open
                0xffffffff880b24a9                mcd_Read
                0xffffffff880b27b9                mcd_Write
                0xffffffff880b28a1                memd_GetRegionId
                0xffffffff880b28dd                memd_GetNode
                0xffffffff880b28f9                memd_GetNodeCount
                0xffffffff880b2915                memd_CacheGetNodeCount
                0xffffffff880b2925                memd_AddNode
                0xffffffff880b29b1                memd_FreeNode
                0xffffffff880b2a2d                memd_Init
                0xffffffff880b2a81                memd_SemRelease
                0xffffffff880b2ab5                memd_SemWaitFor
                0xffffffff880b2ae9                memd_CacheFlush
                0xffffffff880b2c99                memd_CacheErase
                0xffffffff880b2d3d                memd_CacheRead
                0xffffffff880b2e55                memd_CacheWrite
                0xffffffff880b2f21                memd_RegisterYourself
                0xffffffff880b2f3d                ML_RegisterTable
                0xffffffff880b2f81                ML_Init
                0xffffffff880b2f99                ML_SetCodePage
                0xffffffff880b2fb5                ML_FindTable
                0xffffffff880b2fed                ML_LocalLanguage2UnicodeBigEnding
                0xffffffff880b30e9                ML_LocalLanguage2Unicode
                0xffffffff880b31e5                ML_Unicode2LocalLanguage
                0xffffffff880b33f1                ML_InitCP936
                0xffffffff880b3459                ML_InitISO8859_1
                0xffffffff880b3471                mm_CheckTestSim
                0xffffffff880b34dd                mm_ReleaseMsg
                0xffffffff880b3515                mm_GetAndHandleSaveMsg
                0xffffffff880b3771                mm_Parse
                0xffffffff880b397d                mm_SignalParse
                0xffffffff880b398d                mm_MsgParse
                0xffffffff880b39cd                mm_Init
                0xffffffff880b3c09                GROUP_mm_FREE_TDchD_Data
                0xffffffff880b3c0d                GROUP_mm_SETPRESENT_TDchD_Data
                0xffffffff880b3c11                GROUP_mm_FREE_TmmDl_Data
                0xffffffff880b3c15                GROUP_mm_FREE_TccDl_Data
                0xffffffff880b3c19                GROUP_mm_SETPRESENT_TccDl_Data
                0xffffffff880b3c1d                GROUP_mm_FREE_TCcch_Data
                0xffffffff880b3c21                GROUP_mm_SETPRESENT_TCcch_Data
                0xffffffff880b3c25                GROUP_mm_SETPRESENT_TmmDl_Data
                0xffffffff880b3cf9                mm_SetDecode_mmDl
                0xffffffff880b41c1                mm_GiveDsc
                0xffffffff880b453d                mm_SimOpenErrorOnRead
                0xffffffff880b4555                mm_StkStartReq
                0xffffffff880b45e1                mm_CmkInd
                0xffffffff880b4615                mm_SimClosedInd
                0xffffffff880b4645                mm_PagingCheck
                0xffffffff880b4b8d                mm_PagingCheckFun
                0xffffffff880b5139                mm_PagingInd
                0xffffffff880b579d                mm_SimUpdBinCnf
                0xffffffff880b57d5                mm_CellInd
                0xffffffff880b59d5                mm_SimOpenInd
                0xffffffff880b5dad                DECODE_BODY_c_AUTHENTICATION_AND_CIPHERING_REJECT
                0xffffffff880b5db1                DECODE_c_AUTHENTICATION_AND_CIPHERING_REJECT
                0xffffffff880b5dc9                DECODE_BODY_c_AUTHENTICATION_REJECT
                0xffffffff880b5dcd                DECODE_c_AUTHENTICATION_REJECT
                0xffffffff880b5de5                DECODE_BODY_c_CM_SERVICE_ACCEPT
                0xffffffff880b5de9                DECODE_c_CM_SERVICE_ACCEPT
                0xffffffff880b5e01                DECODE_BODY_c_TMSI_REALLOCATION_COMMAND
                0xffffffff880b5ead                DECODE_c_TMSI_REALLOCATION_COMMAND
                0xffffffff880b5ec5                DECODE_BODY_c_LOCATION_UPDATE_REJECT
                0xffffffff880b5f09                DECODE_c_LOCATION_UPDATE_REJECT
                0xffffffff880b5f21                DECODE_BODY_c_IDENTITY_REQUEST
                0xffffffff880b5f79                DECODE_c_IDENTITY_REQUEST
                0xffffffff880b5f91                DECODE_BODY_c_ABORT
                0xffffffff880b5fd5                DECODE_c_ABORT
                0xffffffff880b5fed                DECODE_BODY_c_CM_SERVICE_REJECT
                0xffffffff880b6031                DECODE_c_CM_SERVICE_REJECT
                0xffffffff880b6049                DECODE_BODY_c_GPRS_TEST_MODE_CMD
                0xffffffff880b60b9                DECODE_c_GPRS_TEST_MODE_CMD
                0xffffffff880b60d1                DECODE_BODY_c_PSTATUS
                0xffffffff880b6115                DECODE_c_PSTATUS
                0xffffffff880b612d                DECODE_BODY_c_PIDENTITY_REQUEST
                0xffffffff880b6199                DECODE_c_PIDENTITY_REQUEST
                0xffffffff880b61b1                DECODE_BODY_c_DETACH_ACCEPT
                0xffffffff880b6209                DECODE_c_DETACH_ACCEPT
                0xffffffff880b6221                DECODE_BODY_c_MM_INFORMATION
                0xffffffff880b6271                DECODE_c_MM_INFORMATION
                0xffffffff880b6289                DECODE_BODY_c_GMM_INFORMATION
                0xffffffff880b62d9                DECODE_c_GMM_INFORMATION
                0xffffffff880b62f1                DECODE_BODY_c_LOCATION_UPDATE_ACCEPT
                0xffffffff880b64f5                DECODE_c_LOCATION_UPDATE_ACCEPT
                0xffffffff880b650d                DECODE_BODY_c_AUTHENTICATION_REQUEST
                0xffffffff880b6625                DECODE_c_AUTHENTICATION_REQUEST
                0xffffffff880b663d                DECODE_BODY_c_PTMSI_REALLOCATION_COMMAND
                0xffffffff880b6795                DECODE_c_PTMSI_REALLOCATION_COMMAND
                0xffffffff880b67ad                DECODE_BODY_c_DETACH_REQUEST_MT
                0xffffffff880b6895                DECODE_c_DETACH_REQUEST_MT
                0xffffffff880b68ad                DECODE_BODY_c_RAU_REJECT
                0xffffffff880b69e9                DECODE_c_RAU_REJECT
                0xffffffff880b6a01                DECODE_BODY_c_ATTACH_REJECT
                0xffffffff880b6b15                DECODE_c_ATTACH_REJECT
                0xffffffff880b6b2d                DECODE_BODY_c_ATTACH_ACCEPT
                0xffffffff880b6ff9                DECODE_c_ATTACH_ACCEPT
                0xffffffff880b7011                DECODE_BODY_c_RAU_ACCEPT
                0xffffffff880b75ed                DECODE_c_RAU_ACCEPT
                0xffffffff880b7605                DECODE_BODY_c_AUTHENTICATION_AND_CIPHERING_REQUEST
                0xffffffff880b7841                DECODE_c_AUTHENTICATION_AND_CIPHERING_REQUEST
                0xffffffff880b7859                L3_ENCODE_c_TMSI_REALLOCATION_COMPLETE
                0xffffffff880b7891                ENCODE_c_TMSI_REALLOCATION_COMPLETE
                0xffffffff880b78a1                L3_ENCODE_c_CM_SERVICE_ABORT
                0xffffffff880b78d9                ENCODE_c_CM_SERVICE_ABORT
                0xffffffff880b78e9                L3_ENCODE_c_AUTHENTICATION_AND_CIPHERING_FAILURE
                0xffffffff880b7975                ENCODE_c_AUTHENTICATION_AND_CIPHERING_FAILURE
                0xffffffff880b7985                L3_ENCODE_c_AUTHENTICATION_FAILURE
                0xffffffff880b7a11                ENCODE_c_AUTHENTICATION_FAILURE
                0xffffffff880b7a21                L3_ENCODE_c_DETACH_REQUEST_MO
                0xffffffff880b7afd                ENCODE_c_DETACH_REQUEST_MO
                0xffffffff880b7b0d                L3_ENCODE_c_PAGING_RESPONSE
                0xffffffff880b7be1                ENCODE_c_PAGING_RESPONSE
                0xffffffff880b7bf1                L3_ENCODE_c_IMSI_DETACH_INDICATION
                0xffffffff880b7c91                ENCODE_c_IMSI_DETACH_INDICATION
                0xffffffff880b7ca1                L3_ENCODE_c_IDENTITY_RESPONSE
                0xffffffff880b7d2d                ENCODE_c_IDENTITY_RESPONSE
                0xffffffff880b7d3d                L3_ENCODE_c_CM_SERVICE_REQUEST
                0xffffffff880b7e11                ENCODE_c_CM_SERVICE_REQUEST
                0xffffffff880b7e21                L3_ENCODE_c_CM_REESTABLISHMENT_REQUEST
                0xffffffff880b7f19                ENCODE_c_CM_REESTABLISHMENT_REQUEST
                0xffffffff880b7f29                L3_ENCODE_c_AUTHENTICATION_RESPONSE
                0xffffffff880b7fe1                ENCODE_c_AUTHENTICATION_RESPONSE
                0xffffffff880b7ff1                L3_ENCODE_c_PIDENTITY_RESPONSE
                0xffffffff880b807d                ENCODE_c_PIDENTITY_RESPONSE
                0xffffffff880b808d                L3_ENCODE_c_AUTHENTICATION_AND_CIPHERING_RESPONSE
                0xffffffff880b81b1                ENCODE_c_AUTHENTICATION_AND_CIPHERING_RESPONSE
                0xffffffff880b81c1                L3_ENCODE_c_LOCATION_UPDATE_REQUEST
                0xffffffff880b8295                ENCODE_c_LOCATION_UPDATE_REQUEST
                0xffffffff880b82a5                L3_ENCODE_c_RAU_COMPLETE
                0xffffffff880b8341                ENCODE_c_RAU_COMPLETE
                0xffffffff880b8351                L3_ENCODE_c_RAU_REQUEST
                0xffffffff880b858d                ENCODE_c_RAU_REQUEST
                0xffffffff880b859d                L3_ENCODE_c_ATTACH_REQUEST
                0xffffffff880b8775                ENCODE_c_ATTACH_REQUEST
                0xffffffff880b8785                mm_SendOtherSimMsg
                0xffffffff880b8821                mm_SendMsg
                0xffffffff880b88b9                mmp_PrepMsg
                0xffffffff880b891d                mmc_PrepMsg
                0xffffffff880b8975                mmp_GiveDataIndDsc
                0xffffffff880b8b75                mmc_GiveDataIndDsc
                0xffffffff880b8de9                mm_EvtIdCmp
                0xffffffff880b8df5                mm_DualMsgSimIdCmp
                0xffffffff880b8e01                mm_EvtIdSimIdCmp
                0xffffffff880b8e19                mm_CheckOtherSimCallSta
                0xffffffff880b8e49                mm_StkStoped
                0xffffffff880b8e7d                mm_StkStopingOrStoped
                0xffffffff880b8ec9                mm_CellAccessClassChanged
                0xffffffff880b8f49                mm_CheckConnStatus
                0xffffffff880b8fe9                mm_CheckCurConnPermit
                0xffffffff880b9095                mm_MmcCellChanged
                0xffffffff880b90dd                mm_CellChanged
                0xffffffff880b9141                mm_LaiCmp
                0xffffffff880b9155                mm_ExistTimer
                0xffffffff880b9181                mm_StopTimer
                0xffffffff880b9239                mm_StartTimer
                0xffffffff880b9339                mm_PurgeQueue
                0xffffffff880b934d                mm_SndSimErrInd
                0xffffffff880b937d                mm_DuleIsEvtInQueue
                0xffffffff880b93ad                mm_DuleIsEvtSimIdInQueue
                0xffffffff880b93e1                mm_DualSaveMsg
                0xffffffff880b95a9                mm_DelSavedCellInd
                0xffffffff880b95f9                mm_DuleIsSimIdInQueue
                0xffffffff880b962d                mm_DualReSendCurrentSimMsg
                0xffffffff880b9715                mm_GiveFLaiPtr
                0xffffffff880b9751                mm_DelFLai
                0xffffffff880b97a1                mm_IsEvtInQueue
                0xffffffff880b97d9                mm_HdleInformation
                0xffffffff880b98d5                mm_InsFLai
                0xffffffff880b9939                mm_CreateSavedCellInd
                0xffffffff880b99a9                mm_WriteFileSim
                0xffffffff880b9a25                mm_AuthenticationReq
                0xffffffff880b9d7d                mm_ReadFileStatusSim
                0xffffffff880b9e59                _mm_ReadFileSim
                0xffffffff880b9f4d                mm_ReadFileSimOpt
                0xffffffff880b9f71                mm_ReadFileSim
                0xffffffff880b9f95                mm_SaveIEvt
                0xffffffff880ba131                mm_mmpHandleEvt
                0xffffffff880ba199                mm_mmcHandleEvt
                0xffffffff880ba22d                mm_HandleEvt
                0xffffffff880ba261                mm_BuildIMEI
                0xffffffff880ba2a5                mm_AnswerIdReq
                0xffffffff880ba339                mm_BackInact
                0xffffffff880ba469                mmc_Release_Gene
                0xffffffff880ba4a5                mmc_Information_Gene
                0xffffffff880ba4b9                mmc_DataReq_Gene
                0xffffffff880ba4f5                mmc_SimClosedInd_Gene
                0xffffffff880ba599                mmc_SimOpenInd_Gene
                0xffffffff880ba5d1                mmc_EstabReq_Gene
                0xffffffff880ba65d                mmc_Abort_Gene
                0xffffffff880ba6c9                mmc_TmsiRealCmd_Gene
                0xffffffff880ba769                mmc_AuthRej_Gene
                0xffffffff880ba7ed                mmc_AuthReq_Gene
                0xffffffff880bac89                mmc_IdReq_Gene
                0xffffffff880bad21                mmc_SelfLocup_Idle
                0xffffffff880bad3d                mmc_RrEndCong_Idle
                0xffffffff880bad75                mmc_ReestabReq_Idle
                0xffffffff880bae91                mmc_SimOpenInd_Idle
                0xffffffff880baf01                mmc_T3213Exp_Idle
                0xffffffff880bafe9                mmc_T3212Exp_Idle
                0xffffffff880bb11d                mmc_T3211Exp_Idle
                0xffffffff880bb201                mmc_EstabReq_Idle
                0xffffffff880bb431                mmc_ApiStopReq_Idle
                0xffffffff880bb491                mmc_SimClosedInd_Idle
                0xffffffff880bb4e9                mmc_PagingInd_Idle
                0xffffffff880bb52d                mmc_RrCellInd_Idle
                0xffffffff880bb78d                mmc_InitIdle
                0xffffffff880bb8f1                mmc_mmpSetLocUpNeeded
                0xffffffff880bb929                mmc_mmp_SetMmpFsmState
                0xffffffff880bb9a5                mmp_mmcInvalidGSim
                0xffffffff880bb9dd                mmp_mmcEnterDedicated
                0xffffffff880bba05                mmp_mmcCombImsiAtt
                0xffffffff880bba69                mmc_mmpStaNotUpdated
                0xffffffff880bbac5                mmc_mmpStartT3212
                0xffffffff880bbb05                mmc_mmpDetach
                0xffffffff880bbb61                mmc_mmpAuthAndCiphRej
                0xffffffff880bbb81                mmc_mmp_SetMmcFsmState
                0xffffffff880bbc31                mmc_mmpCombResult
                0xffffffff880bbf1d                mmc_SimOpenInd_Null
                0xffffffff880bbf31                mmc_ApiStartReq_Null
                0xffffffff880bbf49                mmc_T3212Exp_Null
                0xffffffff880bbf89                mmc_ApiStopReq_Null
                0xffffffff880bbfbd                mmc_SimClosedInd_Null
                0xffffffff880bc015                mmc_EstabReq_Null
                0xffffffff880bc075                mmc_RrCellInd_Null
                0xffffffff880bc1cd                mmc_InitNull
                0xffffffff880bc24d                mmc_AddCxNb
                0xffffffff880bc295                mmc_ReduceCxNb
                0xffffffff880bc2dd                mmc_CleanCxNb
                0xffffffff880bc2f9                mmc_StartLuReq
                0xffffffff880bc32d                mmc_StopLuReq
                0xffffffff880bc361                mmc_SendMMEstabErr
                0xffffffff880bc3d9                mmc_SdStopCnf
                0xffffffff880bc439                mmc_HandleOtherPD
                0xffffffff880bc4dd                mmc_ReleaseCM
                0xffffffff880bc575                mmc_SdMmStatus
                0xffffffff880bc5c5                mmc_CheckMbxForCellInd
                0xffffffff880bc671                mmc_SdSelfLocUp
                0xffffffff880bc6c1                mmc_SdLRStatus
                0xffffffff880bc78d                mmc_SendApiCnf
                0xffffffff880bc821                mmc_ReleaseSavedEstabReq
                0xffffffff880bc8dd                mmc_AbandonFOR
                0xffffffff880bc961                mmc_abort_LU
                0xffffffff880bca25                mmc_StopLocUp
                0xffffffff880bca7d                mmc_ActivateCnx
                0xffffffff880bcb15                mmc_AskForRrCx
                0xffffffff880bcb85                mmc_CheckEncode
                0xffffffff880bcbe5                mmc_HandleCMAbort
                0xffffffff880bcc21                mmc_HandlePaging
                0xffffffff880bcde5                mmc_CellIndGenProc
                0xffffffff880bce15                mmc_FillUpMobId
                0xffffffff880bcefd                mmc_BuildTmsiReallocCplt
                0xffffffff880bcf49                mmc_ResetLocUpParam
                0xffffffff880bd039                mmc_PrepareCmServReq
                0xffffffff880bd0c1                mmc_ImsiDetach
                0xffffffff880bd179                mmc_LocUpFailure
                0xffffffff880bd2bd                mmc_HandleT3212
                0xffffffff880bd429                mmc_LocUp
                0xffffffff880bd521                mmc_UpdRandAndRes
                0xffffffff880bd589                mmc_T3212Exp_WNkCmd
                0xffffffff880bd5d1                mmc_AbortReq_WNkCmd
                0xffffffff880bd651                mmc_HdleOtherPd_WNkCmd
                0xffffffff880bd665                mmc_CmEstabInd_WNkCmd
                0xffffffff880bd6b1                mmc_ApiStopReq_WNkCmd
                0xffffffff880bd701                mmc_SimClosedInd_WNkCmd
                0xffffffff880bd771                mmc_TWNKCExp_WNkCmd
                0xffffffff880bd79d                mmc_RrReleaseInd_WNkCmd
                0xffffffff880bd841                mmc_InitWNkCmd
                0xffffffff880bd8dd                mmc_T3212Exp_WNkRsp
                0xffffffff880bd92d                mmc_CmEstabInd_WNkRsp
                0xffffffff880bd949                mmc_HdleOtherPd_WNkRsp
                0xffffffff880bd969                mmc_ApiStopReq_WNkRsp
                0xffffffff880bda1d                mmc_ReleaseReq_WNkRsp
                0xffffffff880bda65                mmc_EstabReq_WNkRsp
                0xffffffff880bdad1                mmc_AbortReq_WNkRsp
                0xffffffff880bdb7d                mmc_CmServRej_WNkRsp
                0xffffffff880bdc5d                mmc_CmServAcc_WNkRsp
                0xffffffff880bdc89                mmc_CiphInd_WNkRsp
                0xffffffff880bdccd                mmc_LocUpRej_WNkRsp
                0xffffffff880bde4d                mmc_T3210Exp_WNkRsp
                0xffffffff880bde91                mmc_LocUpAcc_WNkRsp
                0xffffffff880be015                mmc_T3230Exp_WNkRsp
                0xffffffff880be059                mmc_ReleaseInd_WNkRsp
                0xffffffff880be105                mmc_InitWNkRsp
                0xffffffff880be159                mmc_T3212Exp_WRrC
                0xffffffff880be1a5                mmc_TDetachExp_WRrC
                0xffffffff880be1d5                mmc_PagingInd_WRrC
                0xffffffff880be231                mmc_RrConnectCnf_WRrC
                0xffffffff880be2a5                mmc_ApiStopReq_WRrC
                0xffffffff880be351                mmc_SimClosedInd_WRrC
                0xffffffff880be3f5                mmc_ReleaseReq_WRrC
                0xffffffff880be4a9                mmc_AbortReq_WRrC
                0xffffffff880be589                mmc_RrReleaseInd_WRrC
                0xffffffff880be711                mmc_RrCellInd_WRrC
                0xffffffff880beb91                mmc_InitWRrCx
                0xffffffff880bebe9                mmp_T3311Exp_Gene
                0xffffffff880bec05                mmp_T3302Exp_Gene
                0xffffffff880bec21                mmp_GprsPending_Gene
                0xffffffff880bec41                mmp_RlcSynchInd_Gene
                0xffffffff880bec59                mmp_TrsDoNothing
                0xffffffff880bec69                mmp_SmPdpCtxStatusInd_Gene
                0xffffffff880becd5                mmp_L3IDelSaveDataReq_Gene
                0xffffffff880bed29                mmp_LlcQueueCreateInd_Gene
                0xffffffff880bed85                mmp_mmcAbortCurProc_Gene
                0xffffffff880bedbd                mmp_PReleaseInd_Gene
                0xffffffff880bee39                mmp_RrSuspendReq_Gene
                0xffffffff880bee7d                mmp_TestModeCmd_Gene
                0xffffffff880bef05                mmp_LlcNewTlliInd_Gene
                0xffffffff880bef6d                mmp_ApiDetachReq_Gene
                0xffffffff880befa5                mmp_T3330Exp_Gene
                0xffffffff880befb9                mmp_T3310Exp_Gene
                0xffffffff880befcd                mmp_InitNdet
                0xffffffff880bf001                mmp_RrSuspendReq_Ndet
                0xffffffff880bf049                mmp_mmcAbortCurProc_Ndet
                0xffffffff880bf089                mmp_RrCellInd_Ndet
                0xffffffff880bf0c9                mmp_ApiDetachReq_Ndet
                0xffffffff880bf10d                mmp_RlcSynchInd_Ndet
                0xffffffff880bf191                mmp_ApiAttachReq_Ndet
                0xffffffff880bf1cd                mmp_PReleaseInd_NULL
                0xffffffff880bf20d                mmp_StartStack_Null
                0xffffffff880bf271                mmp_SimOpenInd_Null
                0xffffffff880bf315                mmp_ApiAttachReq_Null
                0xffffffff880bf411                mmp_RrCellInd_Null
                0xffffffff880bf4b5                mmp_InitNull
                0xffffffff880bf5a9                mmp_RlcSynchInd_PEND
                0xffffffff880bf625                mmp_RlcTReadyInd_PEND
                0xffffffff880bf639                mmp_mmcAbortCurProc_PEND
                0xffffffff880bf6bd                mmp_RrCellInd_PEND
                0xffffffff880bf741                mmp_SaveEvt_PEND
                0xffffffff880bf79d                mmp_SaveMsg_PEND
                0xffffffff880bf7e9                mmp_InitPIP
                0xffffffff880bf81d                mmp_SmNoNetrspInd_PIP
                0xffffffff880bf851                mmp_T3312Exp_PIP
                0xffffffff880bf8a1                mmp_TmsiReallocCmd_PIP
                0xffffffff880bf8bd                mmp_ApiAttachReq_PIP
                0xffffffff880bf911                mmp_RrSuspendReq_PIP
                0xffffffff880bf99d                mmp_mmcAbortCurProc_PIP
                0xffffffff880bfa91                mmp_Information_PIP
                0xffffffff880bfab5                mmp_PagingInd_PIP
                0xffffffff880bfac5                mmp_RlcSynchInd_PIP
                0xffffffff880bfb69                mmp_DetachAcc_PIP
                0xffffffff880bfbb1                mmp_ApiDetachReq_PIP
                0xffffffff880bfce9                mmp_T3321Exp_PIP
                0xffffffff880bfd65                mmp_RlcTReadyInd_PIP
                0xffffffff880bfd79                mmp_T3330Exp_PIP
                0xffffffff880bfdf5                mmp_RauRej_PIP
                0xffffffff880c0085                mmp_RauAcc_PIP
                0xffffffff880c080d                mmp_L3DataReq_PIP
                0xffffffff880c08a5                mmp_AuthAndCiphRej_PIP
                0xffffffff880c08b9                mmp_AuthAndCiphReq_PIP
                0xffffffff880c08f9                mmp_DetachReq_PIP
                0xffffffff880c0999                mmp_PReleaseInd_PIP
                0xffffffff880c0bd9                mmp_T3310Exp_PIP
                0xffffffff880c0c51                mmp_RrCellInd_PIP
                0xffffffff880c0fc9                mmp_AttachRej_PIP
                0xffffffff880c117d                mmp_HdleOtherPd_PIP
                0xffffffff880c1191                mmp_IdReq_PIP
                0xffffffff880c11d1                mmp_AttachAcc_PIP
                0xffffffff880c17f5                mmp_SmNoNetrspInd_REG
                0xffffffff880c1829                mmp_ApiAttachReq_REG
                0xffffffff880c18b9                mmp_mmcReStartPrevProc_Reg
                0xffffffff880c18f1                mmp_T3302Exp_Reg
                0xffffffff880c1979                mmp_PReleaseInd_Reg
                0xffffffff880c1a09                mmp_mmcAbortCurProc_Reg
                0xffffffff880c1a41                mmp_RlcSynchInd_Reg
                0xffffffff880c1ab5                mmp_Information_Reg
                0xffffffff880c1ac9                mmp_PagingInd_Reg
                0xffffffff880c1b01                mmp_DetachReq_Reg
                0xffffffff880c1b39                mmp_ApiDetachReq_REG
                0xffffffff880c1bd9                mmp_TmsiReallocCmd_Reg
                0xffffffff880c1d49                mmp_T3312Exp_Reg
                0xffffffff880c1e41                mmp_RlcTReadyInd_Reg
                0xffffffff880c1e55                mmp_L3DataReq_Reg
                0xffffffff880c1f15                mmp_AuthAndCiphRej_Reg
                0xffffffff880c1f29                mmp_AuthAndCiphReq_Reg
                0xffffffff880c1f3d                mmp_AttachAcc_REG
                0xffffffff880c1f59                mmp_RAUAcc_REG
                0xffffffff880c1f69                mmp_T3311Exp_Reg
                0xffffffff880c2019                mmp_IdReq_Reg
                0xffffffff880c202d                mmp_HdleOtherPd_Reg
                0xffffffff880c2041                mmp_RrCellInd_Reg
                0xffffffff880c248d                mmp_InitReg
                0xffffffff880c24f9                mmp_HdleGPRSTimer
                0xffffffff880c2529                mmp_SetStkSimCloseCnfToSend
                0xffffffff880c2549                mmp_SndRrMmpProcInd
                0xffffffff880c2579                mmp_SendSimCloseCnf
                0xffffffff880c25d1                mmp_SndRauStatus
                0xffffffff880c2645                mmp_SndStopCnf
                0xffffffff880c26a9                mmp_GetDetachOrigin
                0xffffffff880c2719                mmp_ChgReadyStateTo
                0xffffffff880c27a9                mmp_SndAbortInd
                0xffffffff880c27fd                mmp_SuspendLlc
                0xffffffff880c283d                mmp_HandleOtherPd
                0xffffffff880c28cd                mmp_SndLlcTriggerReq
                0xffffffff880c292d                mmp_ChkInitCellUpd
                0xffffffff880c2971                mmp_SndRrGprsReq
                0xffffffff880c29f1                mmp_HdleT3302
                0xffffffff880c2a31                mmp_BackInactif
                0xffffffff880c2a75                mmp_UpdRandAndRes
                0xffffffff880c2add                mmp_PlmnCmp
                0xffffffff880c2af1                mmp_T33x0ExpGene
                0xffffffff880c2b5d                mmp_WriteFileSim
                0xffffffff880c2c1d                mmp_EndOfDetach
                0xffffffff880c2de1                mmp_ResetGprsLociPar
                0xffffffff880c2ebd                mmp_ResumeOthSimLlc
                0xffffffff880c2f31                mmp_SuspendOthSimLlc
                0xffffffff880c2f9d                mmp_FwdL3DataReq
                0xffffffff880c3101                mmp_SndWaitingL3Data
                0xffffffff880c3175                mmp_ResumeLlc
                0xffffffff880c31e1                mmp_CheckEncode
                0xffffffff880c3339                mmp_SndStatus
                0xffffffff880c3395                mmp_SndDetachAcc
                0xffffffff880c33f1                mmp_GiveFPlmnPtr
                0xffffffff880c342d                mmp_InsFPlmn
                0xffffffff880c34a9                mmp_StopTim
                0xffffffff880c3541                mmp_AbortDetach
                0xffffffff880c358d                mmp_AbortRau
                0xffffffff880c35e9                mmp_AbortAttach
                0xffffffff880c3645                mmp_StartTim
                0xffffffff880c36f9                mmp_StartT3312
                0xffffffff880c3729                mmp_SndRluTReadyReq
                0xffffffff880c37c1                mmp_ClearReady
                0xffffffff880c37e9                mmp_HdlForceToStdby
                0xffffffff880c3845                mmp_StartDetach
                0xffffffff880c3a59                mmp_RauFailure
                0xffffffff880c3bc5                mmp_HdleRlcTReadyInd
                0xffffffff880c3c6d                mmp_StopAllTim
                0xffffffff880c3c95                mmp_HdleReadyTimer
                0xffffffff880c3d1d                mmp_HdleAuthCiphReq
                0xffffffff880c4319                mmp_HdleIdReq
                0xffffffff880c43e9                mmp_ComputeTlli
                0xffffffff880c44b1                mmp_DeriveTlli
                0xffffffff880c4569                mmp_InvalidSim
                0xffffffff880c45d1                mmp_HdleAuthCiphRej
                0xffffffff880c4611                mmp_AttFailure
                0xffffffff880c4745                mmp_StartRAUReq
                0xffffffff880c4a51                mmp_StartAttachReq
                0xffffffff880c4d7d                mmp_HdlePagingInd
                0xffffffff880c4e31                mmp_HdleDetachReq
                0xffffffff880c505d                pal_CheckImei
                0xffffffff880c5089                pal_GetFactoryImei
                0xffffffff880c50d5                pal_GetImei
                0xffffffff880c5115                pal_RegisterYourself
                0xffffffff880c5131                pal_SelectSwitch
                0xffffffff880c5135                pal_SetSimIndex
                0xffffffff880c5141                pal_SimClkInv
                0xffffffff880c5181                pal_SimSetEtuDuration
                0xffffffff880c51d5                pal_SetTS
                0xffffffff880c524d                pal_SimSetSimVoltage
                0xffffffff880c52e5                pal_SimSetClockStopMode
                0xffffffff880c5309                pal_EnableSimCard
                0xffffffff880c53b5                pal_SimInit
                0xffffffff880c5461                PM_CheckValidPowerOnVoltage
                0xffffffff880c57a5                pm_BattChargeRemind
                0xffffffff880c5bf5                pm_BatteryMonitorProc
                0xffffffff880c5c71                pm_ChargerHandler
                0xffffffff880c5c81                PM_GetBatteryInfo
                0xffffffff880c5d2d                pm_BatteryInit
                0xffffffff880c5e49                rfd_RegisterYourself
                0xffffffff880c5e71                rld_Parse
                0xffffffff880c5eb9                rld_ParseSignal
                0xffffffff880c5f1d                rld_ParseMsg
                0xffffffff880c5f89                rld_Init
                0xffffffff880c5ff1                rld_GiveDsc
                0xffffffff880c603d                rld_CheckBSN
                0xffffffff880c6071                transfer_bits
                0xffffffff880c62dd                rld_TestModeSet
                0xffffffff880c6311                save_Pdu_in_receive_window
                0xffffffff880c649d                rld_PurgeQ
                0xffffffff880c64b1                rld_RelInd
                0xffffffff880c6515                rld_ConInd
                0xffffffff880c65b1                rld_DataInd
                0xffffffff880c6f19                rlu_Parse
                0xffffffff880c6f89                rlu_ParseSignal
                0xffffffff880c6ff5                rlu_ParseMsg
                0xffffffff880c7065                rlu_Init
                0xffffffff880c7199                rlu_GiveDsc
                0xffffffff880c732d                rlu_TrsDoNothing
                0xffffffff880c7331                rlu_TrsSaveMsg
                0xffffffff880c7365                rluGene_TrsPurgeReq
                0xffffffff880c7391                rluGene_TrsPurgeDQInd
                0xffffffff880c73d9                rluGene_TrsTlliInd
                0xffffffff880c7429                rluGene_TrsTPurgeExp
                0xffffffff880c7485                rluGene_TrsTReadyReq
                0xffffffff880c750d                rluGene_TrsResumeReq
                0xffffffff880c7589                rluGene_TrsSuspendReq
                0xffffffff880c75f1                rluGene_TrsCellOptInd
                0xffffffff880c760d                rluGene_TrsTReady
                0xffffffff880c763d                rluGene_TrsRelInd
                0xffffffff880c7935                rluGene_TrsTxInd
                0xffffffff880c7c15                rluGene_TrsQDataReq
                0xffffffff880c7efd                rluNack_TrsAckNackInd
                0xffffffff880c7f55                rluNack_TrsRepeatReq
                0xffffffff880c806d                rlu_SndQDataReq
                0xffffffff880c80ad                rlu_SendMsg
                0xffffffff880c8171                rlu_PrepMsg
                0xffffffff880c81c1                rlu_SndContinueTx
                0xffffffff880c81dd                rlu_IsDiscardedId
                0xffffffff880c81f9                rlu_PrepDiscardMsg
                0xffffffff880c8231                rlu_PrepCsDiscard
                0xffffffff880c8291                rlu_ShortenTbf
                0xffffffff880c834d                rlu_UndoPduFromSdu
                0xffffffff880c8451                rlu_BackTrack
                0xffffffff880c8665                rlu_PurgeDQ
                0xffffffff880c86c1                rlu_InitEarlyRel
                0xffffffff880c870d                rlu_ExtendTbf
                0xffffffff880c8805                rlu_SndRrRelReq
                0xffffffff880c8835                rlu_SndRrConnectReq
                0xffffffff880c88ed                rlu_ConnectRr
                0xffffffff880c8921                rlu_StartTbf
                0xffffffff880c8969                rlu_StartTstTbf
                0xffffffff880c89b9                rlu_StartLlcTbf
                0xffffffff880c8a21                rlu_UpdTbfParams
                0xffffffff880c8ba9                rlu_TrsTxDiscardInd
                0xffffffff880c8c1d                rlu_TrsPurgeDQInd
                0xffffffff880c8c99                rlu_TrsT3182
                0xffffffff880c8cf1                rlu_TrsTxFillReq
                0xffffffff880c8dbd                rlu_TrsAckNackInd
                0xffffffff880c9189                rlu_TrsContResInd
                0xffffffff880c9225                TestMode_MMTestModeReq
                0xffffffff880c9251                TestMode_TrsConnectCnf
                0xffffffff880c92d9                TestMode_DataProcess
                0xffffffff880c93e5                rlu_GenerateTstSdu
                0xffffffff880c94b1                rlu_GenerateTstFlow
                0xffffffff880c95a1                rlu_StartNextSdu
                0xffffffff880c967d                rlu_InitCurPdu
                0xffffffff880c97a5                rlu_PrepCurPdu
                0xffffffff880c9a5d                rlu_BuildBlock
                0xffffffff880c9c05                rlu_TxPdu
                0xffffffff880c9de5                rlu_TxSduPart
                0xffffffff880c9e65                rlu_ResumeTx
                0xffffffff880c9ed5                rlu_PduShortBsnCmp
                0xffffffff880c9ee5                rlu_PduBsnCmp
                0xffffffff880c9ef1                rlu_PduStateCmp
                0xffffffff880c9efd                rlu_FlowCmp
                0xffffffff880c9f09                rlu_PduCvBsnCmp
                0xffffffff880c9f21                rlu_PduCvCmp
                0xffffffff880c9f35                rlu_SduPtrCmp
                0xffffffff880c9f41                rlu_IsFlowOk
                0xffffffff880c9f8d                rlu_UpdPanVars
                0xffffffff880ca001                rlu_LlcPduPurge
                0xffffffff880ca015                rlu_PduPurge
                0xffffffff880ca049                rlu_Need2StartTReady
                0xffffffff880ca085                rlu_IsSduTx
                0xffffffff880ca0c5                rlu_ComputeFlowTbc
                0xffffffff880ca15d                rlu_ComputeCV
                0xffffffff880ca1c9                rlu_IsWeakerOrEqFlow
                0xffffffff880ca20d                rlu_IsWeakerFlow
                0xffffffff880ca251                rlu_SndUlCongestInd
                0xffffffff880ca291                rlu_SyncMm
                0xffffffff880ca2e1                rlu_SndMmpTReadyInd
                0xffffffff880ca311                rlu_SendPdu
                0xffffffff880ca381                rlu_SetCurFlow
                0xffffffff880ca3c5                rlu_HasLlcPdus
                0xffffffff880ca409                rlu_HasSdusFromFlows
                0xffffffff880ca46d                rlu_FindFirstSduInFlows
                0xffffffff880ca505                rlu_NextSdu2Send
                0xffffffff880ca52d                rlu_SetTbfCause
                0xffffffff880ca56d                rlu_ComputeTbc
                0xffffffff880ca711                rlu_SaveSdu
                0xffffffff880ca745                rlu_SearchSduQ
                0xffffffff880ca781                rlu_SearchShortPduQ
                0xffffffff880ca7bd                rlu_SearchCvBsnPduQ
                0xffffffff880ca835                rlu_SearchNackedPdu
                0xffffffff880ca86d                rlu_SearchPduQ
                0xffffffff880ca8a9                rlu_SduFree
                0xffffffff880ca94d                rlu_FlowSduPurge
                0xffffffff880ca961                rlu_BuildSdu
                0xffffffff880ca9cd                rlu_CreateFlow
                0xffffffff880caa5d                rlu_RetrieveLlcPdus
                0xffffffff880cacc9                rlu_ResetSdus
                0xffffffff880cad25                rlu_CleanCtx
                0xffffffff880caee1                rlu_RmvAllLlcPdus
                0xffffffff880caf6d                rlu_SearchNextFlow
                0xffffffff880cafb5                rlu_SearchCvPduQ
                0xffffffff880cb001                rlu_FlowPurge
                0xffffffff880cb045                rlu_RmvFromFlow
                0xffffffff880cb0f1                rlu_SduPurge
                0xffffffff880cb111                rlu_SduClean
                0xffffffff880cb145                rlu_RmvAllSdusFromFlows
                0xffffffff880cb1f1                rluVoid_TrsQDataReq
                0xffffffff880cb211                rluVoid_TrsResumeReq
                0xffffffff880cb2b1                rluVoid_TrsTestModeReq
                0xffffffff880cb451                rluWcon_TrsContResInd
                0xffffffff880cb485                rluWcon_TrsConnectCnf
                0xffffffff880cb529                rluWrls_TrsConnectCnf
                0xffffffff880cb571                rluWrls_TrsQDataReq
                0xffffffff880cb719                rr_ProcessEvt
                0xffffffff880cb7d9                rr_Parse
                0xffffffff880cb8a9                rr_ParseSignal
                0xffffffff880cb96d                rr_ParseMsg
                0xffffffff880cba11                rr_Init
                0xffffffff880cba99                rr_GiveMacDataIndDsc
                0xffffffff880cbb39                rr_GiveL1DataIndDsc
                0xffffffff880cbc1d                rr_GiveLapDataDsc
                0xffffffff880cbe65                rr_GiveDsc
                0xffffffff880ccbd1                rr_TrsnEmpty
                0xffffffff880ccbd5                rr_DispatchCellRsp
                0xffffffff880ccc21                rr_DispatchCon
                0xffffffff880ccc79                rr_TrsnSaveEvt
                0xffffffff880ccc99                rr_TrsnSaveMsg
                0xffffffff880cccc9                rri_ImsiMod1000
                0xffffffff880ccd25                rr_DecodeDataLength
                0xffffffff880ccd4d                rri_UpdSimData
                0xffffffff880ccdb5                rri_ReqSimData
                0xffffffff880cce0d                rr_ReadSimFileSt
                0xffffffff880cd0f9                rri_ReqSimStatus
                0xffffffff880cd131                rri_SavUSimData
                0xffffffff880cd451                rri_SavSimData
                0xffffffff880cd785                rr_NewSimRecord
                0xffffffff880cd7c9                rr_NewSimData
                0xffffffff880cd80d                rr_ArfcnCmp
                0xffffffff880cd829                rr_CheckCountry
                0xffffffff880cd849                rr_CheckPlmn
                0xffffffff880cd875                rr_GetS
                0xffffffff880cd8a5                rr_PrepLapRrIl
                0xffffffff880cd8d1                rr_ComputeBsCcChansN
                0xffffffff880cd901                rr_SetPag
                0xffffffff880cd9d5                rri_CellCmp
                0xffffffff880cd9e5                rri_FindScanCellByArfcn
                0xffffffff880cda19                rri_SetScanCellNull
                0xffffffff880cda45                rri_HasScanCell
                0xffffffff880cda65                rri_IsScanCell
                0xffffffff880cda89                rri_NeedWaitScanResult
                0xffffffff880cdab1                rr_ExistTimer
                0xffffffff880cdadd                rr_StopAllTimer
                0xffffffff880cdb99                rr_StopTimer
                0xffffffff880cdbc9                rr_StartTimer
                0xffffffff880cdc09                rri_FindCell
                0xffffffff880cdc61                rr_CleanCa
                0xffffffff880cdca1                rr_CtxClean
                0xffffffff880cdcdd                rr_L1UpdRachParam
                0xffffffff880cddb1                rr_SndStatus
                0xffffffff880cde01                rr_StopL1Chans
                0xffffffff880cdead                rr_DumpIlIn
                0xffffffff880cdf49                rr_SndL1CcchReq
                0xffffffff880cdff5                rr_SetPPag
                0xffffffff880ce221                rr_SndL1PccchReq
                0xffffffff880ce2cd                rr_UpdateMsCm2
                0xffffffff880ce3c9                rr_UpdateRrMsRACap
                0xffffffff880ce895                rr_UpdateMsRACap
                0xffffffff880ced65                rr_ComputeMsCm3
                0xffffffff880cf07d                rr_ComputeMsClassMark
                0xffffffff880cf1d1                rrd_FreeAccess
                0xffffffff880cf201                rrd_FreeL3InitMsg
                0xffffffff880cf231                rrd_Init
                0xffffffff880cf321                rrd_InitAccess
                0xffffffff880cf399                GROUP_rrd_FREE_TDchD_Data
                0xffffffff880cf39d                GROUP_rrd_FREE_TmmDl_Data
                0xffffffff880cf3a1                GROUP_rrd_SETPRESENT_TmmDl_Data
                0xffffffff880cf3a5                GROUP_rrd_FREE_TccDl_Data
                0xffffffff880cf3a9                GROUP_rrd_SETPRESENT_TccDl_Data
                0xffffffff880cf3ad                GROUP_rrd_FREE_TCcch_Data
                0xffffffff880cf3b1                GROUP_rrd_SETPRESENT_TCcch_Data
                0xffffffff880cf3f5                GROUP_rrd_SETPRESENT_TDchD_Data
                0xffffffff880cf47d                rrd_SetDecode_Ccch
                0xffffffff880cf549                rrd_SetDecode_DchD
                0xffffffff880cf6f1                rrd_InitWrsl
                0xffffffff880cf701                rrd_InitCond
                0xffffffff880cf7cd                rrd_InitVoid
                0xffffffff880cfaad                rrdGene_TrsT3122Exp
                0xffffffff880cfaed                rrdGene_ConfliTrsConReq
                0xffffffff880cfbe1                rrd_JudgeConfliTrsConReq
                0xffffffff880cfe85                rrdGene_TrsConReq
                0xffffffff880cfff5                rrdGene_TrsAbortReq
                0xffffffff880d0039                rrdGene_TrsReselGrant
                0xffffffff880d0061                rrd_SaveReqRef
                0xffffffff880d009d                rrd_IsTimerExpEvtinMailbox
                0xffffffff880d00b9                rrd_SndRrNotCon
                0xffffffff880d00f5                rrd_SndRrCon
                0xffffffff880d0131                rrd_L1RachOff
                0xffffffff880d015d                rrd_Acci2Wcni
                0xffffffff880d01cd                rrd_FrqListOk
                0xffffffff880d0275                rrd_IsSAccClassOK
                0xffffffff880d02f5                rrd_SimAccCtrlOK
                0xffffffff880d0389                rrd_EndRrAccessNormal
                0xffffffff880d0499                rrd_EndRrAccess
                0xffffffff880d0541                rrd_ProcessImmAss
                0xffffffff880d07f9                rrd_EndRach
                0xffffffff880d0935                rrd_StartRach
                0xffffffff880d0a79                rrd_RequestResel
                0xffffffff880d0bfd                rrd_IsRefForMe
                0xffffffff880d0ce1                rrd_IsImmAssRejForMe
                0xffffffff880d0db1                rrdVoid_TrsAbortReq
                0xffffffff880d0dd5                rrdWrsl_TrsPCCOResult
                0xffffffff880d0ef9                rrgAccI_TrsImmAssExt
                0xffffffff880d0fa9                rrgCond_TrsL1FrqRdfCnf
                0xffffffff880d0fc9                rrgCond_TrsKcInd
                0xffffffff880d0fe5                rrgCond_TrsDaiTest
                0xffffffff880d106d                rrgCond_TrsFrqRdf
                0xffffffff880d1175                rrgCond_TrsLapEstablishCnf
                0xffffffff880d11c9                rrgCond_TrsOpenTchLoop
                0xffffffff880d124d                rrgCond_TrsCloseTchLoop
                0xffffffff880d130d                rrgCond_TrsLapReleaseInd
                0xffffffff880d1339                rrgCond_TrsCmkEnq
                0xffffffff880d134d                rrgCond_TrsChnMod
                0xffffffff880d1521                rrgCond_TrsCipModCmd
                0xffffffff880d16cd                rrgCond_TrsDataReq
                0xffffffff880d1781                rrgCond_TrsChanRel
                0xffffffff880d1809                rrgCond_TrsAssCmd
                0xffffffff880d1885                rrgCond_TrsHovCmd
                0xffffffff880d19bd                rrg_FreeL1Con
                0xffffffff880d1a09                rrg_SetCurrFrqParam
                0xffffffff880d1a45                rrg_DecFrqChnSeq
                0xffffffff880d1a8d                rrg_DecChanType
                0xffffffff880d1b11                rrg_DecAMRCfg
                0xffffffff880d1c65                rrg_DecMa
                0xffffffff880d1ccd                rrg_PutCellOptions
                0xffffffff880d1d0d                rrg_InitCnx
                0xffffffff880d1d19                rrg_LapSapiChan
                0xffffffff880d1d39                rrg_TrsLapEstablishInd
                0xffffffff880d1d4d                rrg_IsChanModeSupported
                0xffffffff880d1db1                rrg_UpdateNV_SD
                0xffffffff880d1e71                rrg_TrcAMRCfg
                0xffffffff880d1ee1                rr_BlackArfcnListExp
                0xffffffff880d1f41                rr_RemoveFromBlackArfcnlist
                0xffffffff880d1fe9                rr_FindCellInPreBlackList
                0xffffffff880d2075                rr_BeInBlackArfcnlist
                0xffffffff880d20ed                rr_Insert2BlackArfcnlist
                0xffffffff880d227d                rrg_TrsL3DataInd
                0xffffffff880d22b1                rrg_ForwardDataReq
                0xffffffff880d2301                rrg_SndL1CellOpt
                0xffffffff880d2345                rrg_SndChanMode2Api
                0xffffffff880d2399                rrg_SndChanMode2Cc
                0xffffffff880d23c9                rrg_SndMmCmkInd
                0xffffffff880d23fd                rrg_SndMmRelInd
                0xffffffff880d2465                rrg_SndCellChangeInd
                0xffffffff880d24a1                rrg_LapSuspend
                0xffffffff880d24d9                rrg_PrepL1ConnectReq
                0xffffffff880d250d                rrg_SuspendGprs
                0xffffffff880d25b5                rrg_SndCmChange
                0xffffffff880d267d                rrg_SndHovFail
                0xffffffff880d26f5                rrg_LapReconnect
                0xffffffff880d2779                rrg_LapResume
                0xffffffff880d2889                rrg_StoreSi6
                0xffffffff880d2b11                rrg_TrsSysInf6
                0xffffffff880d2b3d                rrg_RetrieveCa
                0xffffffff880d2bb5                rrg_SaveL1Param
                0xffffffff880d2c31                rrg_DecideHov
                0xffffffff880d2c91                rrg_LapRelease
                0xffffffff880d2d3d                rrd_GiveUpL1Con
                0xffffffff880d2d89                rrg_SavCA
                0xffffffff880d2e75                rrg_TrcL1ConReq
                0xffffffff880d2fbd                rrg_L1Release
                0xffffffff880d3001                rrg_EndRrConnection
                0xffffffff880d3061                rrg_SortL1CnxMas
                0xffffffff880d3099                rrg_PrepHovCmd
                0xffffffff880d35bd                rrg_PrepAssCmd
                0xffffffff880d39d5                rrg_PrepImmAss
                0xffffffff880d3cc1                rrg_AccCtrlOK
                0xffffffff880d3d4d                rrgVoid_TrsStartAccess
                0xffffffff880d3e2d                rrgVoid_TrsConReq
                0xffffffff880d3eb1                rrgWcnI_TrsLapReconnectCnf
                0xffffffff880d3ec5                rrg_Wcni_TrsDataReq
                0xffffffff880d3ee5                rrgWcnI_TrsLapReconnectFailInd
                0xffffffff880d3ef5                rrgWcnI_TrsL1ErrorInd
                0xffffffff880d3f05                rrgWcnI_TrsLapEstablishFailInd
                0xffffffff880d3f69                rrgWcnI_TrsLapEstablishCnf
                0xffffffff880d3fe1                rrgWcnI_TrsL1ConnectCnf
                0xffffffff880d4131                rrgWcnN_TrsLapReleaseInd
                0xffffffff880d4175                rrgWcnN_TrsLapResumeCnf
                0xffffffff880d41b1                rrgWcnN_TrsPhyInfo
                0xffffffff880d4219                rrgWcnN_TrsDataReq
                0xffffffff880d4251                rrgWcnN_ResumeInitial
                0xffffffff880d4375                rrgWcnN_TrsL1ErrorInd
                0xffffffff880d43d9                rrgWcnN_TrsL1ConnectCnf
                0xffffffff880d44a9                rrgWrls_TrsL1ErrorInd
                0xffffffff880d44b9                rrgWrls_TrsLapReleaseInd
                0xffffffff880d4509                rri_EnterResel
                0xffffffff880d454d                rri_EnterCamp
                0xffffffff880d45b1                rri_ForwardPagExp
                0xffffffff880d45c5                rri_NextSynchro
                0xffffffff880d45fd                rri_CSClean
                0xffffffff880d4849                rri_TestMode
                0xffffffff880d4889                rri_C1BCrit
                0xffffffff880d48d5                rri_CheckZones
                0xffffffff880d495d                rri_C1Eval
                0xffffffff880d4aed                rri_TrsnPnltyExp
                0xffffffff880d4b01                rri_TrsnUpdGprsWanted
                0xffffffff880d4b15                rri_TrsnPlmnAccept
                0xffffffff880d4b29                rri_TrsnSynchrFound
                0xffffffff880d4b49                rri_TrsnRstConState
                0xffffffff880d4b5d                rri_TrsnCellRsp
                0xffffffff880d4b7d                rriCGene_TrsnFreshSiExp
                0xffffffff880d4b95                rri_TrsnNmoCfg
                0xffffffff880d4bc9                rri_TrsnNoRetExp
                0xffffffff880d4c01                rriCGene_TrsnCbchReq
                0xffffffff880d4c85                rri_TrsnPccoComplete
                0xffffffff880d4cc5                rri_TrsnPccoInd
                0xffffffff880d4d69                rri_TrsnPmo
                0xffffffff880d4de1                rri_TrsnGprsReq
                0xffffffff880d4e7d                rriCCamped_TrsnFreshSiExp
                0xffffffff880d4fc9                rri_TrsnCellChangeInd
                0xffffffff880d4fe9                rri_TrsnExtMeasOrd
                0xffffffff880d5011                rri_TrsnSysInf5T
                0xffffffff880d5039                rri_TrsnSysInf5B
                0xffffffff880d5065                rri_TrsnSysInf5N
                0xffffffff880d5091                rriCResel_TrsnNotConInd
                0xffffffff880d50b5                rriCCamped_TrsnNonDrxExp
                0xffffffff880d50e1                rriCGene_TrsnNonDrxExp
                0xffffffff880d50f5                rriCCamped_TrsnMmpProcInd
                0xffffffff880d5131                rriCGene_TrsnMmpProcInd
                0xffffffff880d5151                rriCTransf_TrsnNotConInd
                0xffffffff880d5201                rriCCamped_TrsnNotConInd
                0xffffffff880d5249                rriCconn_TrsnNotConInd
                0xffffffff880d533d                rri_TrsnStopScan
                0xffffffff880d5351                rri_TrsnConnectedInd
                0xffffffff880d53dd                rriCGene_TrsnMmReadyStInd
                0xffffffff880d5421                rri_TrsnReselection
                0xffffffff880d5451                rri_TrsnBaComplete
                0xffffffff880d54dd                rri_TrsnNcMonitor
                0xffffffff880d5575                rri_TrsnLookBestNear
                0xffffffff880d5745                rri_TrsnIdleMonitor
                0xffffffff880d5841                rri_TrsnSaveMonitor
                0xffffffff880d5895                rri_TrsnConnMonitor
                0xffffffff880d58e9                rri_TrsnForwardPaging
                0xffffffff880d5991                rri_TrsnSavePaging
                0xffffffff880d5a2d                rri_TrsnLookSysInfo
                0xffffffff880d5c9d                rri_TrsnEndCoVerify
                0xffffffff880d5e29                rri_TrsnReselVerify
                0xffffffff880d6119                rri_TrsnRVerifNoRetExp
                0xffffffff880d6161                rri_TrsnDoSearch
                0xffffffff880d6329                rri_TrsnSelecVerify
                0xffffffff880d6571                rri_TrsnDoInitSearch
                0xffffffff880d65bd                rriCResel_TrsnSynchNeighNotFound
                0xffffffff880d66ad                rri_TrsnSynchNeighFound
                0xffffffff880d6869                rri_TrsnStartSelection
                0xffffffff880d6915                rri_TrsnStartScan
                0xffffffff880d69e5                rri_TrsnPlmnUpdte
                0xffffffff880d6a75                rri_TrsnPlmnScan
                0xffffffff880d6ae9                rri_TrsnPowerScan_Null
                0xffffffff880d6b81                rri_TrsnPlmnSearch
                0xffffffff880d6cc5                rri_TrsnPlmnChge
                0xffffffff880d6e51                rriCResel_TrsnNonDrxExp
                0xffffffff880d6e85                rri_TrsnAsleepExp
                0xffffffff880d6ee5                rri_TrsnReinit
                0xffffffff880d6f61                rri_TrsnL1ErrorInd
                0xffffffff880d70ad                rri_TrsnSynchNeighNotFound
                0xffffffff880d71dd                rri_TrsnPlmnReFresh
                0xffffffff880d725d                rri_TrsnPowerRsp_Null
                0xffffffff880d72c1                rri_TrnsGuardRslExp
                0xffffffff880d7359                rri_SkipCbchCfg
                0xffffffff880d7379                rri_StoreCellSelecParam
                0xffffffff880d7405                rri_DispSi3_4RO
                0xffffffff880d74b9                rri_StoreRachCtrlParam
                0xffffffff880d7591                rri_StoreFrqList
                0xffffffff880d7645                rri_NewCbchCfg
                0xffffffff880d76ad                rri_SysScheduleOnMain
                0xffffffff880d7781                rri_StoreSubBaL
                0xffffffff880d7811                rri_StoreSi25T
                0xffffffff880d78c5                rri_StoreSi25B
                0xffffffff880d79cd                rri_StoreSi25N
                0xffffffff880d7b61                rri_StoreSi1
                0xffffffff880d7d95                rri_StoreRtdL
                0xffffffff880d7f51                rri_StoreBsicL
                0xffffffff880d809d                rri_StoreRepPrio
                0xffffffff880d8145                rri_StoreGprsMeas
                0xffffffff880d83fd                rri_StoreNcMeasParams
                0xffffffff880d85bd                rri_UpdtS2QInst
                0xffffffff880d8725                rri_StoreSi2Q
                0xffffffff880d87f5                rri_StoreSi2QInd
                0xffffffff880d88cd                rri_StoreGprsInd
                0xffffffff880d8a39                rri_StoreEcsWhere
                0xffffffff880d8ae9                rri_StoreSi2Ter
                0xffffffff880d8b85                rri_StoreSiPsi13
                0xffffffff880d8f89                rri_StoreSi13
                0xffffffff880d8fd9                rri_StoreCbchCfg
                0xffffffff880d9191                rri_StoreOPtResel
                0xffffffff880d92e9                rr_StoreSi4Ro
                0xffffffff880d935d                rri_StoreSi7_8
                0xffffffff880d9399                rri_StoreSi4
                0xffffffff880d9501                rr_StoreSi3Ro
                0xffffffff880d958d                rri_StoreSi3
                0xffffffff880d9725                rri_StoreBsi
                0xffffffff880d9a2d                GROUP_rri_FREE_TDchD_Data
                0xffffffff880d9a31                GROUP_rri_SETPRESENT_TDchD_Data
                0xffffffff880d9a35                GROUP_rri_FREE_TmmDl_Data
                0xffffffff880d9a39                GROUP_rri_SETPRESENT_TmmDl_Data
                0xffffffff880d9a3d                GROUP_rri_FREE_TccDl_Data
                0xffffffff880d9a41                GROUP_rri_SETPRESENT_TccDl_Data
                0xffffffff880d9a45                GROUP_rri_FREE_TCcch_Data
                0xffffffff880d9a49                GROUP_rri_SETPRESENT_TCcch_Data
                0xffffffff880d9a4d                rri_InstReceived
                0xffffffff880d9a59                rri_CheckInst
                0xffffffff880d9ac9                rri_ResetPSi5Info
                0xffffffff880d9ae5                rri_ResetSi2QInfo
                0xffffffff880d9b01                rri_SaveInst
                0xffffffff880d9b39                rri_ResetPSi3Info
                0xffffffff880d9b89                rri_ResetPmoInfo
                0xffffffff880d9bd9                rri_ResetPSi2Info
                0xffffffff880d9c21                rri_InitPsiInst
                0xffffffff880d9c79                rri_NewSetOfInst
                0xffffffff880d9cb9                rri_NextInst
                0xffffffff880d9d15                rri_SaveSyncMode
                0xffffffff880d9d3d                rri_BeInBlackList
                0xffffffff880d9d8d                rri_EnhCmp
                0xffffffff880d9da9                rri_IsInvBsicSeen
                0xffffffff880d9e01                rri_GetNcMonResults
                0xffffffff880d9e9d                rri_DisplayBlackList
                0xffffffff880d9f15                rri_UpdateBlackList
                0xffffffff880d9f71                rri_IsPermitted
                0xffffffff880d9fb1                rri_DoExtReport
                0xffffffff880da091                rri_DoNormReport
                0xffffffff880da281                rri_SendQualReport
                0xffffffff880da2fd                rri_SaveQualMod
                0xffffffff880da335                rri_SendL1AdjCReport
                0xffffffff880da365                rri_TrsnSendAdjCReportTimExp
                0xffffffff880da379                rri_DoPckReport
                0xffffffff880da6bd                rri_DoEnhReport
                0xffffffff880da95d                rri_GetItemInBlackList
                0xffffffff880da999                rri_TakeDynMeasPar
                0xffffffff880da9e9                rri_RetrvPsi5Params
                0xffffffff880daa4d                rri_PutDynMeasPar
                0xffffffff880daa9d                rri_SavePsi5Params
                0xffffffff880daaf9                rri_EnhRepPossible
                0xffffffff880dab45                rri_BandSubSynchro
                0xffffffff880dac41                rri_FetchSynchro
                0xffffffff880dace5                rri_MonAddSynchro
                0xffffffff880dad9d                rri_MonDistribute
                0xffffffff880dae49                rri_GetMonResults
                0xffffffff880db06d                rri_NewReportable
                0xffffffff880db10d                rri_MonParse
                0xffffffff880db2c5                rri_GetOtherBands
                0xffffffff880db329                rri_HandleNCMonitorInd
                0xffffffff880db4a5                rri_SendAdjCReport
                0xffffffff880db5fd                rri_SaveAdjCMod
                0xffffffff880db655                rri_SendCurCReport
                0xffffffff880db9a9                rri_HandleMonitorInd2
                0xffffffff880dbc19                rri_SaveCurCMod
                0xffffffff880dbc4d                rri_ActOrderMeasPar
                0xffffffff880dbce1                rri_ResetPccoInfo
                0xffffffff880dbd1d                rri_CheckPcco
                0xffffffff880dbe7d                rri_ResetNcMeasPar
                0xffffffff880dbead                rri_UpdL1BcchMode
                0xffffffff880dbef1                rri_ListenToBroadCast
                0xffffffff880dbf6d                rri_GoPsPag
                0xffffffff880dc109                rri_GoCsPag
                0xffffffff880dc1d9                rri_UpdL1PagCfg
                0xffffffff880dc215                rri_ListenToPag
                0xffffffff880dc265                rri_GoIdle
                0xffffffff880dc295                rri_WhichPsi
                0xffffffff880dc2ed                rri_SetNeedPTcInfo
                0xffffffff880dc391                rri_ResetBaRcvPTcInfo
                0xffffffff880dc3b9                rri_PrepCompletePBcch
                0xffffffff880dc3d5                rri_SetNewNeedPsi
                0xffffffff880dc449                rri_ResetNeedPTcInfo
                0xffffffff880dc47d                rri_StopPBcch
                0xffffffff880dc48d                rri_SendL1PBcchCfg
                0xffffffff880dc665                rri_Switch2PBcch
                0xffffffff880dc6ed                rri_RefreshPBcchCfg
                0xffffffff880dc749                rri_StartPBcch
                0xffffffff880dc7c9                rri_ReselGetFromSet
                0xffffffff880dc845                rri_InitNCellParam
                0xffffffff880dc865                rri_Skip3GNCellDesc
                0xffffffff880dcbe1                rri_SkipLsaParams
                0xffffffff880dcc61                rri_SkipExtMeasParStruct
                0xffffffff880dcda5                rri_StoreDyn98AddMeasPar
                0xffffffff880dd1f9                rri_StoreGalCellSelecParam
                0xffffffff880dd375                rri_StoreServCellParam
                0xffffffff880dd4d9                rri_StoreAdditionalPsiMsg
                0xffffffff880dd5bd                rri_StoreCaLists
                0xffffffff880dd665                rri_StoreNonGprsCellOpt
                0xffffffff880dd96d                rri_StorePccchOrgParams
                0xffffffff880ddadd                rri_StoreCellSelectStruct
                0xffffffff880ddd7d                rri_StoreNCP2PropL
                0xffffffff880ddfbd                rri_StoreRmvFrqL
                0xffffffff880de055                rri_StoreNeighBParamset
                0xffffffff880de3a1                rri_StorePsi13
                0xffffffff880de3dd                rri_StorePsi5
                0xffffffff880de8ed                rri_StoreNCP2RepeatStruct
                0xffffffff880de9bd                rri_StoreNCellParam2Struct
                0xffffffff880deafd                rri_StoreGlbPwrCtrlPar
                0xffffffff880decad                rri_NCP2ToNCellPar2L
                0xffffffff880deedd                rri_AllocNCellParElem
                0xffffffff880def39                rri_StoreAddFrqLStruct
                0xffffffff880df191                rri_StoreDynNcMeasPars
                0xffffffff880df321                rri_StorePcco
                0xffffffff880df459                rri_StorePmo
                0xffffffff880df595                rri_StoreNCellParamStruct
                0xffffffff880df795                rri_StorePsi3
                0xffffffff880df8dd                rri_NCP2Free
                0xffffffff880df981                rri_StorePsi3Bis
                0xffffffff880dfbc1                rri_StorePccchDscLists
                0xffffffff880dfec5                rri_StoreCellIdentification
                0xffffffff880e0069                rri_StorePRachCtrlParams
                0xffffffff880e03a1                rri_StoreGprsMaLists
                0xffffffff880e0449                rri_StoreRefFreqLists
                0xffffffff880e0571                rri_StorePsi2
                0xffffffff880e07e5                rri_StoreGprsCellOptIE
                0xffffffff880e0bc1                rri_StorePsi1
                0xffffffff880e0f55                rri_BuildGprsMas
                0xffffffff880e1025                rri_StorePsi
                0xffffffff880e123d                rri_plmnIsEHplmn
                0xffffffff880e12ad                rri_FindPlmn
                0xffffffff880e12f5                rri_HigherPrio
                0xffffffff880e133d                rri_InvalidPlmn
                0xffffffff880e1359                rri_LaiCmp
                0xffffffff880e136d                rri_PlmnCmp
                0xffffffff880e1381                rri_SetReqBand
                0xffffffff880e146d                rri_EndPSelProc
                0xffffffff880e14e1                rri_DispBand
                0xffffffff880e1529                rri_InsertFPlmnCheck
                0xffffffff880e156d                rri_AddPSelProc
                0xffffffff880e15d5                rri_PlmnPurge
                0xffffffff880e15e9                rri_FirstPlmn
                0xffffffff880e1635                rri_CopyPlmnL
                0xffffffff880e16c1                rri_SendSearchPlmn
                0xffffffff880e1725                rri_SearchFirstPlmn
                0xffffffff880e1765                rri_AddAvailCell
                0xffffffff880e182d                rri_GiveAPlmnPtr
                0xffffffff880e1869                rri_MakeWPlmnL
                0xffffffff880e19cd                rri_InsAvailPlmn
                0xffffffff880e1a69                rri_GiveFPlmnPtr
                0xffffffff880e1ac5                rri_NextPlmn
                0xffffffff880e1b9d                rri_RmvFPlmn
                0xffffffff880e1be5                rri_InsFPlmn
                0xffffffff880e1c79                rri_GiveFLaiRegProPtr
                0xffffffff880e1cdd                rri_InsFLaiRegPro
                0xffffffff880e1d41                rri_GiveFLaiPtr
                0xffffffff880e1da5                rri_CheckLai
                0xffffffff880e1dbd                rri_InsFLai
                0xffffffff880e1e21                rri_FPlmnQ2L
                0xffffffff880e1edd                rri_DelAPlmnQ
                0xffffffff880e1f15                rri_PSClean
                0xffffffff880e1f79                rri_GoNoSvce
                0xffffffff880e201d                rri_NextOrNoSvce
                0xffffffff880e2169                rri_TrsnPNULL_SimCloseInd
                0xffffffff880e217d                rri_NwPlmnListReq
                0xffffffff880e21cd                rri_CellListReq
                0xffffffff880e221d                rri_TrsnUpdateMsRACap
                0xffffffff880e2231                rri_TrsnEmptyList
                0xffffffff880e2245                rri_TrsnDenyList
                0xffffffff880e2259                rri_TrsnPsCon
                0xffffffff880e22c9                rr_StartLTDTimer
                0xffffffff880e2331                rri_TranPNULL_LocationLockTim
                0xffffffff880e2351                rri_TrsnSimAwake
                0xffffffff880e2385                rri_TrsnNSvcTimExp
                0xffffffff880e23cd                rri_TrsnPlmnLost
                0xffffffff880e2429                rri_TrsnScanHPlmn
                0xffffffff880e2475                rri_TrsnLtdSvcTimExp
                0xffffffff880e2489                rri_TrsnNwListReq
                0xffffffff880e249d                rri_TrsnRaUpdStaConn
                0xffffffff880e24d5                rri_TrsnRaUpdSta
                0xffffffff880e2551                rri_TrsnDetectMBS
                0xffffffff880e2585                rri_TrsnSelMode
                0xffffffff880e25b9                rri_TrsnSelReq
                0xffffffff880e262d                rri_TrsnReselReq
                0xffffffff880e268d                rri_TrsnLocUpSta
                0xffffffff880e2a39                rri_TrsnLocUpStaConn
                0xffffffff880e2ac5                rri_TrsnPlmnEndCo
                0xffffffff880e2b65                rri_TrsnPSimClosedInd
                0xffffffff880e2ba1                rri_TrsnChgeSPlmn
                0xffffffff880e2c7d                rri_TrsnUpdtSPlmn
                0xffffffff880e2cf9                rri_TrsnPNULL_SimOpenInd
                0xffffffff880e2e0d                rri_TrsnPSimOpenInd
                0xffffffff880e2f49                rri_TrsnNwListAbortReq
                0xffffffff880e2f79                rri_TrsnAPlmnListDone
                0xffffffff880e300d                rri_PwcsTrsnNewAvailPlmn
                0xffffffff880e30f5                rri_TrsnNewAvailPlmn
                0xffffffff880e31dd                rri_TrsnStartReq
                0xffffffff880e3375                rri_TrsnStopReq
                0xffffffff880e3411                rri_TrsnPlmnNotFound
                0xffffffff880e34cd                rri_TrsnPlmnFound
                0xffffffff880e36a9                rri_RecntRslExp
                0xffffffff880e36bd                rri_C31Eval
                0xffffffff880e36fd                rri_CheckStartPnltyTimer
                0xffffffff880e3771                rri_ReqReselGrant
                0xffffffff880e37c9                rri_HandoverInd
                0xffffffff880e38d5                rri_RetOldMain
                0xffffffff880e397d                rri_NetOrder
                0xffffffff880e3ae9                rri_StronguestRE
                0xffffffff880e3b69                rri_GiveStronguest
                0xffffffff880e3bc5                rri_SameArea
                0xffffffff880e3c15                rri_C232Eval
                0xffffffff880e3d11                rri_RankCell
                0xffffffff880e3e59                rri_BestC232
                0xffffffff880e3fd1                rri_GiveReselCell
                0xffffffff880e404d                rri_PreResel
                0xffffffff880e414d                rri_Reselection
                0xffffffff880e4349                rri_AddList
                0xffffffff880e4399                rri_SetARssiL
                0xffffffff880e4431                rri_RssiCmp
                0xffffffff880e444d                rri_IsStored
                0xffffffff880e447d                rri_BoostStored
                0xffffffff880e44d1                rri_ValidCells
                0xffffffff880e4521                rri_CopyList
                0xffffffff880e4545                rri_LeftShift
                0xffffffff880e4581                rri_NoiseKnown
                0xffffffff880e45c5                rri_ReOrderARssi
                0xffffffff880e469d                rri_DispRssi
                0xffffffff880e4715                rri_GiveStopIdx
                0xffffffff880e492d                rri_OrderARssi
                0xffffffff880e4a0d                rri_SndARssiL
                0xffffffff880e4a51                rri_EndScan
                0xffffffff880e4af5                rri_VerifyScan
                0xffffffff880e4b31                rri_DoScan
                0xffffffff880e4d21                rri_CellSleepIncr
                0xffffffff880e4d51                rri_ResetXcv
                0xffffffff880e4d79                rri_RrWantsCbch
                0xffffffff880e4d91                rri_IsChinaMobile
                0xffffffff880e4e21                rri_UpdNonDrxMode
                0xffffffff880e4e81                rri_StoreBaLToCsw
                0xffffffff880e4f41                rri_SndPccoResult
                0xffffffff880e4f85                rri_SndPlmnNasUpd
                0xffffffff880e4fd9                rri_SndPlmnFound
                0xffffffff880e5019                rri_ClearRmvNcFrqL
                0xffffffff880e5039                rri_ClearNCellParam
                0xffffffff880e5079                rri_InitVar
                0xffffffff880e52b5                rri_GetBaLFromCsw
                0xffffffff880e54e1                rri_StopCbch
                0xffffffff880e5521                rri_ActivateCbch
                0xffffffff880e55b5                rri_UpdL1CbchCfg
                0xffffffff880e5649                rri_SendCell
                0xffffffff880e57b1                rri_SendNasInfo
                0xffffffff880e57f9                rri_StoreInfo
                0xffffffff880e5831                rri_CheckSi13GMaCmplte
                0xffffffff880e5889                rri_HandleInfoSchedule
                0xffffffff880e5a35                rri_Init
                0xffffffff880e5bf5                rrpAccI_TrsRelReq
                0xffffffff880e5c4d                rrpAccI_TrsL1TBFCfgCnf
                0xffffffff880e5d19                rrpAccI_TrsAccRejInd
                0xffffffff880e5e7d                rrpAccI_TrsT3186Exp
                0xffffffff880e5e91                rrpAccI_TrsT3170Exp
                0xffffffff880e5ea5                rrpAccI_TrsT3162Exp
                0xffffffff880e5eb9                rrpAccI_TrsL1PSDataInd
                0xffffffff880e5f1d                rrpAccI_TrsT3168Exp
                0xffffffff880e5f31                rrpAccI_TrsT3146Exp
                0xffffffff880e6095                rrpAccI_TrsSIAExp
                0xffffffff880e60a9                rrpAccI_TrsPDlAss
                0xffffffff880e61b9                rrpAccI_TrsPQueNotif
                0xffffffff880e621d                rrpAccI_TrsPUlAss
                0xffffffff880e62ed                rrpAccI_TrsImmAssCmp
                0xffffffff880e64f9                rrpAccN_TrsAccRejInd
                0xffffffff880e6581                rrpAccN_TrsTExp
                0xffffffff880e65d9                rrpAccN_TrsT3168Exp
                0xffffffff880e6619                rrpAccN_TrsL1PSDataInd
                0xffffffff880e667d                rrpAccN_TrsPUlAss
                0xffffffff880e673d                rrpAccN_TrsImmAssRej
                0xffffffff880e6891                rrpAccN_TrsImmAssCmp
                0xffffffff880e6989                rrpAccN_TrsImmAss
                0xffffffff880e6bb9                rrpCond_TrsSglUlExp
                0xffffffff880e6bdd                rrpCond_TrsSglDlExp
                0xffffffff880e6bed                rrpCond_TrsT3192Exp
                0xffffffff880e6c1d                rrpCond_TrsPCCO
                0xffffffff880e6c89                rrpCond_TrsDlRelDalay
                0xffffffff880e6d89                rrpCond_TrsEndFixedInd
                0xffffffff880e6dbd                rrpCond_TrsL1TBFCfgCnf
                0xffffffff880e6ed9                rrpCond_TrsUlRelDalay
                0xffffffff880e70f1                rrpCond_TrsT3184Exp
                0xffffffff880e7105                rrpCond_TrsRelReq
                0xffffffff880e715d                rrpCond_TrsT3190Exp
                0xffffffff880e7229                rrpCond_TrsT3188Exp
                0xffffffff880e724d                rrpCond_TrsT3164Exp
                0xffffffff880e728d                rrpCond_TrsConReq
                0xffffffff880e74d9                rrpCond_TrsAccRejInd
                0xffffffff880e76f9                rrpCond_TrsPUlAckNackInd
                0xffffffff880e7a81                rrpCond_TrsL1PSDataInd
                0xffffffff880e7ba9                rrpCond_TrsT3180Exp
                0xffffffff880e7c49                rrpCond_TrsT3168Exp
                0xffffffff880e7d39                rrpCond_TrsPTBFRel
                0xffffffff880e7fb9                rrpCond_TrsPPwrCtrlTA
                0xffffffff880e8091                rrpCond_TrsPPDCHRel
                0xffffffff880e819d                rrpCond_TrsPDlAss
                0xffffffff880e81c5                rrpCond_TrsPUlAss
                0xffffffff880e8285                rrpCond_TrsPTSReconf
                0xffffffff880e875d                rrpGene_TrsT3142Exp
                0xffffffff880e8771                rrpGene_TrsT3172Exp
                0xffffffff880e8785                rrpGene_TrsT3176Exp
                0xffffffff880e87a1                rrpGene_TrsConReq
                0xffffffff880e884d                rrpGene_TrsT3174Exp
                0xffffffff880e8899                rrpGene_TrsCellRsp
                0xffffffff880e8949                rrpGene_TrsUSFInd
                0xffffffff880e8a29                rrp_HdleGPTimAdv
                0xffffffff880e8a9d                rrp_HdlePTimAdv
                0xffffffff880e8af5                rrp_HdlePwrCtrlParam
                0xffffffff880e8b29                rrp_TestModeReq
                0xffffffff880e8b3d                rrp_Allocation
                0xffffffff880e8d01                rrp_SendPCCFail
                0xffffffff880e8dad                rrp_HdlePCCO
                0xffffffff880e9031                rrp_HdleST
                0xffffffff880e90b1                rrp_HdleFixed
                0xffffffff880e92c9                rrp_HdleDynamic
                0xffffffff880e947d                rrp_HdleFreqParam
                0xffffffff880e972d                rrp_HdlePDlAss
                0xffffffff880e9b51                rrp_HdlePUlAss
                0xffffffff880e9f49                rrp_PrepPResReq
                0xffffffff880ea2e1                rrp_FillCmnAssgt
                0xffffffff880ea4e5                rrp_FillUlAssgt
                0xffffffff880ea8e5                rrp_FillDlAssgt
                0xffffffff880eabd9                rrp_HdlePImmAssDl
                0xffffffff880eaef1                rrp_FdIdx
                0xffffffff880eaefd                rrp_FwdPcco
                0xffffffff880eaf2d                rrp_SendReleaseInd
                0xffffffff880eafb5                rrp_ReleaseTBFs
                0xffffffff880eb0a1                rrp_PCCOBack
                0xffffffff880eb139                rrp_PurgeQ
                0xffffffff880eb14d                rrp_AccessFailure
                0xffffffff880eb235                rrp_SendUlEstabN
                0xffffffff880eb33d                rrp_SendUlEstab
                0xffffffff880eb48d                rrp_PrepPL1ConI
                0xffffffff880eb4e1                rrp_SIATimerExp
                0xffffffff880eb579                rrp_StartPRach
                0xffffffff880eb6f9                rrp_SdPccchReqEvt
                0xffffffff880eb725                rrp_LaunchRachProc
                0xffffffff880eb7d1                rrp_BuildAllocBitmap
                0xffffffff880eb929                rrp_IsRefForMe
                0xffffffff880eb9dd                rrp_DlRelease
                0xffffffff880ebb1d                rrp_UlRelease
                0xffffffff880ebc81                rrp_AccCtrlOK
                0xffffffff880ebd19                rrp_AbnormalRel
                0xffffffff880ec031                rrp_TrsContResFail
                0xffffffff880ec1b5                rrpVoid_TrsT3168Exp
                0xffffffff880ec1f5                rrpVoid_TrsPCCO
                0xffffffff880ec211                rrpVoid_TrsMacEstabReq
                0xffffffff880ec2cd                rrpVoid_TrsSIAExp
                0xffffffff880ec2e1                rrpVoid_TrsImmAssCmp
                0xffffffff880ec3d9                rrpVoid_TrsPDlAss
                0xffffffff880ec435                rrpVoid_TrsImmAss
                0xffffffff880ec589                rrpVoid_TrsConReq
                0xffffffff880ec6dd                rrpWcnI_TrsPUlAss
                0xffffffff880ec759                rrpWcnI_TrsT3168Exp
                0xffffffff880ec76d                rrpWcnI_TrsL1PSDataInd
                0xffffffff880ec7d1                rrpWcnI_TrsPDlAss
                0xffffffff880ec7e5                rrpWcnI_TrsL1TBFCfgCnf
                0xffffffff880ec985                rrpWcnN_TrsPUlAss
                0xffffffff880ec9f9                rrpWcnN_TrsT3168Exp
                0xffffffff880eca0d                rrpWcnN_TrsL1PSDataInd
                0xffffffff880eca71                rrpWcnN_TrsL1TBFCfgCnf
                0xffffffff880ecbd1                rrpWrsl_TrsConReq
                0xffffffff880ecd45                sxs_ProtoStackAvail
                0xffffffff880ecd49                sxs_UsimSupported
                0xffffffff880ecd4d                sxs_SimLimitRfTxPower
                0xffffffff880ecd51                sxs_SimFastAtr
                0xffffffff880ecd55                sxs_PsReselect
                0xffffffff880ecd59                sxs_IsExtULTBFSupported
                0xffffffff880ecd5d                sxs_IsBlackListSupported
                0xffffffff880ecd61                sxs_Get_stack_sm_t3380_value
                0xffffffff880ecd81                sxs_AdjCellSys3
                0xffffffff880ecd85                csw_RegisterYourself
                0xffffffff880ecee9                flashBlockDeviceFormat
                0xffffffff880ed419                flashBlockDeviceCreate
                0xffffffff880ede7d                sffsTellDir
                0xffffffff880ede8d                sffsSeekDir
                0xffffffff880edf39                sffsSync
                0xffffffff880edfb5                sffsStatVfs
                0xffffffff880ee0dd                sffsReadDirR
                0xffffffff880ee225                sffsReadDir
                0xffffffff880ee3cd                sffsFstat
                0xffffffff880ee44d                sffsSeek
                0xffffffff880ee89d                sffsCloseDir
                0xffffffff880ee8ed                sffsClose
                0xffffffff880eea8d                sffsOpenDir
                0xffffffff880eeb85                sffsRead
                0xffffffff880eecdd                _fileWrite
                0xffffffff880ef109                sffsWrite
                0xffffffff880ef5f1                sffsFtruncate
                0xffffffff880ef6e9                sffsUnlink
                0xffffffff880ef7c9                sffsRmDir
                0xffffffff880efa25                sffsMakeFs
                0xffffffff880efab1                sffsUnmount
                0xffffffff880efad1                sffsMount
                0xffffffff880efd21                _pathFileName
                0xffffffff880efd3d                sffsRename
                0xffffffff880f0029                sffsMkDir
                0xffffffff880f0199                sffsOpen
                0xffffffff880f03ed                sffsVfsMkfs
                0xffffffff880f0411                sffsVfsMount
                0xffffffff880f08b1                sm_BuildModifyPdpCtxAccMsg
                0xffffffff880f0945                sm_BuildDeactivatePdpCtxAccMsg
                0xffffffff880f09d9                sm_BuildDeactivatePdpCtxReqMsg
                0xffffffff880f0a79                sm_BuildActivatePdpCtxRejMsg
                0xffffffff880f0b19                sm_BuildModifyPdpCtxReqMsg
                0xffffffff880f0c09                sm_BuildActivatePdpCtxReqMsg
                0xffffffff880f0d79                sm_BuildStatusMsg
                0xffffffff880f0e29                sm_ProcessSmStatusMsg
                0xffffffff880f0e69                sm_ProcessDeactivatePdpCtxReqMsg
                0xffffffff880f0ead                sm_ProcessModifyPdpCtxRejMsg
                0xffffffff880f0eed                sm_ProcessModifyPdpCtxReqMsg
                0xffffffff880f111d                sm_ProcessActivatePdpCtxRejMsg
                0xffffffff880f11f5                sm_ProcessActivatePdpCtxAccMsg
                0xffffffff880f14bd                sm_ProcessModifyPdpCtxAccMsg
                0xffffffff880f16dd                sm_SendMsg
                0xffffffff880f1741                sm_PrepMsg
                0xffffffff880f1785                smc_DoNothing
                0xffffffff880f1789                smc_MTIdle_CpError
                0xffffffff880f178d                smc_MTWaitCpAck_Error97
                0xffffffff880f17a1                smc_MTConnected_Error97
                0xffffffff880f17b5                smc_MTConnected_CpAck
                0xffffffff880f17c9                smc_MOConnected_Error97
                0xffffffff880f17dd                smc_MOConnected_CpAck
                0xffffffff880f17f1                smc_MOWaitCpAck_Error97
                0xffffffff880f1805                smc_MOWaitCpAck_ReleaseInd
                0xffffffff880f1825                smc_MTWaitApiReport_AbortReq
                0xffffffff880f1891                smc_MTIdle_Error97
                0xffffffff880f1909                smc_MOWaitNewEstabCnf_AbortReq
                0xffffffff880f197d                smc_MOWaitNewEstabCnf_ReleaseReq
                0xffffffff880f19d1                smc_MOConnected_AbortReq
                0xffffffff880f1a31                smc_MOWaitEstabCnf_ReleaseReq
                0xffffffff880f1ab5                smc_MTWaitCpAck_CpAck
                0xffffffff880f1b71                smc_MTAllState_ReleaseInd
                0xffffffff880f1bb5                smc_MOWaitCpAck_AbortReq
                0xffffffff880f1c41                smc_MOWaitCpAck_ReleaseReq
                0xffffffff880f1cc5                smc_MOWaitCpAck_CpAck
                0xffffffff880f1d81                smc_MOAllState_ReleaseInd
                0xffffffff880f1dd5                smc_MTWaitCpAck_CpError
                0xffffffff880f1eb9                smc_MTConnected_CpError
                0xffffffff880f1f79                smc_MOWaitNewEstabCnf_ReleaseInd
                0xffffffff880f1fe9                smc_MOWaitNewEstabCnf_EstabErr
                0xffffffff880f2035                smc_MOWaitNewEstabCnf_EstabCnf
                0xffffffff880f2091                smc_MOConnected_CpError
                0xffffffff880f2175                smc_MOWaitCpAck_CpError
                0xffffffff880f2261                smc_MOWaitEstabCnf_EstabErr
                0xffffffff880f22b1                smc_MTWaitCpAck_CpData
                0xffffffff880f2369                smc_MTConnected_CpData
                0xffffffff880f23e9                smc_MTIdle_CpData
                0xffffffff880f24d5                smc_MOWaitNewEstabCnf_ServReqAck
                0xffffffff880f24f9                smc_MOConnected_CpData
                0xffffffff880f2669                smc_MOWaitCpAck_CpData
                0xffffffff880f2921                smc_MTWaitCpAck_TC1M
                0xffffffff880f2a59                smc_MOWaitCpAck_TC1M
                0xffffffff880f2ba5                smc_MTConnected_DataReq
                0xffffffff880f2c6d                smc_MTIdle_DataReq
                0xffffffff880f2d35                smc_MOConnected_DataReq
                0xffffffff880f2e01                smc_MOConnected_EstabReq
                0xffffffff880f2e89                smc_MOWaitEstabCnf_EstabCnf
                0xffffffff880f2f6d                smc_MOIdle_SmrEstabReq
                0xffffffff880f307d                smc_MOIdle_AbortReqEvt
                0xffffffff880f30a9                smc_MOConnected_ReleaseReq
                0xffffffff880f311d                smc_MOWaitEstabCnf_ReleaseInd
                0xffffffff880f3235                smc_MOIdle_TC1M
                0xffffffff880f33dd                smc_FillCpDataHeader
                0xffffffff880f3491                smc_SendCpError
                0xffffffff880f3541                smc_SendCpAck
                0xffffffff880f35dd                smr_DoNothing
                0xffffffff880f35e1                smr_MTWaitApiReport_TR2M
                0xffffffff880f364d                smr_MTIdle_SmcErrorInd
                0xffffffff880f3685                smr_MOWaitRpAck_TR1MRe
                0xffffffff880f36fd                smr_MOWaitRpAck_TR1M
                0xffffffff880f3781                smr_MTAllState_ReleaseInd
                0xffffffff880f37ad                smr_MOWaitRetransMMA_AbortMMA
                0xffffffff880f37dd                smr_MOWaitRetransMMA_SmcErrorInd
                0xffffffff880f3819                smr_MOWaitMMARpAck_AbortMMA
                0xffffffff880f3849                smr_MOWaitMMARpAck_SmcErrorInd
                0xffffffff880f3885                smr_MOWaitMMARpAck_EstabErr
                0xffffffff880f38ed                smr_MOAllStateExceptIdle_AbortReq
                0xffffffff880f3949                smr_MOAllStateExceptIdle_ReleaseInd
                0xffffffff880f39f5                smr_MTWaitApiReport_SmsPPErrorReq
                0xffffffff880f3a91                smr_MTWaitApiReport_SmsPPAckReq
                0xffffffff880f3b1d                smr_MTIdle_Error97
                0xffffffff880f3b69                smr_MTIdle_Error95
                0xffffffff880f3bb5                smr_MOWaitMMARpAck_RpData
                0xffffffff880f3bdd                smr_MOWaitMMARpAck_Error97
                0xffffffff880f3c05                smr_MOWaitMMARpAck_Error95
                0xffffffff880f3c2d                smr_MOWaitRpAck_RpData
                0xffffffff880f3c65                smr_MOWaitRpAck_Error97
                0xffffffff880f3c89                smr_MOWaitRpAck_Error95
                0xffffffff880f3cad                smr_MTIdle_RpData
                0xffffffff880f3d65                smr_MOWaitMMARpAck_TR1M
                0xffffffff880f3e11                smr_MOWaitRpAck_EstabErr
                0xffffffff880f3ead                smr_MOWaitRetransMMA_TRAM
                0xffffffff880f3f19                smr_MOIdle_SmsPPSendMMAReq
                0xffffffff880f3fbd                smr_MOWaitMMARpAck_RpError
                0xffffffff880f4091                smr_MOWaitMMARpAck_RpAck
                0xffffffff880f4115                smr_MOWaitRpAck_RpAck
                0xffffffff880f41a5                smr_MOWaitRpAck_RpError
                0xffffffff880f4269                smr_MOWaitRpAck_SmcErrorInd
                0xffffffff880f42d9                smr_MO_Idle_Init
                0xffffffff880f4319                smr_MOIdle_SelfSend
                0xffffffff880f43cd                smr_MOIdle_SmsPPSendReq
                0xffffffff880f4551                smr_TestTemporyFailureIndication
                0xffffffff880f4579                smr_CheckTPDU
                0xffffffff880f45a9                smr_FillRpErrorHeader
                0xffffffff880f4699                smr_SendRpError
                0xffffffff880f46f9                smr_FillRpAckHeader
                0xffffffff880f47a9                smr_FillRpSMMAHeader
                0xffffffff880f4805                smr_SendSmsPPErrorInd
                0xffffffff880f48e1                smr_SendSmsPPAckInd
                0xffffffff880f496d                smr_FillRpDataHeader
                0xffffffff880f4a19                SMS_DM_GetFreeIndexFromNv
                0xffffffff880f4a79                SMS_DM_GetIndexByStatus
                0xffffffff880f4b3d                SMS_DM_Delete
                0xffffffff880f4c11                SMS_DM_OverWrite
                0xffffffff880f4c99                SMS_DM_Read
                0xffffffff880f4d21                SMS_DM_Add
                0xffffffff880f4dc1                SMS_DM_Init
                0xffffffff880f4e55                sms_StopTimer
                0xffffffff880f4ead                sms_StartTimer
                0xffffffff880f4f2d                sms_SendMsg
                0xffffffff880f4fbd                sms_PrepMsg
                0xffffffff880f5075                snd_Decompress
                0xffffffff880f6929                ss_rxMsgParse
                0xffffffff880f929d                stack_GetAutoCallStruct
                0xffffffff880f92a9                stack_RegisterYourself
                0xffffffff880f92c5                std_RegisterYourself
                0xffffffff880f92e1                SUL_StrCat
                0xffffffff880f92fd                SUL_StrChr
                0xffffffff880f931d                SUL_StrCompare
                0xffffffff880f9339                SUL_StrCaselessCompare
                0xffffffff880f9369                SUL_StrCopy
                0xffffffff880f937d                SUL_StrNCopy
                0xffffffff880f9395                SUL_Strlen
                0xffffffff880f93a5                SUL_StrNCaselessCompare
                0xffffffff880f93e9                SUL_StrAToI
                0xffffffff880f9571                SUL_Vsprintf
                0xffffffff880f97e9                SUL_StrVPrint
                0xffffffff880f97f9                SUL_MemCompare
                0xffffffff880f9821                SUL_MemCopy32
                0xffffffff880f9839                SUL_MemCopy8
                0xffffffff880f9851                SUL_MemSet32
                0xffffffff880f986d                SUL_MemSet8
                0xffffffff880f9889                SUL_ZeroMemory32
                0xffffffff880f989d                SUL_ZeroMemory8
                0xffffffff880f98ad                SUL_CharUpper
                0xffffffff880f98dd                SUL_StrPrint
                0xffffffff880f98f5                sx_RegisterYourself
                0xffffffff880f9911                sys_init
                0xffffffff880f9915                sys_sem_valid
                0xffffffff880f9921                sys_sem_set_invalid
                0xffffffff880f9929                sys_mbox_valid
                0xffffffff880f9935                sys_mbox_set_invalid
                0xffffffff880f99b5                sys_jiffies
                0xffffffff880f99c5                sys_now
                0xffffffff880f9a0d                sys_arch_printf
                0xffffffff880f9a4d                sys_dotimeout
                0xffffffff880f9a81                sys_untimeout
                0xffffffff880f9ae1                sys_timeout
                0xffffffff880f9b7d                sys_arch_assert
                0xffffffff880f9b8d                sys_arch_mbox_fetch
                0xffffffff880f9c51                sys_mbox_trypost
                0xffffffff880f9c69                sys_arch_mbox_tryfetch
                0xffffffff880f9c99                sys_mbox_free
                0xffffffff880f9cb5                sys_mbox_new
                0xffffffff880f9ce1                sys_arch_sem_wait
                0xffffffff880f9d99                sys_sem_signal
                0xffffffff880f9dd1                sys_sem_free
                0xffffffff880f9e15                sys_sem_new
                0xffffffff880f9e51                tcpip_init
                0xffffffff880f9e69                tcpip_callback_with_block
                0xffffffff880f9e9d                tcpip_inpkt
                0xffffffff880f9ed9                tcpip_input
                0xffffffff880f9f01                tcpip_send_msg_wait_sem
                0xffffffff880f9f61                tcpip_thread
                0xffffffff880fa02d                sys_timeouts_init
                0xffffffff880fa061                tcp_timer_needed
                0xffffffff880fa09d                tcpip_tcp_timer
                0xffffffff880fa0d9                cyclic_timer
                0xffffffff880fa10d                TIM_GetSingleValidIdx
                0xffffffff880fa12d                TIM_GetValidIdx
                0xffffffff880fa169                TM_PowerOff
                0xffffffff880fa725                DM_AlmRegTimerServ
                0xffffffff880fa8a9                TM_PowerOn
                0xffffffff880faa05                TIM_GetEqualTimeAlmIdx
                0xffffffff880faadd                DM_AlarmDisposeInEvt
                0xffffffff880fad2d                tm_AlramProc
                0xffffffff880fad91                TIM_GetGloAlarmInfo
                0xffffffff880fadbd                TIM_SetLastErr
                0xffffffff880fadc9                TIM_GetTimePara
                0xffffffff880fae7d                TM_GetDayNoInYear
                0xffffffff880faf95                TM_FileTimeToSystemTime
                0xffffffff880fb0a1                TM_GetDayOfWeekEX
                0xffffffff880fb121                TM_GetTimeZone
                0xffffffff880fb13d                TM_PowerOnPatch
                0xffffffff880fb141                TIM_ReadAlarmSet
                0xffffffff880fb1a5                TIM_WriteAlarmSet
                0xffffffff880fb205                TM_IsValidTime
                0xffffffff880fb311                TM_SystemTimeToFileTime
                0xffffffff880fb3bd                csw_TMGetTick
                0xffffffff880fb3cd                TM_FormatDateTime
                0xffffffff880fb7b9                TM_FormatDateTimeEx
                0xffffffff880fb881                TM_SetSystemTime
                0xffffffff880fb949                TM_GetSystemFileTime
                0xffffffff880fb9e5                TM_GetTime
                0xffffffff880fb9fd                TM_GetSystemTime
                0xffffffff880fbb15                TIM_SetGloAlarmInfo
                0xffffffff880fbb49                TIM_SetTimePara
                0xffffffff880fbba1                TM_SetTimeZone
                0xffffffff880fbbf1                TS_OutPutEvId
                0xffffffff880fbc1d                CSW_TC_MEMBLOCK
                0xffffffff880fbd29                TS_OutputText
                0xffffffff880fbd8d                TS_Open
                0xffffffff880fbdb9                uctls_ChangeMode
                0xffffffff880fbff1                uctls_ChargerStatus
                0xffffffff880fc0a9                uctls_Open
                0xffffffff880fc161                VDS_Close
                0xffffffff880fc165                VDS_GetPartitionCount
                0xffffffff880fc171                VDS_GetPartitionInfo
                0xffffffff880fc1f1                VDS_Deactive
                0xffffffff880fc1f5                VDS_Active
                0xffffffff880fc1f9                VDS_GetRCacheSize
                0xffffffff880fc1fd                VDS_GetWCacheSize
                0xffffffff880fc201                VDS_SetWCacheSize
                0xffffffff880fc205                VDS_SetRCacheSize
                0xffffffff880fc209                VDS_Flush
                0xffffffff880fc20d                VDS_ReadBlock
                0xffffffff880fc3a9                VDS_WriteBlock
                0xffffffff880fc525                VDS_Open
                0xffffffff880fc579                VDS_Init
                0xffffffff880fc5bd                VDS_CacheRevertBlock
                0xffffffff880fc5c1                VDS_CacheNodeIsLess
                0xffffffff880fc5d1                VDS_CacheGetBlkCnt
                0xffffffff880fc5dd                VDS_CacheSendFlushEvent
                0xffffffff880fc621                VDS_CacheFlushAllowed
                0xffffffff880fc671                VDS_CacheReadBlock
                0xffffffff880fc6e9                VDS_CacheWriteBlock
                0xffffffff880fc7e5                VDS_CacheInit
                0xffffffff880fc81d                vds_CacheNodeFlush
                0xffffffff880fc931                VDS_CacheFlush
                0xffffffff880fc995                vds_SpiIsIdle
                0xffffffff880fc9a5                VDS_CacheTaskEntry
                0xffffffff880fca45                VDS_CacheFlushAll
                0xffffffff880fcb39                vds_GcIsActive
                0xffffffff880fcb45                vds_GcDeactive
                0xffffffff880fcb75                vds_GcActive
                0xffffffff880fcbb9                vds_GcCopy
                0xffffffff880fce35                vds_GcEraseFinish
                0xffffffff880fcec9                vds_GcEraseResume
                0xffffffff880fcf51                vds_GcErase
                0xffffffff880fcfe5                vds_GcEraseBegin2
                0xffffffff880fd08d                vds_GcEraseBegin
                0xffffffff880fd175                vds_ChangeSectStatus
                0xffffffff880fd3e9                vds_GcSetMt
                0xffffffff880fd469                vds_GetRemainSector
                0xffffffff880fd4ed                vds_GetGcingSector
                0xffffffff880fd575                vds_Gc
                0xffffffff880fd80d                vds_GcInit
                0xffffffff880fd859                vds_GcExt
                0xffffffff880fd985                vds_PopLastSecRef
                0xffffffff880fd9a9                vds_GetShCrc
                0xffffffff880fd9c5                vds_FormatSec
                0xffffffff880fda9d                vds_EraseSec
                0xffffffff880fdb89                vds_EraseAndFormatSec
                0xffffffff880fdbc9                vds_CheckRemainSec
                0xffffffff880fdc89                VDS_GetFlashInfo
                0xffffffff880fdce9                vds_InitEntry
                0xffffffff880fe3b1                vds_AllocSecRef
                0xffffffff880fe3e9                vds_AddSecRef
                0xffffffff880fe3fd                vds_AppendSecRef
                0xffffffff880fe415                vds_IsSecRefListEmpty
                0xffffffff880fe41d                vds_RemoveSecRef
                0xffffffff880fe441                vds_GetFirstSecRef
                0xffffffff880fe445                vds_GetNextSecRef
                0xffffffff880fe451                vds_IsValidSn
                0xffffffff880fe4a1                VDS_ModuleSemInit
                0xffffffff880fe4a5                VDS_WaitForSemaphore
                0xffffffff880fe4a9                VDS_ReleaseSemaphore
                0xffffffff880fe4ad                vds_SetFlushAllowed
                0xffffffff880fe4b9                vds_IsFlushAllowed
                0xffffffff880fe4cd                vds_InitCache
                0xffffffff880fe4d9                vds_IsCacheInited
                0xffffffff880fe4ed                vds_WritePB
                0xffffffff880fe59d                vds_WritePBD
                0xffffffff880fe621                vds_WriteSH
                0xffffffff880fe6b5                vds_ReadPBDT
                0xffffffff880fe70d                vds_CountBlock
                0xffffffff880fe7c1                vds_ReadPB
                0xffffffff880fe871                vds_ReadPBD
                0xffffffff880fe8f5                vds_GetFirstBlockPos
                0xffffffff880fe971                vds_SetPBStatus
                0xffffffff880fea41                vds_WritePBDAndPB
                0xffffffff880fead9                vds_ReadSH
                0xffffffff880feb49                vds_SetMT
                0xffffffff880fec9d                vds_SetMTByScanSec
                0xffffffff880fed6d                vds_ListScan
                0xffffffff880fedf1                vds_ReadSHWithCrc
                0xffffffff880fee89                vds_Pop
                0xffffffff880feef1                vds_SetSectStatus
                0xffffffff880fef7d                vds_MoveCurrentPos
                0xffffffff880ff029                vds_GetCurrentPos
                0xffffffff880ff061                vds_CRC32
                0xffffffff880ff089                vds_GetPBDCRC
                0xffffffff880ff08d                vds_IsCRCChecked
                0xffffffff880ff0e1                vfs_close
                0xffffffff880ff125                vfs_read
                0xffffffff880ff171                vfs_write
                0xffffffff880ff1bd                vfs_lseek
                0xffffffff880ff209                vfs_fstat
                0xffffffff880ff251                vfs_fname
                0xffffffff880ff2a1                vfs_feof
                0xffffffff880ff2dd                vfs_readdir
                0xffffffff880ff315                vfs_readdir_r
                0xffffffff880ff35d                vfs_telldir
                0xffffffff880ff395                vfs_seekdir
                0xffffffff880ff3d1                vfs_rewinddir
                0xffffffff880ff3e1                vfs_closedir
                0xffffffff880ff419                vfs_fsync
                0xffffffff880ff511                vfs_getcwd
                0xffffffff880ff611                vfs_realpath
                0xffffffff880ff675                vfs_statvfs
                0xffffffff880ff6c1                vfs_rmdir
                0xffffffff880ff709                vfs_mkdir
                0xffffffff880ff759                vfs_opendir
                0xffffffff880ff7ad                vfs_rename
                0xffffffff880ff821                vfs_unlink
                0xffffffff880ff869                vfs_resolve_path
                0xffffffff880ff8c5                vfs_register
                0xffffffff880ff9f5                vfs_open
                0xffffffff880ffa45                vfs_file_write
                0xffffffff880ffa89                vfs_creat
                0xffffffff880ffaa1                vfs_sfile_init
                0xffffffff880ffb0d                vfs_sfile_read
                0xffffffff880ffb81                vfs_sfile_write
                0xffffffff880ffbf9                vois_RecordStart
                0xffffffff880ffc51                vois_RecordStop
                0xffffffff880ffc91                vois_SetRxToTxLoopFlag
                0xffffffff880ffc9d                vois_GetMixBufPosition
                0xffffffff880ffcd1                vois_GetMixRemain
                0xffffffff880ffcdd                vois_MixDataStop
                0xffffffff880ffd31                vois_MixBuffer
                0xffffffff88100189                vois_TestModeSetup
                0xffffffff88100629                vois_Stop
                0xffffffff8810073d                vois_Start
                0xffffffff88100aa9                txhandle_end
                0xffffffff88100b9d                txhandle_half
                0xffffffff88100c95                vois_Setup
                0xffffffff88100fad                vois_DumpPcmDataToTFlashStop
                0xffffffff88101039                vois_DumpPcmDataToTFlashProcess
                0xffffffff88101179                vois_DumpPcmDataToTFlashFileOpen
                0xffffffff88101749                vpp_SpeechGetRxPcmBuffer
                0xffffffff88101759                vpp_SpeechGetTxPcmBuffer
                0xffffffff88101769                vpp_SpeechInAlgGainDb2Val
                0xffffffff881017b5                vpp_SpeechOutAlgGainDb2Val
                0xffffffff881017d5                vpp_SpeechSetMSDFPara
                0xffffffff88101801                vpp_SpeechMSDFReload
                0xffffffff88101819                vpp_SpeechSetWebRtcAgcReloadFlag
                0xffffffff88101851                vpp_SpeechSetWebRtcAgcParaRx
                0xffffffff8810189d                vpp_SpeechSetWebRtcAgcParaTx
                0xffffffff881018e9                vpp_SpeechSetWebRtcAgcParaAll
                0xffffffff88101909                vpp_SpeechSetEQPara
                0xffffffff8810196d                vpp_SpeechSetNoiseSuppressParaRX
                0xffffffff881019c9                vpp_SpeechSetNoiseSuppressParaTX
                0xffffffff88101a25                vpp_SpeechSetNoiseSuppressParaAll
                0xffffffff88101a45                vpp_SpeechSetHpfPara
                0xffffffff88101a95                vpp_SpeechSetProcessMicEnableFlag
                0xffffffff88101ab5                vpp_SpeechGetType
                0xffffffff88101acd                vpp_SpeechSetReocrdSpeech
                0xffffffff88101aed                vpp_SpeechSetFilterPara
                0xffffffff88101b51                vpp_SpeechSetAecAllPara
                0xffffffff88101d1d                vpp_SpeechSetAecPara
                0xffffffff88101dcd                vpp_SpeechSetInAlgGain
                0xffffffff88101e25                vpp_SpeechSetNonClipParaTX
                0xffffffff88101e65                vpp_SpeechSetAecEnableFlag
                0xffffffff88101e95                vpp_SpeechSetOutAlgGain
                0xffffffff88101ef9                vpp_SpeechSetNonClipParaRX
                0xffffffff88101f39                vpp_SpeechSetNonClipParaAll
                0xffffffff88101f59                vpp_SpeechGetTxCodBuffer
                0xffffffff88101f69                vpp_SpeechGetRxCodBuffer
                0xffffffff88101f79                vpp_SpeechReset
                0xffffffff88101f95                vpp_SpeechSetScaleDigitalGainPara
                0xffffffff88101ff1                vpp_SpeechSetEncDecPocessingParams
                0xffffffff88102101                vpp_SpeechScheduleOneFrame
                0xffffffff88102121                vpp_SpeechAudioCfg
                0xffffffff88102165                vpp_SpeechClose
                0xffffffff88102181                vpp_SpeechOpen
                0xffffffff881035e1                vsnprintf
                0xffffffff88103645                snprintf
                0xffffffff8810365d                vsprintf
                0xffffffff88103679                sprintf
                0xffffffff8810369d                MakeDtmfTone
                0xffffffff881037a9                isDTMFGEN_Run
                0xffffffff881037bd                DTMFGen_Process
                0xffffffff881038b1                apbs_Setup
                0xffffffff881038dd                apbs_Stop
                0xffffffff88103a09                apbs_UserMsgHandle
                0xffffffff88103a9d                api_ComputeMsNwkCap
                0xffffffff88103b51                api_ComputeMsRACap
                0xffffffff88104049                CosEvent2CfwEvent
                0xffffffff88104065                OS_SetUserMainHandle
                0xffffffff88104071                OS_GetUserMainHandle
                0xffffffff8810407d                _GetACLBStatus
                0xffffffff88104081                MMIDisplayWaitingAnimation
                0xffffffff88104085                Http_WriteUart
                0xffffffff88104089                Platform_GetHeapSize
                0xffffffff881040ad                Platform_ApiMainTaskCreate
                0xffffffff881040ed                Platfrom_Init
                0xffffffff88104165                SendEventToAppMain
                0xffffffff881041b9                CfwInit
                0xffffffff88104421                ApiMainTask
                0xffffffff88104779                SIM_AsyncEventProcess
                0xffffffff8810477d                ID_AsyncEventProcess
                0xffffffff881047f9                SIM_GetIMSI
                0xffffffff88104869                SIM_GetICCID
                0xffffffff88104941                IsPhoneNumberValid
                0xffffffff8810499d                SMS_SetNewMessageStorage
                0xffffffff881049f1                SMS_GetStorageInfo
                0xffffffff88104a1d                SMS_DeleteMessage
                0xffffffff88104ae9                SMS_ListMessageRequst
                0xffffffff88104be1                SMS_GetServerCenterInfo
                0xffffffff88104ca5                SMS_SetServerCenterInfo
                0xffffffff88104db5                SMS_SendMessage
                0xffffffff8810502d                SMS_SetParameter
                0xffffffff881050ad                SMS_SetFormat
                0xffffffff881050d1                SMS_GetCharset
                0xffffffff881050e1                SMS_LocalLanguage2Unicode
                0xffffffff88105211                SMS_Unicode2LocalLanguage
                0xffffffff88105b95                SMS_RecvNewMessage_Indictation
                0xffffffff88105fe9                SMS_AsyncEventProcess
                0xffffffff88106205                Socket_GetLastError
                0xffffffff88106211                IsDomainValid
                0xffffffff8810622d                IsIpFormatValid
                0xffffffff88106245                DNS_GetHostByName2
                0xffffffff8810631d                DNS_GetHostByNameEX
                0xffffffff881063e1                DNS_GetHostByName
                0xffffffff8810645d                TCPIP_AsyncEventProcess
                0xffffffff88106639                Socket_TcpipClose
                0xffffffff8810664d                Socket_TcpipRead
                0xffffffff881066dd                Socket_TcpipWrite
                0xffffffff88106755                Socket_TcpipConnect
                0xffffffff8810686d                SS_AsyncEventProcess
                0xffffffff881069c5                SS_SendUSSD
                0xffffffff881069ed                ars_ReadData
                0xffffffff88106a09                ars_AvailableData
                0xffffffff88106a15                ars_EnFMRecNewPath
                0xffffffff88106a31                ars_Pause
                0xffffffff88106a4d                ars_Stop
                0xffffffff88106d61                ars_Record
                0xffffffff881074e5                ars_Setup
                0xffffffff8810759d                aud_CodecCommonOutAlgGainDb2Val
                0xffffffff88107685                aud_CodecCommonCalibUpdateValues
                0xffffffff88107689                aud_CodecCommonGetOutAlgGainDb2Val
                0xffffffff88107695                aud_CodecCommonGetBtNRECFlag
                0xffffffff88107699                aud_CodecCommonEnFMRecNewPath
                0xffffffff881076a5                aud_CodecCommonGetForceReceiverMicSelectionFlag
                0xffffffff88107701                aud_CodecCommonTonePause
                0xffffffff88107715                aud_CodecCommonSetConfig
                0xffffffff88107965                aud_CodecCommonStreamPause
                0xffffffff88107a71                aud_CodecCommonSetup
                0xffffffff88107f29                aud_CodecCommonTone
                0xffffffff88108015                aud_CodecCommonStreamRecord
                0xffffffff881080ed                aud_CodecCommonStreamStop
                0xffffffff881081c9                aud_CodecCommonStreamStart
                0xffffffff881082c1                bal_fstraceStop
                0xffffffff88108301                bal_fsTraceProcess
                0xffffffff88108379                bdev_read
                0xffffffff88108395                bdev_write
                0xffffffff881083b1                bdev_erase
                0xffffffff881083c9                tflash_device_create
                0xffffffff88108651                calib_ConvertStructV2p2
                0xffffffff88108949                calib_ConvertStructV2p4
                0xffffffff8810895d                calib_ConvertStructV2p5
                0xffffffff88108989                calib_StubOpen
                0xffffffff88109349                calib_DispState
                0xffffffff8810934d                calib_PulseLight
                0xffffffff881095a9                calib_SetNststateIdle
                0xffffffff881095c9                calib_GetReqState
                0xffffffff881095d5                calib_GetReqCurrState
                0xffffffff881095e1                calib_SetReqCurrState
                0xffffffff881095ed                calib_StubNstOpen
                0xffffffff8810980d                calib_StubNstParse
                0xffffffff88109ad5                calib_StubNstProcess
                0xffffffff8810ab75                cb_SendMsg
                0xffffffff8810abd1                cb_PrepMsg
                0xffffffff8810ac11                DECODE_BODY_c_NOTIFY
                0xffffffff8810ac55                DECODE_c_NOTIFY
                0xffffffff8810acb5                DECODE_BODY_c_START_DTMF_REJ
                0xffffffff8810ad3d                DECODE_c_START_DTMF_REJ
                0xffffffff8810ad9d                DECODE_BODY_c_RETRIEVE_REJECTED
                0xffffffff8810ae25                DECODE_c_RETRIEVE_REJECTED
                0xffffffff8810ae85                DECODE_BODY_c_HOLD_REJECTED
                0xffffffff8810af0d                DECODE_c_HOLD_REJECTED
                0xffffffff8810af6d                DECODE_BODY_c_USER_INFO
                0xffffffff8810b049                DECODE_c_USER_INFO
                0xffffffff8810b0a9                DECODE_BODY_c_STATUS
                0xffffffff8810b1f5                DECODE_c_STATUS
                0xffffffff8810b255                DECODE_BODY_c_START_DTMF_ACK
                0xffffffff8810b2c9                DECODE_c_START_DTMF_ACK
                0xffffffff8810b329                DECODE_BODY_c_PROGRESS
                0xffffffff8810b45d                DECODE_c_PROGRESS
                0xffffffff8810b4bd                DECODE_BODY_c_CONGESTION_CONTROL
                0xffffffff8810b5cd                DECODE_c_CONGESTION_CONTROL
                0xffffffff8810b62d                L3_ENCODE_c_USER_INFO
                0xffffffff8810b6e5                ENCODE_c_USER_INFO
                0xffffffff8810b6f5                L3_ENCODE_c_STATUS
                0xffffffff8810b7e1                ENCODE_c_STATUS
                0xffffffff8810b7f1                DECODE_BODY_c_SETUP_MT
                0xffffffff8810c529                DECODE_c_SETUP_MT
                0xffffffff8810c589                DECODE_BODY_c_RELEASE_COMPLETE_MT
                0xffffffff8810c7a1                DECODE_c_RELEASE_COMPLETE_MT
                0xffffffff8810c801                DECODE_BODY_c_RELEASE_MT
                0xffffffff8810cab9                DECODE_c_RELEASE_MT
                0xffffffff8810cb19                DECODE_BODY_c_FACILITY
                0xffffffff8810cb9d                DECODE_c_FACILITY
                0xffffffff8810cbfd                DECODE_BODY_c_DISCONNECT_MT
                0xffffffff8810ce69                DECODE_c_DISCONNECT_MT
                0xffffffff8810cec9                DECODE_BODY_c_CONNECT_MT
                0xffffffff8810d209                DECODE_c_CONNECT_MT
                0xffffffff8810d269                DECODE_BODY_c_CALL_PROCEEDING
                0xffffffff8810d641                DECODE_c_CALL_PROCEEDING
                0xffffffff8810d6a1                DECODE_BODY_c_ALERTING_MT
                0xffffffff8810d8a9                DECODE_c_ALERTING_MT
                0xffffffff8810d909                L3_ENCODE_c_START_DTMF
                0xffffffff8810d981                ENCODE_c_START_DTMF
                0xffffffff8810d991                DECODE_BODY_c_MODIFY_REJECT
                0xffffffff8810dba9                DECODE_c_MODIFY_REJECT
                0xffffffff8810dc09                L3_ENCODE_c_MODIFY_REJECT
                0xffffffff8810dd91                ENCODE_c_MODIFY_REJECT
                0xffffffff8810dda1                DECODE_BODY_c_MODIFY_COMPLETE
                0xffffffff8810df99                DECODE_c_MODIFY_COMPLETE
                0xffffffff8810dff9                L3_ENCODE_c_MODIFY_COMPLETE
                0xffffffff8810e15d                ENCODE_c_MODIFY_COMPLETE
                0xffffffff8810e16d                DECODE_BODY_c_MODIFY
                0xffffffff8810e365                DECODE_c_MODIFY
                0xffffffff8810e3c5                L3_ENCODE_c_MODIFY
                0xffffffff8810e529                ENCODE_c_MODIFY
                0xffffffff8810e539                L3_ENCODE_c_EMERGENCY_SETUP
                0xffffffff8810e6c9                ENCODE_c_EMERGENCY_SETUP
                0xffffffff8810e6d9                L3_ENCODE_c_CALL_CONFIRMED
                0xffffffff8810e93d                ENCODE_c_CALL_CONFIRMED
                0xffffffff8810e94d                L3_ENCODE_c_SETUP_MO
                0xffffffff8810ef55                ENCODE_c_SETUP_MO
                0xffffffff8810ef65                L3_ENCODE_c_RELEASE_COMPLETE_MO
                0xffffffff8810f125                ENCODE_c_RELEASE_COMPLETE_MO
                0xffffffff8810f135                L3_ENCODE_c_RELEASE_MO
                0xffffffff8810f349                ENCODE_c_RELEASE_MO
                0xffffffff8810f359                L3_ENCODE_c_FACILITY_MO
                0xffffffff8810f3f5                ENCODE_c_FACILITY_MO
                0xffffffff8810f405                L3_ENCODE_c_DISCONNECT_MO
                0xffffffff8810f5ad                ENCODE_c_DISCONNECT_MO
                0xffffffff8810f5bd                L3_ENCODE_c_CONNECT_MO
                0xffffffff8810f7c1                ENCODE_c_CONNECT_MO
                0xffffffff8810f7d1                L3_ENCODE_c_ALERTING_MO
                0xffffffff8810f939                ENCODE_c_ALERTING_MO
                0xffffffff8810f949                cc_EncFacilityIE
                0xffffffff8810fa31                cc_HdleInvoke
                0xffffffff8810ff55                cc_HdleFacilityIE
                0xffffffff88110235                cc_DtmfProcInit
                0xffffffff8811024d                cc_DtmfIncrIdx
                0xffffffff88110261                cc_DtmfToSend
                0xffffffff8811028d                cc_RetrieveApiMsgSavedforDtmf
                0xffffffff881102c9                cc_OnDtmf
                0xffffffff88110331                cc_DiscardOtherDtmf
                0xffffffff881103d5                cc_DtmfStopSend
                0xffffffff88110415                cc_DtmfStartAck
                0xffffffff881104b1                cc_DtmfStopReq
                0xffffffff88110581                cc_DtmfStartSend
                0xffffffff88110665                cc_DtmfEndProc
                0xffffffff88110701                cc_DtmfStartReq
                0xffffffff881107c9                CSN1ActionFunction_cc_4219277482
                0xffffffff88110811                CSN1ActionFunction_cc_3395391009
                0xffffffff88110859                CSN1ActionFunction_cc_3666336121
                0xffffffff881108a1                CSN1ActionFunction_cc_257741642
                0xffffffff881108e9                CSN1ActionFunction_cc_2305931879
                0xffffffff88110931                CSN1ActionFunction_cc_323156570
                0xffffffff88110979                CSN1ActionFunction_cc_3926522531
                0xffffffff8811099d                CSN1ActionFunction_cc_2247516746
                0xffffffff88110a5d                CSN1ActionFunction_cc_2473106058
                0xffffffff88110aa5                CSN1ActionFunction_cc_3774523959
                0xffffffff88110aed                CSN1ActionFunction_cc_982304886
                0xffffffff88110b35                CSN1ActionFunction_cc_2731816533
                0xffffffff88110b95                CSN1ActionFunction_cc_262739892
                0xffffffff88110c0d                CSN1ActionFunction_cc_1354706373
                0xffffffff88110c55                CSN1ActionFunction_cc_964346841
                0xffffffff88110c9d                CSN1ActionFunction_cc_1825751974
                0xffffffff88110ce5                CSN1ActionFunction_cc_809313225
                0xffffffff88110d8d                CSN1ActionFunction_cc_2075517348
                0xffffffff88110dd5                CSN1ActionFunction_cc_3081063057
                0xffffffff88110e1d                CSN1ActionFunction_cc_1100304528
                0xffffffff88110e65                CSN1ActionFunction_cc_4088121906
                0xffffffff88110ead                CSN1ActionFunction_cc_2419602553
                0xffffffff88110ef5                CSN1ActionFunction_cc_3901413999
                0xffffffff88110f3d                CSN1ActionFunction_cc_131146044
                0xffffffff88110f85                CSN1ActionFunction_cc_1772875302
                0xffffffff88110fcd                CSN1ActionFunction_cc_3861988065
                0xffffffff88111015                CSN1ActionFunction_cc_3157102492
                0xffffffff8811105d                CSN1ActionFunction_cc_4035638784
                0xffffffff881110d5                CSN1ActionFunction_cc_1573567058
                0xffffffff8811111d                CSN1ActionFunction_cc_977988876
                0xffffffff88111165                CSN1ActionFunction_cc_2833843784
                0xffffffff881111ad                CSN1ActionFunction_cc_3848175428
                0xffffffff88111225                CSN1ActionFunction_cc_2746917974
                0xffffffff8811126d                CSN1ActionFunction_cc_1220248098
                0xffffffff881112b5                CSN1ActionFunction_cc_2093895806
                0xffffffff881112fd                CSN1ActionFunction_cc_3306215593
                0xffffffff88111345                CSN1ActionFunction_cc_1715158171
                0xffffffff8811138d                CSN1ActionFunction_cc_3342536839
                0xffffffff881113d5                CSN1ActionFunction_cc_1689139655
                0xffffffff8811141d                CSN1ActionFunction_cc_453656169
                0xffffffff88111465                CSN1ActionFunction_cc_221275285
                0xffffffff881114ad                CSN1ActionFunction_cc_1752591521
                0xffffffff881114f5                CSN1ActionFunction_cc_2129262679
                0xffffffff88111519                CSN1ActionFunction_cc_4062270970
                0xffffffff88111561                CSN1ActionFunction_cc_2158205455
                0xffffffff881115c1                CSN1ActionFunction_cc_2872518491
                0xffffffff88111609                CSN1ActionFunction_cc_3150253922
                0xffffffff88111651                CSN1ActionFunction_cc_353270059
                0xffffffff88111699                CSN1ActionFunction_cc_3400928984
                0xffffffff88111729                CSN1ActionFunction_cc_2497997005
                0xffffffff8811174d                CSN1ActionFunction_cc_816369318
                0xffffffff88111771                CSN1ActionFunction_cc_2999663823
                0xffffffff881117b5                CSN1ActionFunction_cc_1816175321
                0xffffffff881117d9                CSN1ActionFunction_cc_3644256291
                0xffffffff8811180d                CSN1ActionFunction_cc_1146369898
                0xffffffff88111841                CSN1ActionFunction_cc_1282322265
                0xffffffff88111875                CSN1ActionFunction_cc_1021005843
                0xffffffff881118a9                CSN1ActionFunction_cc_1118317905
                0xffffffff88111961                CSN1ActionFunction_cc_4088925312
                0xffffffff88111a19                CSN1ActionFunction_cc_2079741542
                0xffffffff88111a95                CSN1ActionFunction_cc_1380761786
                0xffffffff88111b11                CSN1ActionFunction_cc_2175835239
                0xffffffff88111b8d                CSN1ActionFunction_cc_31439822
                0xffffffff88111c49                CSN1ActionFunction_cc_514932597
                0xffffffff88111d05                CSN1ActionFunction_cc_1823305613
                0xffffffff88111d81                CSN1ActionFunction_cc_807986200
                0xffffffff88111dfd                CSN1ActionFunction_cc_1927831968
                0xffffffff88111e79                CSN1ActionFunction_cc_4186688045
                0xffffffff88111f01                CSN1ActionFunction_cc_1983885861
                0xffffffff8811203d                CSN1ActionFunction_cc_1265354533
                0xffffffff88112059                CSN1ActionFunction_cc_276985648
                0xffffffff88112075                CSN1ActionFunction_cc_2097448042
                0xffffffff88112091                CSN1ActionFunction_cc_1862643296
                0xffffffff881120ad                CSN1ActionFunction_cc_1877579283
                0xffffffff881120c9                CSN1ActionFunction_cc_1502008668
                0xffffffff881120e5                CSN1ActionFunction_cc_1267203926
                0xffffffff88112101                CSN1ActionFunction_cc_2785632990
                0xffffffff8811211d                CSN1ActionFunction_cc_2800048813
                0xffffffff88112139                CSN1ActionFunction_cc_2190160872
                0xffffffff88112155                CSN1ActionFunction_cc_4010655922
                0xffffffff88112171                CSN1ActionFunction_cc_42163514
                0xffffffff8811218d                CSN1ActionFunction_cc_637602828
                0xffffffff881121a9                CSN1ActionFunction_cc_2694560168
                0xffffffff881121c5                CSN1ActionFunction_cc_2692186587
                0xffffffff881121e1                CSN1ActionFunction_cc_3020441812
                0xffffffff881121fd                CSN1ActionFunction_cc_2216290462
                0xffffffff88112219                CSN1ActionFunction_cc_3919518660
                0xffffffff88112235                CSN1ActionFunction_cc_3441249010
                0xffffffff88112251                CSN1ActionFunction_cc_370191430
                0xffffffff8811226d                CSN1ActionFunction_cc_2073452316
                0xffffffff88112289                CSN1ActionFunction_cc_1595149866
                0xffffffff881122a5                CSN1ActionFunction_cc_254209780
                0xffffffff881122c1                CSN1ActionFunction_cc_732217282
                0xffffffff881122dd                CSN1ActionFunction_cc_726173617
                0xffffffff881122f9                CSN1ActionFunction_cc_2929418158
                0xffffffff88112315                CSN1ActionFunction_cc_3886022082
                0xffffffff88112331                CSN1ActionFunction_cc_3883124145
                0xffffffff8811234d                CSN1ActionFunction_cc_3273501940
                0xffffffff88112369                CSN1ActionFunction_cc_2316897944
                0xffffffff88112385                CSN1ActionFunction_cc_1994380449
                0xffffffff881123a1                CSN1ActionFunction_cc_3226779983
                0xffffffff881123bd                CSN1ActionFunction_cc_2916233749
                0xffffffff881123d9                CSN1ActionFunction_cc_1071347405
                0xffffffff881123f5                CSN1ActionFunction_cc_1381860759
                0xffffffff88112411                CSN1ActionFunction_cc_2303746851
                0xffffffff8811242d                CSN1ActionFunction_cc_458827771
                0xffffffff88112449                CSN1ActionFunction_cc_3569823795
                0xffffffff88112465                CSN1ActionFunction_cc_2646839903
                0xffffffff88112481                CSN1ActionFunction_cc_3108094825
                0xffffffff8811249d                CSN1ActionFunction_cc_1187935467
                0xffffffff881124b9                CSN1ActionFunction_cc_4031078661
                0xffffffff881124d5                CSN1ActionFunction_cc_3233347900
                0xffffffff881124f1                CSN1ActionFunction_cc_400286796
                0xffffffff8811250d                CSN1ActionFunction_cc_867536137
                0xffffffff88112529                CSN1ActionFunction_cc_389536831
                0xffffffff88112545                CSN1ActionFunction_cc_2058432357
                0xffffffff88112561                CSN1ActionFunction_cc_1580432979
                0xffffffff8811257d                CSN1ActionFunction_cc_2713504209
                0xffffffff88112599                CSN1ActionFunction_cc_2235472103
                0xffffffff881125b5                CSN1ActionFunction_cc_3904400317
                0xffffffff881125d1                CSN1ActionFunction_cc_61091139
                0xffffffff881125ed                CSN1ActionFunction_cc_2659909604
                0xffffffff88112609                CSN1ActionFunction_cc_3616431496
                0xffffffff88112625                CSN1ActionFunction_cc_2277293398
                0xffffffff88112641                CSN1ActionFunction_cc_2270201125
                0xffffffff8811265d                CSN1ActionFunction_cc_2738809952
                0xffffffff88112679                CSN1ActionFunction_cc_3939923583
                0xffffffff88112695                CSN1ActionFunction_cc_3461621577
                0xffffffff881126b1                CSN1ActionFunction_cc_30027905
                0xffffffff881126cd                CSN1ActionFunction_cc_3670529589
                0xffffffff881126e9                CSN1ActionFunction_cc_3074499951
                0xffffffff88112705                CSN1ActionFunction_cc_296027977
                0xffffffff88112721                CSN1ActionFunction_cc_902524428
                0xffffffff8811273d                CSN1ActionFunction_cc_290012986
                0xffffffff88112759                CSN1ActionFunction_cc_891770495
                0xffffffff88112775                CSN1ActionFunction_cc_1486988581
                0xffffffff88112791                CSN1ActionFunction_cc_2209104785
                0xffffffff881127ad                CSN1ActionFunction_cc_3628462980
                0xffffffff881127c9                CSN1ActionFunction_cc_1016208246
                0xffffffff881127e5                CSN1ActionFunction_cc_2444061083
                0xffffffff88112801                CSN1ActionFunction_cc_1252036399
                0xffffffff8811281d                CSN1ActionFunction_cc_656833653
                0xffffffff88112839                CSN1ActionFunction_cc_1847778841
                0xffffffff88112855                CSN1ActionFunction_cc_1402391965
                0xffffffff88112871                CSN1ActionFunction_cc_1997839531
                0xffffffff8811288d                CSN1ActionFunction_cc_3635006455
                0xffffffff881128a9                CSN1ActionFunction_cc_4230716097
                0xffffffff881128c5                CSN1ActionFunction_cc_3039770797
                0xffffffff881128e1                CSN1ActionFunction_cc_3245584694
                0xffffffff881128fd                CSN1ActionFunction_cc_1400567278
                0xffffffff88112919                CSN1ActionFunction_cc_2012783832
                0xffffffff88112935                CSN1ActionFunction_cc_444487554
                0xffffffff88112951                CSN1ActionFunction_cc_3857833984
                0xffffffff8811296d                CSN1ActionFunction_cc_2901754476
                0xffffffff88112989                CSN1ActionFunction_cc_2632245798
                0xffffffff881129a5                CSN1ActionFunction_cc_3096087395
                0xffffffff881129c1                CSN1ActionFunction_cc_2289505114
                0xffffffff881129dd                CSN1ActionFunction_cc_2617825877
                0xffffffff881129f9                CSN1ActionFunction_cc_3093738256
                0xffffffff88112a15                CSN1ActionFunction_cc_1347901770
                0xffffffff88112a81                CSN1ActionFunction_cc_2506752940
                0xffffffff88112aed                CSN1ActionFunction_cc_2677374129
                0xffffffff88112b59                CSN1ActionFunction_cc_4059339386
                0xffffffff88112bdd                CSN1ActionFunction_cc_2079674404
                0xffffffff88112c61                CSN1ActionFunction_cc_2987918999
                0xffffffff88112ce5                CSN1ActionFunction_cc_1659318371
                0xffffffff88112d69                CSN1ActionFunction_cc_4165700834
                0xffffffff88112dd1                CSN1ActionFunction_cc_3833634472
                0xffffffff88112e39                CSN1ActionFunction_cc_1817136603
                0xffffffff88112eb9                CSN1ActionFunction_cc_2281177646
                0xffffffff88112f39                CSN1ActionFunction_cc_2533015138
                0xffffffff88112fb9                CSN1ActionFunction_cc_2940555322
                0xffffffff88112fe9                CSN1ActionFunction_cc_1935931641
                0xffffffff8811306d                CSN1ActionFunction_cc_564128041
                0xffffffff881130ed                CSN1ActionFunction_cc_535937020
                0xffffffff8811316d                CSN1ActionFunction_cc_3462442878
                0xffffffff881131ed                CSN1ActionFunction_cc_923475874
                0xffffffff8811326d                CSN1ActionFunction_cc_3685612832
                0xffffffff881132ed                CSN1ActionFunction_cc_2291995947
                0xffffffff8811336d                CSN1ActionFunction_cc_2030010
                0xffffffff881133dd                CSN1ActionFunction_cc_1128824597
                0xffffffff8811346d                CSN1ActionFunction_cc_676031829
                0xffffffff881134fd                CSN1ActionFunction_cc_1148664851
                0xffffffff88113605                CSN1ActionFunction_cc_3157119530
                0xffffffff88113691                CSN1ActionFunction_cc_3651848284
                0xffffffff8811371d                CSN1ActionFunction_cc_379913519
                0xffffffff881137a9                CSN1ActionFunction_cc_2295125808
                0xffffffff88113835                CSN1ActionFunction_cc_2597421497
                0xffffffff881138c1                CSN1ActionFunction_cc_1136845788
                0xffffffff8811394d                CSN1ActionFunction_cc_4049487921
                0xffffffff881139d9                CSN1ActionFunction_cc_1440400685
                0xffffffff88113a71                CSN1ActionFunction_cc_1746019740
                0xffffffff88113afd                CSN1ActionFunction_cc_639863330
                0xffffffff88113c55                CSN1ActionFunction_cc_2249596254
                0xffffffff88113cc9                CSN1ActionFunction_cc_3089161910
                0xffffffff88113d3d                CSN1ActionFunction_cc_3355616505
                0xffffffff88113d7d                CSN1ActionFunction_cc_4160415732
                0xffffffff88113dbd                CSN1ActionFunction_cc_1389037149
                0xffffffff88113dfd                CSN1ActionFunction_cc_745283224
                0xffffffff88113e49                CSN1ActionFunction_cc_3047440023
                0xffffffff88113e91                CSN1ActionFunction_cc_3915597396
                0xffffffff88113ecd                CSN1ActionFunction_cc_2319916898
                0xffffffff88113f09                CSN1ActionFunction_cc_2276251829
                0xffffffff88113f45                CSN1ActionFunction_cc_870274782
                0xffffffff88113f81                CSN1ActionFunction_cc_2726219986
                0xffffffff88113f95                CSN1ActionFunction_cc_3073494361
                0xffffffff88113fa9                CSN1ActionFunction_cc_708717615
                0xffffffff88113fbd                CSN1ActionFunction_cc_1449069044
                0xffffffff88113fd1                CSN1ActionFunction_cc_3617440091
                0xffffffff88113fe5                CSN1ActionFunction_cc_1756779618
                0xffffffff88113ff9                CSN1ActionFunction_cc_4122588436
                0xffffffff8811400d                CSN1ActionFunction_cc_1042473108
                0xffffffff88114021                CSN1ActionFunction_cc_1111737679
                0xffffffff88114035                CSN1ActionFunction_cc_3746309177
                0xffffffff88114049                CSN1ActionFunction_cc_3539756953
                0xffffffff8811405d                CSN1ActionFunction_cc_1341359855
                0xffffffff88114071                CSN1ActionFunction_cc_3411077250
                0xffffffff88114085                CSN1ActionFunction_cc_715268812
                0xffffffff88114099                CSN1ActionFunction_cc_3081618362
                0xffffffff881140ad                CSN1ActionFunction_cc_3419203169
                0xffffffff881140c1                CSN1ActionFunction_cc_1455621911
                0xffffffff881140d5                CSN1ActionFunction_cc_856600023
                0xffffffff881140e9                CSN1ActionFunction_cc_2919320737
                0xffffffff881140fd                CSN1ActionFunction_cc_3529533818
                0xffffffff88114111                CSN1ActionFunction_cc_1332709388
                0xffffffff88114125                ENCODE_c_Facility_IE_MO
                0xffffffff88114185                DECODE_c_Facility_IE
                0xffffffff881154e5                GROUP_cc_FREE_TDchD_Data
                0xffffffff881154e9                GROUP_cc_SETPRESENT_TDchD_Data
                0xffffffff881154ed                GROUP_cc_FREE_TmmDl_Data
                0xffffffff881154f1                GROUP_cc_SETPRESENT_TmmDl_Data
                0xffffffff881154f5                GROUP_cc_FREE_TccDl_Data
                0xffffffff881154f9                GROUP_cc_FREE_TCcch_Data
                0xffffffff881154fd                GROUP_cc_SETPRESENT_TCcch_Data
                0xffffffff88115501                GROUP_cc_SETPRESENT_TccDl_Data
                0xffffffff881155b9                cc_SetDecode_ccDl
                0xffffffff88115a41                CFW_GetAoState
                0xffffffff88115a5d                CFW_SetAoState
                0xffffffff88115a79                CFW_GetAoUserData
                0xffffffff88115aa9                CFW_SetServiceId
                0xffffffff88115ab5                CFW_SetUTI
                0xffffffff88115ae5                CFW_GetUTI
                0xffffffff88115b05                CFW_GetUsingUTI
                0xffffffff88115b25                CFW_GetSimID
                0xffffffff88115b8d                CFW_RegSysDefaultProc
                0xffffffff88115b99                CFW_SetSpecialAo
                0xffffffff88115c6d                CallNotifyFun
                0xffffffff88115d2d                CFW_RegisterCreateAoProc
                0xffffffff88115dd5                CFW_GetAoHandle
                0xffffffff88115f0d                CFW_GetAoCount
                0xffffffff88115fe1                CFW_IsFreeUTI
                0xffffffff881162a1                CFW_RegisterAo
                0xffffffff8811651d                CFW_AoTriggerTaskSch
                0xffffffff88116541                CFW_SetAoProcCode
                0xffffffff881165e5                CFW_RelaseUsingUTI
                0xffffffff881165f9                CFW_UnRegisterAO
                0xffffffff8811696d                AllocUsingUTI
                0xffffffff881169b1                CFW_GetFreeUTI
                0xffffffff88116b19                CFW_AoInit
                0xffffffff88116b69                CFW_AoScheduler
                0xffffffff881178f5                CFW_SetEventProc
                0xffffffff88117939                CFW_PostNotifyEvent
                0xffffffff88117b61                CFW_PostGPRSNotifyEvent
                0xffffffff88117c01                CFW_GetEventQueue
                0xffffffff88117c49                CFW_Exit
                0xffffffff88117c69                CFW_Init
                0xffffffff88117cf5                BAL_Run
                0xffffffff88117d61                CFW_BaseInit
                0xffffffff88117d65                CFW_ServicesExit
                0xffffffff88117d7d                CFW_BalSetupHwCbs
                0xffffffff88117d9d                CFW_ServicesInit
                0xffffffff88117de9                CFW_BalAudCallStop
                0xffffffff88117e11                CFW_BalAudCallStart
                0xffffffff88117e39                CFW_MemAllocMessageStructure
                0xffffffff88117ec1                CFW_BalSendMessage
                0xffffffff88117f39                CFW_SendSclData
                0xffffffff88117fe1                CFW_SetActiveSimCount
                0xffffffff88118001                CFW_ReceiveStopStackCNF
                0xffffffff8811801d                CFW_SendStartStackREQ
                0xffffffff88118049                CFW_SendSclMessage
                0xffffffff88118249                CFW_CcGetCallStatus
                0xffffffff88118259                CFW_CcPlayTone
                0xffffffff88118455                CFW_CcReleaseCall
                0xffffffff88118515                CFW_CcEmcDial
                0xffffffff88118761                CFW_CcGetCurrentCall
                0xffffffff881188bd                CFW_CcAcceptSpeechCall
                0xffffffff88118a01                CFW_CcInitiateSpeechCall
                0xffffffff88118c9d                CFW_StartRingTone
                0xffffffff88118cdd                CFW_CcInit
                0xffffffff88118d31                _AutoRedail
                0xffffffff88118df1                _Check4Redail
                0xffffffff88118e2d                CloseAudio
                0xffffffff88118e91                CFW_CMUnRegisterAO
                0xffffffff8811b761                CmMTAoProc
                0xffffffff8811ba19                CFW_CheckSimId
                0xffffffff8811ba29                IsDTMFChar
                0xffffffff8811ba5d                CC_SendCrssInfoNotify
                0xffffffff8811bd7d                CC_GetIndex
                0xffffffff8811be35                CC_ModifyToMeetingHldState
                0xffffffff8811bec1                CC_ModifyOtherAoState
                0xffffffff8811bf9d                CC_RetrieveMPTY
                0xffffffff8811c025                CC_HoldMPTY_Acceptcall
                0xffffffff8811c0b5                CC_TerminateOne
                0xffffffff8811c159                CC_ProcNwReleaseCmplMsg
                0xffffffff8811c20d                CC_RetrieveCall
                0xffffffff8811c2c5                CC_StartDTMF
                0xffffffff8811c311                CC_Alert
                0xffffffff8811c359                CC_CallConfirm
                0xffffffff8811c3e9                CC_ReleaseCmplt
                0xffffffff8811c48d                CC_ProcNwReleaseMsg
                0xffffffff8811c625                CC_Disc
                0xffffffff8811c6a5                CC_Release
                0xffffffff8811c73d                CC_ProcNwDisconnectMsg
                0xffffffff8811c815                CC_Facility
                0xffffffff8811c8a1                CallingPartyrRaw2BCD
                0xffffffff8811c8d9                CFW_CfgGetClip
                0xffffffff8811c949                CFW_CfgSetClip
                0xffffffff8811c9c9                CFW_CfgGetColp
                0xffffffff8811ca7d                CFW_CfgGetClir
                0xffffffff8811caed                CFW_CfgGetCallWaiting
                0xffffffff8811cb5d                CFW_CfgGetSSN
                0xffffffff8811cbf5                CFW_CfgSetSSN
                0xffffffff8811ccc9                CFW_CfgGetIndicatorEvent
                0xffffffff8811cd21                CFW_CfgSetCharacterSet
                0xffffffff8811cd5d                CFW_CfgSetIndicatorEventInfo
                0xffffffff8811d085                CFW_CfgGetIndicatorEventInfo
                0xffffffff8811d1ad                CFW_CfgSetIMSI
                0xffffffff8811d20d                CFW_CfgGetIMSI
                0xffffffff8811d2cd                CFW_CfgSetSoftReset
                0xffffffff8811d319                CFW_CfgRestoreFactoryProfile
                0xffffffff8811d351                CFW_CfgGetUserProfile
                0xffffffff8811d4a9                CFW_CfgNumRangeCheck
                0xffffffff8811d539                CFW_CfgNwGetDetectMBS
                0xffffffff8811d549                CFW_CfgNwGetCompanyName
                0xffffffff8811d5c9                CFW_CfgNwGetOperatorName
                0xffffffff8811d681                CFW_CfgGetNwStatus
                0xffffffff8811d6ed                CFW_CfgSetNwStatus
                0xffffffff8811d781                CFW_CfgNwGetFM
                0xffffffff8811d809                CFW_CfgNwSetFM
                0xffffffff8811d85d                gprs_GetGprsSum
                0xffffffff8811d895                gprs_SetGprsSum
                0xffffffff8811d8cd                CFW_CfgNwGetNetWorkMode
                0xffffffff8811d971                CFW_CfgNwSetNetWorkMode
                0xffffffff8811d9e1                CFW_CfgNwGetFrequencyBand
                0xffffffff8811da4d                CFW_CfgGetStoredPlmnList
                0xffffffff8811db55                CFW_CfgSetStoredPlmnList
                0xffffffff8811dc9d                CFW_CfgGetSmsShowTextModeParam
                0xffffffff8811dcf1                CFW_CfgSetSmsShowTextModeParam
                0xffffffff8811dd5d                CFW_CfgGetSmsFormat
                0xffffffff8811ddb1                CFW_CfgSetSmsFormat
                0xffffffff8811de31                CFW_CfgGetSmsStorageInfo
                0xffffffff8811deb1                CFW_CfgSetSmsStorageInfo
                0xffffffff8811df2d                CFW_CfgGetNewSmsOption
                0xffffffff8811dfb9                CFW_CfgSetNewSmsOption
                0xffffffff8811e089                CFW_CfgSetDefaultSmsParam
                0xffffffff8811e0e9                CFW_CfgGetDefaultSmsParam
                0xffffffff8811e18d                CFW_CfgGetSmsParam
                0xffffffff8811e225                CFW_CfgSetSmsParam
                0xffffffff8811e555                CFW_CfgGetSmsFullForNew
                0xffffffff8811e5cd                CFW_CfgSetSmsFullForNew
                0xffffffff8811e639                CFW_CfgGetSmsOverflowInd
                0xffffffff8811e69d                CFW_CfgSetSmsOverflowInd
                0xffffffff8811e711                CFW_CfgGetSmsStorage
                0xffffffff8811e78d                CFW_CfgSetTimeParam
                0xffffffff8811e7d9                IsCidSavedInApp
                0xffffffff8811e7f5                getDNSServer
                0xffffffff8811e81d                ispdpactive
                0xffffffff8811e83d                Gprs_MSG_Redirect
                0xffffffff8811e85d                CFW_StopDetachTimer
                0xffffffff8811e8c1                CFW_StartDetachTimer
                0xffffffff8811e951                CFW_SetCID
                0xffffffff8811e9cd                CFW_GetFreeCID
                0xffffffff8811ea61                CFW_GprsGetReqQos
                0xffffffff8811eadd                CFW_GprsSetReqQos
                0xffffffff8811eb75                CFW_ReleaseCID
                0xffffffff8811ec35                CFW_GprsRemovePdpCxt
                0xffffffff8811ee35                CFW_GprsGetPdpCxt
                0xffffffff8811f061                CFW_GprsSetPdpCxt
                0xffffffff8811f31d                CFW_GetGprsActState
                0xffffffff8811f3b1                do_store_packet
                0xffffffff8811f44d                CFW_GprsSendData
                0xffffffff8811f60d                do_send_stored_packet
                0xffffffff8811f6e9                CFW_GprsGetPdpAddr
                0xffffffff8811f881                CFW_GprsCtxModifyAcc
                0xffffffff8811f979                CFW_GprsActEX
                0xffffffff8811fc8d                CFW_GprsAct
                0xffffffff88121009                GprsMTAoProc
                0xffffffff88121131                Gprs_SetAppCngInit
                0xffffffff8812117d                CFW_GprsInit
                0xffffffff88121299                CFW_GprsPdpApi2Addr
                0xffffffff881212b9                CFW_GprsPdpAddr2Api
                0xffffffff881212dd                CFW_GprsApi2Qos
                0xffffffff8812131d                CFW_GprsQos2Api
                0xffffffff881213a5                CFW_SetCommEX
                0xffffffff881213b5                CFW_NW_SetCSDelayTime
                0xffffffff881213dd                CFW_NwGetLockBCCH
                0xffffffff881213e9                CFW_GetNWTimerOutFlag
                0xffffffff881213f5                CFW_SetNWTimerOutFlag
                0xffffffff88121401                CFW_NW_SendDetectMBSMessage
                0xffffffff88121515                CFW_ChangeRoamByPLMNName
                0xffffffff88121711                CFW_GprsGetstatus
                0xffffffff881217cd                CFW_GetGprsAttState
                0xffffffff88121871                CFW_NwGetStatus
                0xffffffff88121925                CFW_NwGetSignalQuality
                0xffffffff88121a3d                CFW_GprsAttEX
                0xffffffff88121b89                CFW_GprsAtt
                0xffffffff88121c59                CFW_NwDeRegister
                0xffffffff88121ce5                _SendNetWorkInfo2Uplayer
                0xffffffff88122331                CFW_NwSetRegistration
                0xffffffff88122571                CFW_NWDelay
                0xffffffff881226dd                CFW_StackInit
                0xffffffff88122a11                CFW_GetComm
                0xffffffff88122a51                CFW_NwDeRegisterEX
                0xffffffff88122b35                CFW_NwInit
                0xffffffff88122cb1                CFW_SetComm
                0xffffffff88124355                _ProcessLockBCCHNWRsp
                0xffffffff8812438d                CFW_SetCommSIMOpen
                0xffffffff88124441                CFW_SetFlightModeProc
                0xffffffff88124a6d                PlmnApi2Array
                0xffffffff88124a99                plmnArray2Api
                0xffffffff88124ac1                NetStatusApi2At
                0xffffffff88124ae9                GprsStatusApi2At
                0xffffffff88124b11                CFW_GetSimOpenStatus
                0xffffffff88124b1d                CFW_SetSimOpenStatus
                0xffffffff88124b29                CFW_SimUnRegisterAll
                0xffffffff88124b9d                _SetAutoCallTimer
                0xffffffff88124c05                CFW_GetAutoCallFlagFromRam
                0xffffffff88124c59                CFW_GetAutoCallFreqBand
                0xffffffff88124cc9                CFW_GetAutoCallCmd
                0xffffffff88124cfd                CFW_SetAutoCallResultSavingStatus
                0xffffffff88124d29                CFW_AutoCallResultAvail
                0xffffffff88124d51                _AutoCallTimerProc
                0xffffffff88124d91                CSW_SAT_InitEX
                0xffffffff88124dd5                CFW_EMCDial
                0xffffffff88124e69                CFW_ShellProc
                0xffffffff88125e99                CFW_ShellControl
                0xffffffff88125f8d                cfw_IMSItoASC
                0xffffffff88125fe5                CFW_PLMNtoBCDEX
                0xffffffff88126091                CFW_GetSimCardID
                0xffffffff881260c5                SimParseDedicatedStatus
                0xffffffff881263bd                Sim_ParseSW1SW2
                0xffffffff88126939                SimRehabilitateReq
                0xffffffff881269a9                SimReadRecordReq
                0xffffffff88126a51                SimDedicFileStatusReq
                0xffffffff88126aa5                SimElemFileStatusReq
                0xffffffff88126b05                SimReadBinaryReq
                0xffffffff88126ba9                SimRetryReq
                0xffffffff88126bf5                CFW_SimGetMeProfile
                0xffffffff88126c65                SimUnblockCHVReq
                0xffffffff88126d09                SimVerifyCHVReq
                0xffffffff88126d91                SimSeekReq
                0xffffffff88126e39                SimUpdateRecordReq
                0xffffffff88126ef1                SimSetUsimPbk
                0xffffffff88126f75                SimSelectApplicationReq
                0xffffffff88126fed                SimUpdateBinaryReq
                0xffffffff88127069                SimResetReq
                0xffffffff881270b5                CFW_SimInit
                0xffffffff88127221                CFW_SimInitStage1
                0xffffffff881272b5                CFW_SimInitStage2
                0xffffffff88127311                CFW_SimInitStage3
                0xffffffff881273c1                CFW_SimResetEx
                0xffffffff88127459                SetTestSim
                0xffffffff8812746d                isTestSim
                0xffffffff88127489                CFW_GetICCID
                0xffffffff881274a5                CFW_SetSimStatus
                0xffffffff881274b9                CFW_GetSimStatus
                0xffffffff88127509                CFW_GetSimType
                0xffffffff88127515                CFW_GetSimADNType
                0xffffffff88127521                CFW_SetMNCLen
                0xffffffff8812752d                CFW_GetMNCLen
                0xffffffff8812753d                CFW_GetStackSimFileID
                0xffffffff88127819                CFW_USimInitStage1Proc
                0xffffffff88127bf9                CFW_SetSimSPN
                0xffffffff88127c21                CFW_GetSimSPN
                0xffffffff88127c91                CFW_SimInitStage1Proc
                0xffffffff881280b9                CFW_USimInitStage3Proc
                0xffffffff88128cb5                CFW_SimInitStage3Proc
                0xffffffff881295c1                CFW_InitVar
                0xffffffff88129635                CFW_SimResetExProc
                0xffffffff8812a099                CFW_SimInitStageBootProc
                0xffffffff8812aaed                CFW_SimEnterAuthenticationEX
                0xffffffff8812ac81                CFW_SimEnterAuthenticationProc
                0xffffffff8812b3d5                CFW_SimSetLP
                0xffffffff8812b3e5                CFW_SimGetPS
                0xffffffff8812b3e9                CFW_SimGetPF
                0xffffffff8812b3ed                CFW_SimGetPrefOperatorList
                0xffffffff8812b465                CFW_SimGetProviderId
                0xffffffff8812b4d1                CFW_USimSetECC
                0xffffffff8812b515                CFW_SimSetECC
                0xffffffff8812b581                SimSpySimCard
                0xffffffff8812b669                CFW_SimMisGetPrefListProcEX
                0xffffffff8812bb19                CFW_SimMisGetProviderIdProc
                0xffffffff8812bd89                getLengthTLV
                0xffffffff8812bda1                getCommandDetail
                0xffffffff8812bdc9                getDuration
                0xffffffff8812bded                getItemIdentifier
                0xffffffff8812be0d                getResponseLength
                0xffffffff8812be31                getTone
                0xffffffff8812be51                getItemsNextActionIndicator
                0xffffffff8812be75                getIconIdentifier
                0xffffffff8812be99                getItemIconIdenList
                0xffffffff8812bec1                getTimerIden
                0xffffffff8812bee1                getTimerValue
                0xffffffff8812bf01                getImmediateRSP
                0xffffffff8812bf1d                getBrowserIden
                0xffffffff8812bf3d                getAddress
                0xffffffff8812bf99                getAlphaIden
                0xffffffff8812bfe9                getSubAddress
                0xffffffff8812c039                getCapabilityCP
                0xffffffff8812c08d                getSMSTPDU
                0xffffffff8812c0e1                getSSString
                0xffffffff8812c141                getTextString
                0xffffffff8812c1a1                getUSSDString
                0xffffffff8812c201                getFileList
                0xffffffff8812c261                getDefaultText
                0xffffffff8812c2c1                getEventList
                0xffffffff8812c315                getDTMFString
                0xffffffff8812c369                getURL
                0xffffffff8812c3bd                getBearer
                0xffffffff8812c411                getProvisoinFileRef
                0xffffffff8812c465                packGSM7bit
                0xffffffff8812c505                getItem
                0xffffffff8812c57d                fetchDTMF
                0xffffffff8812c671                fetchLaunchBrowser
                0xffffffff8812cb9d                fetchPlayTone
                0xffffffff8812cc6d                fetchSelectItem
                0xffffffff8812cee1                fetchSetupMenu
                0xffffffff8812d191                CreateTerminalResponse
                0xffffffff8812d1e5                sendCommonRsp
                0xffffffff8812d2a9                sendGetChannelStatusRsp
                0xffffffff8812d32d                sendGetReadStatusRsp
                0xffffffff8812d3ed                sendEnvelopePDU
                0xffffffff8812d481                sendMenuSelection
                0xffffffff8812d53d                sendCallControl
                0xffffffff8812d5e9                sendUSSDRsp
                0xffffffff8812d781                sendPollIntervalRsp
                0xffffffff8812d849                sendEventDownload
                0xffffffff8812d8b1                sendSMSPPDownload
                0xffffffff8812daed                sendGetInputRsp
                0xffffffff8812dbb9                sendGetInKeyRsp
                0xffffffff8812dc85                sendSelectItemRsp
                0xffffffff8812dd89                sendProvideLocalInfoRsp
                0xffffffff8812dfd1                fetchSetupEventList
                0xffffffff8812e03d                sendTimerExpiration
                0xffffffff8812e0b9                sendResponsePDU
                0xffffffff8812e15d                fetchTimerManagement
                0xffffffff8812e1dd                fetchSendUSSD
                0xffffffff8812e319                fetchSendSS
                0xffffffff8812e455                fetchPollInterval
                0xffffffff8812e4b5                fetchCallSetup
                0xffffffff8812e811                fetchSendSMS
                0xffffffff8812ea6d                fetchGetInput
                0xffffffff8812eb89                fetchDisplayText
                0xffffffff8812ec29                fetchRefresh
                0xffffffff8812eedd                processFetchInd
                0xffffffff8812fc11                CFW_SatResponse
                0xffffffff8812fdbd                CFW_SatActivation
                0xffffffff8812fe4d                CFW_GetSATIndFormate
                0xffffffff8812fe59                _SetTimerExpirationDownloadData
                0xffffffff8812fe7d                _ResetSimTimer
                0xffffffff8812fefd                CFW_SatActivationProc
                0xffffffff88130215                SendRefreshSclMsg
                0xffffffff881302e9                CFW_SatResponseProc
                0xffffffff881307b9                _SATTimerProc
                0xffffffff8813081d                CFW_DecomposePDU
                0xffffffff881312c9                CFW_SimSmsInit
                0xffffffff88131391                CFW_SimSetSmsParameters
                0xffffffff8813149d                CFW_SimGetSmsParameters
                0xffffffff88131541                CFW_SimListMessage
                0xffffffff88131635                CFW_SimReadMessage
                0xffffffff881316f1                CFW_SimPatchEX
                0xffffffff8813177d                CFW_SimPatch
                0xffffffff88131811                CFW_SimGetSmsTotalNum
                0xffffffff881318bd                CFW_SimDeleteMessage
                0xffffffff8813199d                CFW_SimWriteMessage
                0xffffffff88131b15                cfw_initSimSMSSeek
                0xffffffff88131b69                cfw_setSimSMSImage
                0xffffffff88131cd1                CFW_SimGetSmsParametersProc
                0xffffffff881321ed                CFW_SimReadMessageProc
                0xffffffff881323d5                CFW_SimSetSmsParametersProc
                0xffffffff881329a1                CFW_SimDeleMessageProc
                0xffffffff88132ee9                CFW_SimPatchProc
                0xffffffff88133139                CFW_SimWriteMessageProc
                0xffffffff881334cd                CFW_SimPatchEXProc
                0xffffffff8813374d                cfw_printSimSMSImage
                0xffffffff881337e1                cfw_seekSimSMSNextRecord
                0xffffffff88133879                CFW_SimListMessageProc
                0xffffffff88133b95                cfw_initSimSMSRecordsImage
                0xffffffff88133be9                CFW_SimSmsInitProc
                0xffffffff88134011                CFW_SimGetSmsTotalNumProc
                0xffffffff881341d5                CFW_CbSimRead
                0xffffffff88134269                CB_Rec_Reg
                0xffffffff88134309                CFW_CbAoProc
                0xffffffff88134671                CFW_CbReadFile
                0xffffffff88134701                CFW_CbSimReadProc
                0xffffffff88134c15                CFW_CbInit
                0xffffffff88134cb1                SMS_SFUser2SimEX
                0xffffffff88134d15                SMS_SFSim2UserEX
                0xffffffff88134d79                SMS_HaveFreeSlotEX
                0xffffffff88134dbd                SMS_GetStorageInfoEX
                0xffffffff88134e11                CFW_MeGetStorageInfo
                0xffffffff88134e75                SMS_Read2EX
                0xffffffff88134ecd                CFW_MeListMessage
                0xffffffff8813501d                SMS_ReadEX
                0xffffffff88135069                CFW_MeReadMessage
                0xffffffff881350c1                SMS_WriteEX
                0xffffffff88135115                SMS_AppendEX
                0xffffffff8813517d                CFW_MeWriteMessage
                0xffffffff88135271                SMS_DeleteFromMeByIndexEX
                0xffffffff88135289                SMS_DeleteFromMeByStatusEX
                0xffffffff88135311                CFW_MeDeleteMessage
                0xffffffff881353ad                CFW_GprsGetSmsSeviceMode
                0xffffffff881353b9                CFW_CfgGetClass0SMSSetting
                0xffffffff881353c5                CFW_TypeOfSMS
                0xffffffff88135559                CFW_SmsInitCompleteProc
                0xffffffff881356bd                sms_InitAoProc
                0xffffffff88135a21                sms_MTAoProc
                0xffffffff88135e79                sms_SetUnRead2ReadProc
                0xffffffff88136205                CFW_GetPduUDHI
                0xffffffff88136279                sms_SendProc
                0xffffffff88136cc1                sms_ListAoProc
                0xffffffff881375ad                sms_DleteAoProc
                0xffffffff88137d31                sms_mt_Reg
                0xffffffff88137d81                CFW_SmsMtInit
                0xffffffff88137da1                CFW_SmsMoInit
                0xffffffff88137e3d                CFW_GetSMSConcat
                0xffffffff88137e49                CFW_SetSMSConcat
                0xffffffff88137e81                CFW_SmsInitComplete
                0xffffffff88137f2d                CFW_SmsGetMessageNode
                0xffffffff88138031                CFW_SmsListMessages
                0xffffffff881381b5                CFW_SmsSetUnRead2Read
                0xffffffff881382f1                CFW_SmsDeleteMessage
                0xffffffff88138451                CFW_SmsSendMessage
                0xffffffff88138645                sms_mt_SerializeTime
                0xffffffff881387d5                sms_tool_CheckDcs
                0xffffffff8813886d                _GetRealTOOA
                0xffffffff88138a99                sms_tool_DecomposePDU
                0xffffffff881396f1                sms_mo_Parse_PDU
                0xffffffff8813982d                sms_tool_SMSTime_TO_SCTS
                0xffffffff88139969                SUL_UserDialNum2StackDialNum
                0xffffffff88139a05                sms_tool_ComposePDU
                0xffffffff8813b0c1                sms_mo_SmsPPSendMMAReq
                0xffffffff8813b129                sms_mt_SmsPPErrorReq
                0xffffffff8813b18d                sms_mt_SmsPPAckReq
                0xffffffff8813b1fd                sms_mo_ComposeLongPDU
                0xffffffff8813b625                sms_mo_Parse_SmsPPErrorInd
                0xffffffff8813b6b5                sms_mt_Parse_SmsPPReceiveInd_SR
                0xffffffff8813b89d                sms_mt_Parse_SmsPPReceiveInd
                0xffffffff8813c3b5                sms_mt_Parse_LongMSGPara
                0xffffffff8813c501                sms_mt_Store_SmsPPReceiveInd
                0xffffffff8813cbd5                CFW_TcpipSocketConnect
                0xffffffff8813cc51                CFW_GethostbynameEX
                0xffffffff8813cca5                CFW_Gethostbyname
                0xffffffff8813cd75                CFW_PostBearerLosingInd
                0xffffffff8813cded                CFW_PostConnectRSP
                0xffffffff8813ce55                CFW_PostCloseRSP
                0xffffffff8813cebd                sys_post_ICMPevent_to_APP
                0xffffffff8813cf49                sys_post_DNSevent_to_APP
                0xffffffff8813cfd5                CFW_TcpipSocketBind
                0xffffffff8813d001                CFW_TcpipSocketSendto
                0xffffffff8813d035                CFW_TcpipSocketClose
                0xffffffff8813d0b5                CFW_TcpipSocketRecvfrom
                0xffffffff8813d0e5                CFW_TcpipSocketRecv
                0xffffffff8813d101                CFW_TcpipSocketSend
                0xffffffff8813d12d                CFW_TcpipSocketEX
                0xffffffff8813d1a5                CFW_TcpipSocket
                0xffffffff8813d1c1                CFW_TcpipInetAddr
                0xffffffff8813d1d1                lwip_tcp_event
                0xffffffff8813d33d                sys_post_event_to_APS
                0xffffffff8813d585                CFW_SsMtReg
                0xffffffff8813d661                CFW_SsSendUSSD
                0xffffffff8813de8d                CFW_SendRelComMsg
                0xffffffff8813def5                CFW_SendFacilityMsg
                0xffffffff8813fbc9                CFW_SsInit
                0xffffffff881407a5                CFW_UsimDecodeDataLength
                0xffffffff881407cd                CFW_UsimDecFileSize
                0xffffffff881407f1                CFW_UsimDecEfFileDescriptor
                0xffffffff88140829                CFW_UsimDecodeEFFcp
                0xffffffff881408b9                CFW_GetAdnAlphaIdLength
                0xffffffff8814092d                CFW_UsimUsageQualifier
                0xffffffff88140951                CFW_USimParsePukStatus
                0xffffffff88140b59                CFW_USimParsePinStatus
                0xffffffff88140d71                CFW_USimInitPinStatus
                0xffffffff88141029                CFW_UsimSetPinStatus
                0xffffffff881410c5                CFW_UsimDecKeyReference
                0xffffffff88141105                CFW_UsimDecPinStatusTemplateDO
                0xffffffff8814120d                CFW_UsimDecodeDFFcp
                0xffffffff881412a9                CFW_CfgUSimGetPinParam
                0xffffffff881412f1                CFW_UsimDecodeEfDirRecord
                0xffffffff88141415                clk_get_sys
                0xffffffff88141435                clk_get
                0xffffffff88141445                clkdev_add_table
                0xffffffff881414cd                clk_enable
                0xffffffff881414fd                clk_get_usecount
                0xffffffff88141509                clk_get_rate
                0xffffffff881415e9                clk_disable
                0xffffffff88141611                clk_set_rate
                0xffffffff88141671                clk_register
                0xffffffff881416cd                rda_set_sysclk_rate
                0xffffffff88141799                clk_release
                0xffffffff8814184d                clk_is_active
                0xffffffff88141901                rda_ck_show
                0xffffffff88141989                clk_request
                0xffffffff88141ac1                rda_clk_check_parent
                0xffffffff88141ae9                rda_clk_init
                0xffffffff88141b3d                rda_set_pllclk_rate
                0xffffffff88141ce5                COS_Trace
                0xffffffff88141d69                CSN1_StackNext
                0xffffffff88141e2d                CSN1_StackBacktrack
                0xffffffff88141e95                CSN1_MatchFill
                0xffffffff88141eb5                Csn1_Action_FAIL
                0xffffffff88141ec1                Csn1_Action_SUCCESS
                0xffffffff88141ecd                Csn1_Action_NULL
                0xffffffff88141ed1                CSN1ActionFunction_StandardPush
                0xffffffff88141f75                CSN1_SetValue
                0xffffffff88141fb5                CSN1_GetValue
                0xffffffff88141ff9                CSN1_PushValue
                0xffffffff8814204d                CSN1_TerminateLoop
                0xffffffff8814207d                CSN1_GetParentFieldId
                0xffffffff881420d1                CSN1_LinkParent
                0xffffffff88142141                CSN1_ExitField
                0xffffffff881421ad                CSN1_EnterField
                0xffffffff88142249                CSN1_StackPush
                0xffffffff881422d5                CSN1ActionFunction_EnterField
                0xffffffff88142329                CSN1_StackInit
                0xffffffff8814233d                Csn1_Decode
                0xffffffff881423fd                Csn1_Encode
                0xffffffff881424b1                dbg_AssertUtil
                0xffffffff881424c9                lwip_htons
                0xffffffff881424dd                lwip_htonl
                0xffffffff88142501                lwip_strnicmp
                0xffffffff88142545                dhcp_supplied_address
                0xffffffff88142b51                dhcp_renew
                0xffffffff88142dfd                dhcp_release_and_stop
                0xffffffff88142f25                dhcp_release
                0xffffffff88142f39                dhcp_arp_reply
                0xffffffff881431cd                dhcp_network_changed
                0xffffffff88143221                dhcp_coarse_tmr
                0xffffffff88143661                dhcp_fine_tmr
                0xffffffff88143775                dns_setserver
                0xffffffff881437ad                ttl_timer
                0xffffffff881437c1                dns_init
                0xffffffff88144251                dns_gethostbyname_addrtype
                0xffffffff88144329                dns_tmr
                0xffffffff8814498d                drv_SetSimEnable
                0xffffffff881449b9                foursim_SetSimVoltage
                0xffffffff881449d5                drv_simInitVolt
                0xffffffff88144a3d                DRV_GetWCacheSizeTFlash
                0xffffffff88144a69                DRV_GetRCacheSizeTFlash
                0xffffffff88144a95                DRV_SetRCacheSizeTFlash
                0xffffffff88144bc5                DRV_ActiveTFlash
                0xffffffff88144c79                DRV_CloseTFlash
                0xffffffff88144d95                DRV_SetWCacheSizeTFlash
                0xffffffff88144e39                DRV_DeactiveTFlash
                0xffffffff88144e85                DRV_FlushTFlash
                0xffffffff88144ebd                DRV_GetDevInfoTFlash
                0xffffffff88144f09                DRV_WriteTFlash
                0xffffffff8814504d                DRV_ReadTFlash
                0xffffffff8814513d                DRV_OpenTFlash
                0xffffffff881451e9                tcslen
                0xffffffff881451f9                tcscpy
                0xffffffff8814520d                tcsncpy
                0xffffffff88145235                tcscat
                0xffffffff88145251                tcscmp
                0xffffffff88145269                tcsncmp
                0xffffffff88145289                tcschr
                0xffffffff881452ad                DSM_UnicodeLen
                0xffffffff881452c9                itoa
                0xffffffff88145305                DSM_GetFileTime2Time
                0xffffffff88145335                DSM_GetFileTime2Date
                0xffffffff88145369                DSM_GetTime
                0xffffffff88145395                DSM_UniteFileTime
                0xffffffff8814541d                DSM_GetFileTime
                0xffffffff88145dd9                dtoa_r
                0xffffffff881465e9                strtod
                0xffffffff88147659                EDIntToBits
                0xffffffff881476a5                EDBitsToInt
                0xffffffff881476e5                EDFindKnownIE
                0xffffffff88147721                EDSkipKnownIE
                0xffffffff8814778d                EDGetIE
                0xffffffff8814780d                EDCopyBits
                0xffffffff881478cd                err_to_errno
                0xffffffff881478f5                lwip_strerr
                0xffffffff88147a49                etharp_request
                0xffffffff88147d09                etharp_cleanup_netif
                0xffffffff88147d45                etharp_tmr
                0xffffffff88147df9                etharp_query
                0xffffffff88147fc9                etharp_input
                0xffffffff8814820d                ethernet_output
                0xffffffff88148315                ethernet_input
                0xffffffff881484cd                NameFat2User
                0xffffffff8814855d                fat_GetFATSz
                0xffffffff88148599                fat_GetRandNum
                0xffffffff881485a5                fat_GetFatType
                0xffffffff881485bd                fat_GetFatTypeForFormat
                0xffffffff881485d9                fat_GetSecNumPerClus_12
                0xffffffff88148609                CheckFDE
                0xffffffff88148679                fat_GetSecNumPerClus_16
                0xffffffff881486f5                fat_GetSecNumPerClus_32
                0xffffffff88148759                fat_read_cluster
                0xffffffff881487c9                fat_write_cluster
                0xffffffff88148859                fat_revert_cluster
                0xffffffff881488ed                fat_is_last_cluster
                0xffffffff88148915                fat_fpos2cluster
                0xffffffff88148975                fat_fpos2CSO
                0xffffffff881489bd                fat_ChkSum
                0xffffffff881489e1                fat_name_change
                0xffffffff88148a19                fat_get_fat_cache
                0xffffffff88148a45                fat_set_fsinfo
                0xffffffff88148a91                fat_new_frag
                0xffffffff88148ac5                fat_append_fatentries_chain
                0xffffffff88148b51                fat_free_fatentries
                0xffffffff88148b7d                fat_stat_free_cluster
                0xffffffff88148e7d                fat_format_set_fat_entry
                0xffffffff88148fe1                fat_get_long_name
                0xffffffff88149059                fat_GetFormatInfo
                0xffffffff88149279                FLDE2Buf
                0xffffffff881492dd                Buf2FLDE
                0xffffffff88149355                Buf2FDE
                0xffffffff881493e1                FDE2Buf
                0xffffffff88149479                Buf2FSI
                0xffffffff88149555                FSI2Buf
                0xffffffff881495c9                fat_synch_fsinfo
                0xffffffff88149691                Buf2FBR
                0xffffffff8814989d                MBR2Buf
                0xffffffff8814999d                Buf2MBR
                0xffffffff88149aa9                FBR2Buf
                0xffffffff88149c51                fat_long_to_short
                0xffffffff88149d09                fat_is_long_name_valid
                0xffffffff88149d65                fat_TrimOem
                0xffffffff88149ddd                fat_Trim
                0xffffffff88149e55                fat_get_free_cluster
                0xffffffff8814a045                fat_get_next_cluster
                0xffffffff8814a1d5                fat_get_name_for_entrys
                0xffffffff8814a501                fat_read_fatentries
                0xffffffff8814a58d                fat_trunc_fragentries
                0xffffffff8814a649                fat_lookup_entry
                0xffffffff8814ab7d                fat_read_sb_info
                0xffffffff8814add1                SetVolLabEntry
                0xffffffff8814ae41                NameUser2Fat
                0xffffffff8814af39                fat_get_long_entry
                0xffffffff8814b271                fat_relate_inode_with_fatcache
                0xffffffff8814b2d1                fat_update_dentry
                0xffffffff8814b401                fat_file_truncate
                0xffffffff8814b4d1                fat_synch_relating_file
                0xffffffff8814b529                fat_is_inode_relating_with_fatcache
                0xffffffff8814b561                fat_synch_fat_cache
                0xffffffff8814b5f1                fat_set_fat_entry_value
                0xffffffff8814b825                fat_file_extend
                0xffffffff8814ba4d                fat_file_write
                0xffffffff8814bc59                fat_get_fat_entry_value
                0xffffffff8814bde9                fat_file_read
                0xffffffff8814c001                fat_get_file_name
                0xffffffff8814c039                fat_set_fat_entry_all
                0xffffffff8814c0cd                fat_set_dentry
                0xffffffff8814c1f5                fat_scan_disk
                0xffffffff8814c815                fat_format
                0xffffffff8814cd59                fat_is_formated
                0xffffffff8814ce1d                fat_do_link
                0xffffffff8814ced1                fat_do_unlink
                0xffffffff8814cf19                fat_trunc_file
                0xffffffff8814d0cd                fat_create_file
                0xffffffff8814d1b5                fat_write_inode
                0xffffffff8814d209                fat_do_find_entry
                0xffffffff8814d435                fat_read_inode
                0xffffffff8814d5ad                fstraces_Close
                0xffffffff8814d5b1                fstraces_Read
                0xffffffff8814d5c5                hal_GdbFlushCache
                0xffffffff8814d631                hal_OverlayUnload
                0xffffffff8814d72d                hal_OverlayLoad
                0xffffffff8814d819                lwip_init
                0xffffffff8814d855                Trace0
                0xffffffff8814d8ad                ip_input
                0xffffffff8814d8d9                ipaddr_aton
                0xffffffff8814d915                ip4_debug_print
                0xffffffff8814da61                ip4_output_if_src
                0xffffffff8814dc99                ip4_output_if
                0xffffffff8814dd49                ip4_input
                0xffffffff8814e0d9                ip4_route
                0xffffffff8814e1a5                ip4_route_src
                0xffffffff8814e1c5                ip4_addr_isbroadcast_u32
                0xffffffff8814e1f5                ip4addr_ntoa_r
                0xffffffff8814e27d                ip4addr_ntoa
                0xffffffff8814e295                ip4addr_aton
                0xffffffff8814e415                ipaddr_addr
                0xffffffff8814e455                ip4_frag
                0xffffffff8814e8bd                ip_reass_tmr
                0xffffffff8814e931                ip4_reass
                0xffffffff8814eed9                ip6_select_source_address
                0xffffffff8814f039                ip6_debug_print
                0xffffffff8814f3b1                ip6_options_add_hbh_ra
                0xffffffff8814f40d                ip6_output_if_src
                0xffffffff8814f73d                ip6_output_if
                0xffffffff8814f7c1                ip6_input
                0xffffffff8814fd75                ip6_route
                0xffffffff8814fff9                ip6addr_ntoa_r
                0xffffffff8815015d                ip6addr_ntoa
                0xffffffff88150175                ip6addr_aton
                0xffffffff8815055d                ip6_reass
                0xffffffff88150b45                ip6_reass_tmr
                0xffffffff88150b8d                l1a_SetTestLoopReq
                0xffffffff88150c1d                l1a_PhyInfoReq
                0xffffffff88150c81                l1a_RachOffReq
                0xffffffff88150cd1                l1a_StopChReq
                0xffffffff88150de5                l1a_ReleaseReq
                0xffffffff88150e45                l1a_CipherReq
                0xffffffff88150ed1                l1a_ChanModeModifyReq
                0xffffffff88150f5d                l1a_FreqRedefReq
                0xffffffff8815101d                l1a_CbchSkipReq
                0xffffffff88151091                l1a_CellOptUpdtReq
                0xffffffff88151145                l1a_ConnectReq
                0xffffffff8815125d                l1a_RachUpdtReq
                0xffffffff88151305                l1a_BcchModeReq
                0xffffffff8815136d                l1a_RachOnReq
                0xffffffff881513fd                l1a_BcchReq
                0xffffffff881515f1                l1a_CbchReq
                0xffffffff88151715                l1a_CchReq
                0xffffffff881519d1                l1a_ExtdMonitorReq
                0xffffffff88151a05                l1a_PMeasCtrlReq
                0xffffffff88151b29                l1a_NcMonitorStart
                0xffffffff88151ddd                l1a_NcMonitorReq
                0xffffffff88151e91                l1a_NcMonitorInd
                0xffffffff88152015                l1a_SynchUpdateReq
                0xffffffff881520e9                l1a_Report2Peer
                0xffffffff88152345                l1a_MonitorReq
                0xffffffff88152885                l1a_MonitorInd
                0xffffffff88152eb9                l1a_StopSynchReq
                0xffffffff88152f65                l1a_SynchReq
                0xffffffff88153121                l1a_PowerRsp
                0xffffffff8815327d                l1a_PowerReq
                0xffffffff88153371                l1a_ChangeSubState
                0xffffffff88153389                l1a_CheckOtherBusy
                0xffffffff881533c1                l1a_AsynRaiseLongLivedJEvent
                0xffffffff881533e1                l1a_ASynchChangeState
                0xffffffff88153401                l1a_ASynchJobMapResume
                0xffffffff88153421                l1a_ASynchJobMapStop
                0xffffffff88153441                l1a_RaiseLongLivedJEvent
                0xffffffff88153455                l1a_ASynchJobDeletion
                0xffffffff88153489                l1a_JobDeletion
                0xffffffff881534b1                l1a_JobMapResume
                0xffffffff881534f5                l1a_JobUpdt
                0xffffffff88153619                l1a_JobMapStop
                0xffffffff8815362d                l1a_JobMapDeletion
                0xffffffff88153641                l1a_ChangeState
                0xffffffff88153b19                l1a_PCchReq
                0xffffffff88153b1d                l1a_PBcchReq
                0xffffffff88153b21                l1a_ChnQualityReq
                0xffffffff88153c9d                l1a_GetGPTimAdv
                0xffffffff88153d7d                l1a_MacFixedUpdtReq
                0xffffffff88153dfd                l1a_PSDataReq
                0xffffffff88154029                l1a_PDCHRelReq
                0xffffffff8815412d                l1a_TBFCfgReq
                0xffffffff881541e9                l1a_TBFRelReq
                0xffffffff881543e5                l1a_PwrCtrlTAReq
                0xffffffff8815449d                lap_TestNRSequenceError
                0xffffffff881544c1                lap_Purge
                0xffffffff881544d5                lap_PurgeL1Queue
                0xffffffff88154545                lap_PurgeDataReqQueue
                0xffffffff88154569                lap_PurgeLapQueue
                0xffffffff881545d1                lap_StopT200
                0xffffffff881546d1                lap_ConcatenateRxI
                0xffffffff88154789                lap_SendLapDataInd
                0xffffffff88154861                lap_SendUIL1DataReq
                0xffffffff881548c1                lap_SendL1DataReq
                0xffffffff881548f1                lap_SendAgainLastFrame
                0xffffffff88154969                lap_SendSubsequentSegmentIFrame
                0xffffffff88154ba9                lap_SendFirstSegmentIFrame
                0xffffffff88154d05                lap_SendFrame
                0xffffffff881550a5                lap_ProcessDataReq
                0xffffffff88155121                lap_SendMsg
                0xffffffff8815517d                lap_PrepMsg
                0xffffffff881551c9                llc_InitDefParam
                0xffffffff8815526d                llc_LleCtxInit
                0xffffffff8815532d                llc_ClearUsrVar
                0xffffffff88155409                llc_ClearCtx
                0xffffffff881554dd                llc_GetParLenXid
                0xffffffff881554f9                llc_CheckXidParPresent
                0xffffffff88155559                llc_GetXidParVal
                0xffffffff88155575                llc_InsertXidHdr
                0xffffffff881555ad                llc_InsertXidParVal
                0xffffffff88155611                llc_UpdateWithXidPar
                0xffffffff8815583d                llc_CheckXidParVal
                0xffffffff8815590d                llc_CheckXidParRange
                0xffffffff88155989                llc_IsXidParPresent
                0xffffffff881559b5                llc_GetFrmFormatId
                0xffffffff88155a3d                llc_BuildUFrm
                0xffffffff88155aad                llc_BuildAndSndFRMR
                0xffffffff88155bf9                llc_BuildAndSndRspFrm
                0xffffffff88155c4d                llc_ProcessUnitDataReq
                0xffffffff88155e6d                llc_ProcessSavedUnitDataReq
                0xffffffff88155f05                llc_IsAckReqNeeded
                0xffffffff88155f9d                llc_ProcessInfoPart
                0xffffffff881560f1                llc_AckTxL3Pdu
                0xffffffff881561b9                llc_ProcessAckPart
                0xffffffff881564fd                llc_BuildAndSndIFrm
                0xffffffff8815682d                llc_ProcessDataReq
                0xffffffff881569c9                llc_IFrmRetransmission
                0xffffffff88156ab9                llc_IFrmTransmission
                0xffffffff88156c45                llc_BuildXidParamField
                0xffffffff88156d25                llc_BuildSABM
                0xffffffff88156d79                llc_CheckAndGetXid
                0xffffffff88157095                llc_BuildAndSndDISC
                0xffffffff88157109                llc_CheckInvalidFrm
                0xffffffff8815724d                mac_FdT3200
                0xffffffff88157259                mac_NewTlliCnf
                0xffffffff881572c5                mac_T3200Exp
                0xffffffff88157371                mac_NewTlliInd
                0xffffffff881574ed                mac_CtrlBlock
                0xffffffff88157f0d                mac_PurgeDQReq
                0xffffffff88157f4d                mac_DataBlock
                0xffffffff881581a1                mac_L1ChnQualInd
                0xffffffff881581c1                mac_L1PBcchInd
                0xffffffff88158279                mac_L1PDchInd
                0xffffffff881582e5                mac_DlAckReq
                0xffffffff8815858d                mac_UlDataReq
                0xffffffff88158811                mac_RrDataReq
                0xffffffff88158885                mac_FdRefQ
                0xffffffff881588a1                ENCODE_c_PDownlinkAckNack
                0xffffffff881589c5                mac_FinishEncBlock
                0xffffffff88158a49                mac_IsRejForUs
                0xffffffff88158ae9                mac_FdCtrlAck
                0xffffffff88158b31                mac_PrepPCtrlAck
                0xffffffff88158cf5                mac_SdBlock
                0xffffffff88158e51                mac_PurgeCtrlQ
                0xffffffff88158e81                mac_Purge
                0xffffffff88158ea9                mac_ContResFailed
                0xffffffff88158f11                mac_ContResSuccess
                0xffffffff88159119                mac_HdleSegmentation
                0xffffffff88159481                GetMCITaskHandle
                0xffffffff881594ed                SetMCITaskHandle
                0xffffffff8815955d                MCI_vid_play_finish_ind
                0xffffffff88159575                MCI_VideoClose
                0xffffffff88159579                MCI_VideoOpenFile
                0xffffffff8815957d                MCI_AudioRecordStop
                0xffffffff8815959d                MCI_AudioRecordFinished
                0xffffffff881595c5                MCI_RingFinished
                0xffffffff881595f5                MCI_AudioFinished
                0xffffffff8815961d                MCI_AudioRecordStart
                0xffffffff88159671                MCI_AudioSetEQ
                0xffffffff88159681                MCI_AudioGetPlayInformation
                0xffffffff881596a5                MCI_AudioStop
                0xffffffff881596d9                MCI_AudioResume
                0xffffffff881596fd                MCI_AudioPause
                0xffffffff8815971d                MCI_AudioPlay
                0xffffffff881597c9                MCI_TaskInit
                0xffffffff88159835                mem_init
                0xffffffff88159839                mem_trim
                0xffffffff8815983d                mem_free
                0xffffffff88159879                mem_malloc
                0xffffffff881598c9                mem_calloc
                0xffffffff881598f9                memp_init_pool
                0xffffffff881598fd                memp_init
                0xffffffff88159935                memp_free
                0xffffffff881599c5                memp_malloc
                0xffffffff881599f5                mld6_lookfor_group
                0xffffffff88159b41                mld6_tmr
                0xffffffff88159ba9                mld6_stop
                0xffffffff88159be9                mld6_leavegroup_netif
                0xffffffff88159d49                mld6_joingroup_netif
                0xffffffff88159e5d                mld6_input
                0xffffffff88159f95                mld6_report_groups
                0xffffffff88159fb9                CSN1ActionFunction_mm_4219277482
                0xffffffff8815a001                CSN1ActionFunction_mm_654552679
                0xffffffff8815a049                CSN1ActionFunction_mm_815343711
                0xffffffff8815a091                CSN1ActionFunction_mm_165832568
                0xffffffff8815a0d9                CSN1ActionFunction_mm_1150058242
                0xffffffff8815a121                CSN1ActionFunction_mm_1446670203
                0xffffffff8815a165                CSN1ActionFunction_mm_2470336396
                0xffffffff8815a1ad                CSN1ActionFunction_mm_3368039029
                0xffffffff8815a1f5                CSN1ActionFunction_mm_4018032394
                0xffffffff8815a23d                CSN1ActionFunction_mm_3501535647
                0xffffffff8815a285                CSN1ActionFunction_mm_992909587
                0xffffffff8815a2c9                CSN1ActionFunction_mm_2067045791
                0xffffffff8815a311                CSN1ActionFunction_mm_313259946
                0xffffffff8815a359                CSN1ActionFunction_mm_2335260607
                0xffffffff8815a3a1                CSN1ActionFunction_mm_2387339982
                0xffffffff8815a3e9                CSN1ActionFunction_mm_64959846
                0xffffffff8815a445                CSN1ActionFunction_mm_4139192109
                0xffffffff8815a48d                CSN1ActionFunction_mm_390578230
                0xffffffff8815a4e9                CSN1ActionFunction_mm_791498803
                0xffffffff8815a531                CSN1ActionFunction_mm_2430021842
                0xffffffff8815a579                CSN1ActionFunction_mm_1286476466
                0xffffffff8815a5c1                CSN1ActionFunction_mm_445249957
                0xffffffff8815a605                CSN1ActionFunction_mm_2904529805
                0xffffffff8815a64d                CSN1ActionFunction_mm_3587088796
                0xffffffff8815a695                CSN1ActionFunction_mm_2354150077
                0xffffffff8815a6b9                CSN1ActionFunction_mm_3925280648
                0xffffffff8815a701                CSN1ActionFunction_mm_348479049
                0xffffffff8815a749                CSN1ActionFunction_mm_2383332620
                0xffffffff8815a76d                CSN1ActionFunction_mm_705805430
                0xffffffff8815a7b5                CSN1ActionFunction_mm_2040935313
                0xffffffff8815a7f9                CSN1ActionFunction_mm_1329795257
                0xffffffff8815a841                CSN1ActionFunction_mm_4006116147
                0xffffffff8815a865                CSN1ActionFunction_mm_1051650937
                0xffffffff8815a8ad                CSN1ActionFunction_mm_1019069955
                0xffffffff8815a8f5                CSN1ActionFunction_mm_3648354277
                0xffffffff8815a955                CSN1ActionFunction_mm_1714678469
                0xffffffff8815a999                CSN1ActionFunction_mm_1426301634
                0xffffffff8815a9e1                CSN1ActionFunction_mm_816369318
                0xffffffff8815aa05                CSN1ActionFunction_mm_305719935
                0xffffffff8815aa29                CSN1ActionFunction_mm_378923677
                0xffffffff8815aa71                CSN1ActionFunction_mm_3473561638
                0xffffffff8815aad1                CSN1ActionFunction_mm_2497997005
                0xffffffff8815aaf5                CSN1ActionFunction_mm_1949137066
                0xffffffff8815ab19                CSN1ActionFunction_mm_3106624490
                0xffffffff8815ab61                CSN1ActionFunction_mm_1623356742
                0xffffffff8815abc1                CSN1ActionFunction_mm_3112399967
                0xffffffff8815abd9                CSN1ActionFunction_mm_2634098025
                0xffffffff8815abf1                CSN1ActionFunction_mm_4035434035
                0xffffffff8815ac09                CSN1ActionFunction_mm_3557132037
                0xffffffff8815ac21                CSN1ActionFunction_mm_382868336
                0xffffffff8815ac39                CSN1ActionFunction_mm_2069162026
                0xffffffff8815ac51                CSN1ActionFunction_mm_2690191006
                0xffffffff8815ac69                CSN1ActionFunction_mm_2228969384
                0xffffffff8815ac81                CSN1ActionFunction_mm_3454008772
                0xffffffff8815ac99                CSN1ActionFunction_mm_3915230450
                0xffffffff8815acb1                CSN1ActionFunction_mm_392853104
                0xffffffff8815acc1                CSN1ActionFunction_mm_3307903284
                0xffffffff8815acd1                CSN1ActionFunction_mm_102177801
                0xffffffff8815ace1                CSN1ActionFunction_mm_2109956447
                0xffffffff8815acf1                CSN1ActionFunction_mm_370274160
                0xffffffff8815ad39                CSN1ActionFunction_mm_3603340544
                0xffffffff8815ad81                CSN1ActionFunction_mm_2490248654
                0xffffffff8815ade5                CSN1ActionFunction_mm_2940555322
                0xffffffff8815ae15                CSN1ActionFunction_mm_976167061
                0xffffffff8815ae49                CSN1ActionFunction_mm_2519741375
                0xffffffff8815ae8d                CSN1ActionFunction_mm_3458707629
                0xffffffff8815aed1                CSN1ActionFunction_mm_745283224
                0xffffffff8815af1d                CSN1ActionFunction_mm_3047440023
                0xffffffff8815af65                CSN1ActionFunction_mm_3089161910
                0xffffffff8815afd9                CSN1ActionFunction_mm_2687984519
                0xffffffff8815b069                CSN1ActionFunction_mm_452156319
                0xffffffff8815b0f9                CSN1ActionFunction_mm_1896178442
                0xffffffff8815b131                CSN1ActionFunction_mm_812881617
                0xffffffff8815b149                DECODE_c_P2_Rest_Octets
                0xffffffff8815b1fd                DECODE_c_P1_Rest_Octets
                0xffffffff8815b2bd                DECODE_c_Packet_Paging_Request
                0xffffffff8815b465                ENCODE_c_RxNpduNumList
                0xffffffff8815b47d                DECODE_c_RxNpduNumList
                0xffffffff8815b549                DECODE_c_InformationIE_t
                0xffffffff8815b891                DECODE_c_GPRSTimerIE
                0xffffffff8815b8c5                DECODE_c_IMEISVRequest
                0xffffffff8815b8e1                DECODE_c_CiphAlgoIE
                0xffffffff8815b8fd                ENCODE_c_RAUTypeIE
                0xffffffff8815b931                ENCODE_c_DRXParamIE
                0xffffffff8815b985                ENCODE_c_AttachTypeIE
                0xffffffff8815b9c1                ENCODE_c_LocUpReqType
                0xffffffff8815ba01                mmc_RecordUninstall
                0xffffffff8815ba15                mmc_AduioUninstall
                0xffffffff8815ba2d                mmc_SetCurrMode
                0xffffffff8815ba39                mmc_GetCurrMode
                0xffffffff8815ba45                mmc_SendEvent
                0xffffffff8815ba69                mmc_AudioInstall
                0xffffffff8815bb49                mmc_EntryMode
                0xffffffff8815bb81                MMCTask
                0xffffffff8815bc1d                mmc_ExitMode
                0xffffffff8815bc51                codec_get_id
                0xffffffff8815bd75                wav_codec_get_id
                0xffffffff8815be35                adpcm_decode_init
                0xffffffff8815c0f1                bytestream_get_le16
                0xffffffff8815c109                bytestream_get_be16
                0xffffffff8815c121                bytestream_get_le32
                0xffffffff8815c141                bytestream_get_be32
                0xffffffff8815c161                adpcm_decode_frame
                0xffffffff8815d665                Audio_AmrGetID3
                0xffffffff8815d669                Audio_AmrGetPlayInformation
                0xffffffff8815d6b5                MMC_AmrDecClose
                0xffffffff8815d719                Audio_AmrPause
                0xffffffff8815d765                Audio_AmrStop
                0xffffffff8815d79d                MMC_AmrDecPcm
                0xffffffff8815d7b9                MMC_AmrDecOpen
                0xffffffff8815da91                Audio_AmrResume
                0xffffffff8815db0d                Audio_AmrPlay
                0xffffffff8815dbb5                MMC_AmrPcmOutStart
                0xffffffff8815dc55                MMC_AmrDecVoc
                0xffffffff8815de35                Audio_AmrUserMsg
                0xffffffff8815decd                MMC_AmrEndPcmISR
                0xffffffff8815df01                MMC_AmrHalfPcmISR
                0xffffffff8815df35                MMC_AmrVocISR
                0xffffffff8815dfad                Audio_MpegGetID3
                0xffffffff8815dfb1                Audio_MpegGetPlayInformation
                0xffffffff8815dff5                AudioEndPcmISR
                0xffffffff8815e035                AudioHalfPcmISR
                0xffffffff8815e075                MMC_AudioVocISR
                0xffffffff8815e0a9                MMC_AUDIODecClose
                0xffffffff8815e121                Audio_MpegPause
                0xffffffff8815e191                Audio_MpegStop
                0xffffffff8815e519                Audio_MpegPlay
                0xffffffff8815e5c9                Audio_MpegResume
                0xffffffff8815e659                Audio_MpegUserMsg
                0xffffffff8815eaa9                Audio_WavGetID3
                0xffffffff8815eaad                Audio_WavGetPlayInformation
                0xffffffff8815eb15                MMC_AudioWavDecClose
                0xffffffff8815eb41                Audio_WavPause
                0xffffffff8815eb59                Audio_WavStop
                0xffffffff8815eb71                MMC_AudioWavEndPcmISR
                0xffffffff8815ebad                MMC_AudioWavHalfPcmISR
                0xffffffff8815ebd1                MMC_AudioWavVocISR
                0xffffffff8815ebe9                MMC_AudioWavFileReadFinish
                0xffffffff8815ec79                MMC_AudioWavDecVoC
                0xffffffff8815ed71                MMC_WavPcmOutStart
                0xffffffff8815eec1                MMC_AudioWavDecPcm
                0xffffffff8815f369                Audio_WavUserMsg
                0xffffffff8815f405                MMC_WavHeaderParse
                0xffffffff8815f731                MMC_AudioWavDecOpen
                0xffffffff8815fa55                Audio_WavResume
                0xffffffff8815fab1                Audio_WavPlay
                0xffffffff8815fb1d                mmc_InitCtnd
                0xffffffff8815fb21                mmc_HdleOtherPd_Cntd
                0xffffffff8815fb35                mmc_AbortReq_Cntd
                0xffffffff8815fb61                mmc_CmEstabInd_Cntd
                0xffffffff8815fb7d                mmc_RrReleaseInd_Cntd
                0xffffffff8815fbb9                mmc_ApiStopReq_Cntd
                0xffffffff8815fc1d                mmc_ReleaseReq_Cntd
                0xffffffff8815fc45                mmc_EstabReq_Cntd
                0xffffffff8815fcf5                is_SSHdl_valid
                0xffffffff8815fd25                get_sbc_ss_handle
                0xffffffff8815fd31                mmp_mmcReStartPrevProc_Dreg
                0xffffffff8815fd65                mmp_T3302Exp_Dreg
                0xffffffff8815fde1                mmp_T3311Exp_Dreg
                0xffffffff8815fe69                mmp_ApiAttachReq_Dreg
                0xffffffff8815fef5                mmp_RrCellInd_Dreg
                0xffffffff8815ffa9                mmp_InitDreg
                0xffffffff8816006d                mpeg_stream_error_check
                0xffffffff88160209                myl1_Fn
                0xffffffff88160261                my_msg2str
                0xffffffff881602ad                myl1_SendBurstDac
                0xffffffff881603f9                myl1_SendBurst
                0xffffffff8816058d                myl1_GetNBEqualisationResult
                0xffffffff881606d1                myl1_Idle
                0xffffffff88160859                myl1_Synch
                0xffffffff88160bcd                myl1_Monit
                0xffffffff88160cfd                myl1_BandInit
                0xffffffff88160d31                myl1_GetFOf
                0xffffffff88160ed1                nd6_clear_destination_cache
                0xffffffff88160fd9                nd6_get_destination_mtu
                0xffffffff88161011                nd6_adjust_mld_membership
                0xffffffff881610a1                nd6_find_route
                0xffffffff881611f5                nd6_cleanup_netif
                0xffffffff88161949                nd6_tmr
                0xffffffff88161c41                start_nd6_timer
                0xffffffff88161c71                nd6_reachability_hint
                0xffffffff88161da5                nd6_input
                0xffffffff88162c81                lwip_getaddrinfo
                0xffffffff88162e75                lwip_freeaddrinfo
                0xffffffff88162e95                lwip_gethostbyname
                0xffffffff88162fcd                netif_init
                0xffffffff88162fd1                netif_set_link_down
                0xffffffff88162fe9                netif_get_ip6_addr_match
                0xffffffff88163049                netif_get_by_index
                0xffffffff8816306d                netif_get_by_cid
                0xffffffff8816308d                netif_find
                0xffffffff881630f9                netif_set_default
                0xffffffff88163129                netif_set_netmask
                0xffffffff88163179                netif_set_gw
                0xffffffff88163215                netif_ip6_addr_set_state
                0xffffffff88163315                netif_set_up
                0xffffffff8816333d                netif_set_ipaddr
                0xffffffff881633f5                netif_set_addr
                0xffffffff8816344d                netif_poll
                0xffffffff881634ed                netif_loop_output
                0xffffffff8816358d                netif_set_link_up
                0xffffffff881635c9                netif_set_down
                0xffffffff881635fd                netif_remove
                0xffffffff881636c5                netif_add
                0xffffffff881638ad                BAL_ApsTaskTcpipProc
                0xffffffff88163cc5                getPppNetIf
                0xffffffff88163ce5                ppp_ip_input
                0xffffffff88163d4d                ip4_src_route
                0xffffffff88163d7d                getGprsNetIf
                0xffffffff88163dc5                pbuf_clen
                0xffffffff88163dfd                pbuf_skip
                0xffffffff88163e11                pbuf_try_get_at
                0xffffffff88163e41                pbuf_get_at
                0xffffffff88163e61                pbuf_put_at
                0xffffffff88163e91                pbuf_split_64k
                0xffffffff88163f19                pbuf_cat
                0xffffffff88163f7d                pbuf_ref
                0xffffffff88163fad                pbuf_take
                0xffffffff8816406d                pbuf_take_at
                0xffffffff881640e1                pbuf_copy_partial
                0xffffffff88164189                pbuf_copy
                0xffffffff881642a1                pbuf_chain
                0xffffffff88164391                pbuf_header_force
                0xffffffff881643a9                pbuf_header
                0xffffffff881643c1                pbuf_alloced_custom
                0xffffffff88164471                pbuf_free
                0xffffffff88164559                pbuf_free_header
                0xffffffff881645c9                pbuf_realloc
                0xffffffff88164685                pbuf_alloc_reference
                0xffffffff881646f5                pbuf_alloc
                0xffffffff88164915                ppp_init
                0xffffffff8816494d                srand
                0xffffffff88164959                rand
                0xffffffff88164979                raw_bind_netif
                0xffffffff88164991                raw_recv
                0xffffffff88164999                raw_netif_ip_addr_changed
                0xffffffff88164a91                raw_new
                0xffffffff88164ae5                raw_new_ip_type
                0xffffffff88164b09                raw_remove
                0xffffffff88164b41                raw_sendto_if_src
                0xffffffff88164d59                raw_connect
                0xffffffff88164e15                raw_bind
                0xffffffff88164eb9                raw_sendto
                0xffffffff88165069                raw_send
                0xffffffff8816507d                raw_input
                0xffffffff881651f5                SrcLinear
                0xffffffff881652a1                ResampleInit
                0xffffffff88165315                ResampleOneFrame
                0xffffffff88165361                rld_SendMsg
                0xffffffff881653a5                rld_PrepMsg
                0xffffffff88165429                rld_RmvFirstPduQ
                0xffffffff8816547d                rld_BuildAndFwdSdu
                0xffffffff881659ed                rlu_StartTxFill
                0xffffffff88165a15                rlu_AckSdu
                0xffffffff88165ab9                rlu_AckPdu
                0xffffffff88165b11                rlu_RepeatPdu
                0xffffffff88165b85                rluCond_TrsUlRelReq
                0xffffffff88165b99                rluCond_TrsConnectCnf
                0xffffffff88165bd9                rluCond_TrsContinueTx
                0xffffffff88165c59                rlu_UlFlowCtrl
                0xffffffff88165ec1                rri_FreeRawGMa
                0xffffffff88165f19                rr_FindRfl
                0xffffffff88165f59                rr_FindGMa
                0xffffffff88165f89                DECODE_c_PReqRef
                0xffffffff88165fe5                DECODE_c_Reject_struct
                0xffffffff881660d9                DECODE_c_MacCtrlHder
                0xffffffff88166455                DECODE_c_Pwr_Ctrl_Param_IE
                0xffffffff881664d5                DECODE_c_SFN_Desc_IE
                0xffffffff88166559                DECODE_c_Single_Block_Alloc_struct
                0xffffffff88166631                DECODE_c_Dynamic_Alloc_struct
                0xffffffff8816684d                DECODE_c_PTiming_Advance_IE
                0xffffffff881668cd                DECODE_c_PUplinkAckNack
                0xffffffff88166b9d                DECODE_c_Fixed_Alloc_struct
                0xffffffff88166e15                rr_SkipGMa
                0xffffffff88166f05                DECODE_c_IA_Rest_Octets
                0xffffffff881675e5                DECODE_c_Freq_Param_IE
                0xffffffff8816783d                DECODE_c_PDownlink_Assignment_Msg
                0xffffffff88167ab5                DECODE_c_PUplink_Assignment_Msg
                0xffffffff88167bf9                rr_StoreFrqList2
                0xffffffff88167c99                rr_AllocRfl
                0xffffffff88167ced                rr_DecMa2
                0xffffffff88167de9                rr_DecMa
                0xffffffff88167f75                rr_AllocGMa
                0xffffffff88167fed                rr_StoreGMa2
                0xffffffff88168305                rr_CombineRfl2
                0xffffffff88168431                rr_BuildGMa2
                0xffffffff881685d5                rr_CombineRfl
                0xffffffff881686fd                rr_BuildGMa
                0xffffffff88168825                rr_StoreGMa
                0xffffffff88168865                rr_ArfcnInFrqList
                0xffffffff88168889                rr_IsFrqBandSupported
                0xffffffff881688c5                SimpMod
                0xffffffff881688ed                Node2Arfcn
                0xffffffff88168991                WalkWTree
                0xffffffff88168a19                DecodeBitMap0
                0xffffffff88168acd                rr_GiveDetailedBand
                0xffffffff88168b7d                rr_GiveBand
                0xffffffff88168ba5                rr_SameBand
                0xffffffff88168bd1                DispArfcnL
                0xffffffff88168c41                Dispu8
                0xffffffff88168cad                Dispu32
                0xffffffff88168d1d                DecodeVarBitMap
                0xffffffff88168de9                DecodeRange
                0xffffffff88168ec5                rr_DecFrqList
                0xffffffff88168f95                rr_SendMsg
                0xffffffff881690c9                rr_PrepMsg
                0xffffffff8816914d                Exchange
                0xffffffff88169169                qSortHelp
                0xffffffff881692fd                qSort
                0xffffffff88169315                rrdAccI_TrsReselGrant
                0xffffffff88169339                rrdAccI_ReleaseTbf
                0xffffffff88169395                rrdAccI_TrsAbortReq
                0xffffffff881693f1                rrdAccI_TrsT3126Exp
                0xffffffff88169451                rrdAccI_TrsImmAssRej
                0xffffffff88169565                rrdAccI_TrsImmAss
                0xffffffff88169691                rrdAccI_TrsRachInd
                0xffffffff88169761                DECODE_BODY_c_IMM_ASS_REJ
                0xffffffff881698d1                DECODE_c_IMM_ASS_REJ
                0xffffffff881698e9                DECODE_BODY_c_IMM_ASS_EXT
                0xffffffff88169b61                DECODE_c_IMM_ASS_EXT
                0xffffffff88169b79                DECODE_BODY_c_IMM_ASS
                0xffffffff88169ddd                DECODE_c_IMM_ASS
                0xffffffff88169df5                rrdCond_TrsL1ErrorInd
                0xffffffff88169e29                DECODE_BODY_c_PHY_INFO
                0xffffffff88169e6d                DECODE_c_PHY_INFO
                0xffffffff88169e85                DECODE_BODY_c_CHN_REL
                0xffffffff8816a1c5                DECODE_c_CHN_REL
                0xffffffff8816a1dd                DECODE_BODY_c_CHN_MOD_MODIFY
                0xffffffff8816a379                DECODE_c_CHN_MOD_MODIFY
                0xffffffff8816a391                DECODE_BODY_c_FRQ_RDF
                0xffffffff8816a519                DECODE_c_FRQ_RDF
                0xffffffff8816a531                DECODE_BODY_c_HOV_CMD
                0xffffffff8816b499                DECODE_c_HOV_CMD
                0xffffffff8816b4b1                DECODE_BODY_c_CIP_MOD_CMD
                0xffffffff8816b539                DECODE_c_CIP_MOD_CMD
                0xffffffff8816b551                DECODE_BODY_c_ASS_CMD
                0xffffffff8816c0c9                DECODE_c_ASS_CMD
                0xffffffff8816c0e1                rrd_AiTime2Rfn
                0xffffffff8816c17d                CSN1ActionFunction_rrd_1847778841
                0xffffffff8816c199                CSN1ActionFunction_rrd_2444061083
                0xffffffff8816c1b5                CSN1ActionFunction_rrd_1252036399
                0xffffffff8816c1d1                CSN1ActionFunction_rrd_1056704180
                0xffffffff8816c1ed                CSN1ActionFunction_rrd_3096087395
                0xffffffff8816c209                CSN1ActionFunction_rrd_2901754476
                0xffffffff8816c225                CSN1ActionFunction_rrd_1402391965
                0xffffffff8816c241                CSN1ActionFunction_rrd_61091139
                0xffffffff8816c25d                CSN1ActionFunction_rrd_444487554
                0xffffffff8816c279                CSN1ActionFunction_rrd_2012783832
                0xffffffff8816c295                CSN1ActionFunction_rrd_2289505114
                0xffffffff8816c2b1                CSN1ActionFunction_rrd_1400567278
                0xffffffff8816c2cd                CSN1ActionFunction_rrd_3245584694
                0xffffffff8816c2e9                CSN1ActionFunction_rrd_3857833984
                0xffffffff8816c305                CSN1ActionFunction_rrd_656833653
                0xffffffff8816c321                CSN1ActionFunction_rrd_1997839531
                0xffffffff8816c33d                CSN1ActionFunction_rrd_3093738256
                0xffffffff8816c359                CSN1ActionFunction_rrd_2632245798
                0xffffffff8816c375                CSN1ActionFunction_rrd_3140476587
                0xffffffff8816c391                CSN1ActionFunction_rrd_711981000
                0xffffffff8816c3ad                CSN1ActionFunction_rrd_4049736060
                0xffffffff8816c3c9                CSN1ActionFunction_rrd_4062936263
                0xffffffff8816c3e5                CSN1ActionFunction_rrd_1667978660
                0xffffffff8816c401                CSN1ActionFunction_rrd_1206453394
                0xffffffff8816c41d                CSN1ActionFunction_rrd_250455806
                0xffffffff8816c439                CSN1ActionFunction_rrd_3588243530
                0xffffffff8816c455                CSN1ActionFunction_rrd_2671884270
                0xffffffff8816c471                CSN1ActionFunction_rrd_3150178008
                0xffffffff8816c48d                CSN1ActionFunction_rrd_2678951837
                0xffffffff8816c4a9                CSN1ActionFunction_rrd_2537534189
                0xffffffff8816c4c5                CSN1ActionFunction_rrd_565487363
                0xffffffff8816c4e1                CSN1ActionFunction_rrd_1756366191
                0xffffffff8816c4fd                CSN1ActionFunction_rrd_400286796
                0xffffffff8816c519                CSN1ActionFunction_rrd_87488053
                0xffffffff8816c535                CSN1ActionFunction_rrd_389536831
                0xffffffff8816c551                CSN1ActionFunction_rrd_1580432979
                0xffffffff8816c56d                CSN1ActionFunction_rrd_861517178
                0xffffffff8816c589                CSN1ActionFunction_rrd_2058432357
                0xffffffff8816c5a5                CSN1ActionFunction_rrd_2235472103
                0xffffffff8816c5c1                CSN1ActionFunction_rrd_2713504209
                0xffffffff8816c5dd                CSN1ActionFunction_rrd_3728412801
                0xffffffff8816c5f9                CSN1ActionFunction_rrd_3015566299
                0xffffffff8816c615                CSN1ActionFunction_rrd_4199905732
                0xffffffff8816c631                CSN1ActionFunction_rrd_4206444983
                0xffffffff8816c64d                CSN1ActionFunction_rrd_4230716097
                0xffffffff8816c669                CSN1ActionFunction_rrd_3628462980
                0xffffffff8816c685                CSN1ActionFunction_rrd_3426368139
                0xffffffff8816c6a1                CSN1ActionFunction_rrd_4240941746
                0xffffffff8816c6bd                CSN1ActionFunction_rrd_3904400317
                0xffffffff8816c6d9                CSN1ActionFunction_rrd_3400065533
                0xffffffff8816c6f5                CSN1ActionFunction_rrd_3738642674
                0xffffffff8816c711                CSN1ActionFunction_rrd_2804814503
                0xffffffff8816c72d                CSN1ActionFunction_rrd_2209104785
                0xffffffff8816c749                CSN1ActionFunction_rrd_3995775179
                0xffffffff8816c765                CSN1ActionFunction_rrd_690395763
                0xffffffff8816c781                CSN1ActionFunction_rrd_1356832806
                0xffffffff8816c79d                CSN1ActionFunction_rrd_1151363369
                0xffffffff8816c7b9                CSN1ActionFunction_rrd_1612855327
                0xffffffff8816c7d5                CSN1ActionFunction_rrd_1952313616
                0xffffffff8816c7f1                CSN1ActionFunction_rrd_3601411569
                0xffffffff8816c80d                CSN1ActionFunction_rrd_1957808483
                0xffffffff8816c829                CSN1ActionFunction_rrd_1035299599
                0xffffffff8816c845                CSN1ActionFunction_rrd_1345558613
                0xffffffff8816c861                CSN1ActionFunction_rrd_228903749
                0xffffffff8816c87d                CSN1ActionFunction_rrd_423049785
                0xffffffff8816c899                CSN1ActionFunction_rrd_2679271794
                0xffffffff8816c8b1                CSN1ActionFunction_rrd_3140493380
                0xffffffff8816c8c9                CSN1ActionFunction_rrd_1614661360
                0xffffffff8816c8e1                CSN1ActionFunction_rrd_341921643
                0xffffffff8816c8f9                CSN1ActionFunction_rrd_3958307049
                0xffffffff8816c911                CSN1ActionFunction_rrd_820190813
                0xffffffff8816c929                CSN1ActionFunction_rrd_2465987279
                0xffffffff8816c941                CSN1ActionFunction_rrd_3061427193
                0xffffffff8816c959                CSN1ActionFunction_rrd_611381025
                0xffffffff8816c971                CSN1ActionFunction_rrd_3690944675
                0xffffffff8816c989                CSN1ActionFunction_rrd_4286384533
                0xffffffff8816c9a1                CSN1ActionFunction_rrd_1240865915
                0xffffffff8816c9b9                CSN1ActionFunction_rrd_1836338509
                0xffffffff8816c9d1                CSN1ActionFunction_rrd_1226449928
                0xffffffff8816c9e9                CSN1ActionFunction_rrd_1838708030
                0xffffffff8816ca01                CSN1ActionFunction_rrd_2045230129
                0xffffffff8816ca19                CSN1ActionFunction_rrd_1566960903
                0xffffffff8816ca31                CSN1ActionFunction_rrd_15908375
                0xffffffff8816ca49                CSN1ActionFunction_rrd_1246972339
                0xffffffff8816ca61                CSN1ActionFunction_rrd_1859197061
                0xffffffff8816ca79                CSN1ActionFunction_rrd_1849499894
                0xffffffff8816ca91                CSN1ActionFunction_rrd_1254060480
                0xffffffff8816caa9                CSN1ActionFunction_rrd_62641068
                0xffffffff8816cac1                CSN1ActionFunction_rrd_2776807507
                0xffffffff8816cad9                CSN1ActionFunction_rrd_3355724553
                0xffffffff8816caf1                CSN1ActionFunction_rrd_3968211519
                0xffffffff8816cb09                CSN1ActionFunction_rrd_2123325159
                0xffffffff8816cb21                CSN1ActionFunction_rrd_1510805457
                0xffffffff8816cb39                CSN1ActionFunction_rrd_931921035
                0xffffffff8816cb51                CSN1ActionFunction_rrd_319401405
                0xffffffff8816cb69                CSN1ActionFunction_rrd_2164320613
                0xffffffff8816cb81                CSN1ActionFunction_rrd_3672725872
                0xffffffff8816cb99                CSN1ActionFunction_rrd_4268427334
                0xffffffff8816cbb1                CSN1ActionFunction_rrd_3500588652
                0xffffffff8816cbf5                CSN1ActionFunction_rrd_528587181
                0xffffffff8816cc39                CSN1ActionFunction_rrd_2006853871
                0xffffffff8816cc81                CSN1ActionFunction_rrd_1379398860
                0xffffffff8816ccc5                CSN1ActionFunction_rrd_3111607087
                0xffffffff8816cd0d                CSN1ActionFunction_rrd_3746986023
                0xffffffff8816cd55                CSN1ActionFunction_rrd_2804258136
                0xffffffff8816cd9d                CSN1ActionFunction_rrd_4261741148
                0xffffffff8816cde5                CSN1ActionFunction_rrd_371009464
                0xffffffff8816ce2d                CSN1ActionFunction_rrd_3860702602
                0xffffffff8816ce51                CSN1ActionFunction_rrd_1816175321
                0xffffffff8816ce75                CSN1ActionFunction_rrd_3528460552
                0xffffffff8816cebd                CSN1ActionFunction_rrd_3251358857
                0xffffffff8816cf05                CSN1ActionFunction_rrd_875678573
                0xffffffff8816cf4d                CSN1ActionFunction_rrd_758620798
                0xffffffff8816cf95                CSN1ActionFunction_rrd_312719954
                0xffffffff8816cfdd                CSN1ActionFunction_rrd_3466817332
                0xffffffff8816d025                CSN1ActionFunction_rrd_3504385127
                0xffffffff8816d06d                CSN1ActionFunction_rrd_1176402565
                0xffffffff8816d0b5                CSN1ActionFunction_rrd_2329652229
                0xffffffff8816d0fd                CSN1ActionFunction_rrd_3401615348
                0xffffffff8816d121                CSN1ActionFunction_rrd_1212702238
                0xffffffff8816d145                CSN1ActionFunction_rrd_2032260957
                0xffffffff8816d18d                CSN1ActionFunction_rrd_3068548146
                0xffffffff8816d1d5                CSN1ActionFunction_rrd_3132594304
                0xffffffff8816d21d                CSN1ActionFunction_rrd_4007706475
                0xffffffff8816d265                CSN1ActionFunction_rrd_2819297462
                0xffffffff8816d2c1                CSN1ActionFunction_rrd_3056860181
                0xffffffff8816d309                CSN1ActionFunction_rrd_2994332061
                0xffffffff8816d351                CSN1ActionFunction_rrd_2412969979
                0xffffffff8816d399                CSN1ActionFunction_rrd_3486522109
                0xffffffff8816d3e1                CSN1ActionFunction_rrd_2489923055
                0xffffffff8816d429                CSN1ActionFunction_rrd_1223096184
                0xffffffff8816d471                CSN1ActionFunction_rrd_367611342
                0xffffffff8816d4b9                CSN1ActionFunction_rrd_2720851806
                0xffffffff8816d515                CSN1ActionFunction_rrd_2545748283
                0xffffffff8816d55d                CSN1ActionFunction_rrd_2127239902
                0xffffffff8816d5a5                CSN1ActionFunction_rrd_378371991
                0xffffffff8816d5ed                CSN1ActionFunction_rrd_162940200
                0xffffffff8816d635                CSN1ActionFunction_rrd_2860452829
                0xffffffff8816d67d                CSN1ActionFunction_rrd_2612609894
                0xffffffff8816d6c5                CSN1ActionFunction_rrd_1958843828
                0xffffffff8816d6e9                CSN1ActionFunction_rrd_2065487861
                0xffffffff8816d735                CSN1ActionFunction_rrd_3831644075
                0xffffffff8816d77d                CSN1ActionFunction_rrd_1993282762
                0xffffffff8816d7c9                CSN1ActionFunction_rrd_2131255502
                0xffffffff8816d811                CSN1ActionFunction_rrd_2042348747
                0xffffffff8816d835                CSN1ActionFunction_rrd_2342353946
                0xffffffff8816d87d                CSN1ActionFunction_rrd_3295071691
                0xffffffff8816d8c5                CSN1ActionFunction_rrd_2855376912
                0xffffffff8816d90d                CSN1ActionFunction_rrd_3846238738
                0xffffffff8816d955                CSN1ActionFunction_rrd_2770170285
                0xffffffff8816d99d                CSN1ActionFunction_rrd_1354286267
                0xffffffff8816da15                CSN1ActionFunction_rrd_1676974286
                0xffffffff8816da5d                CSN1ActionFunction_rrd_2277256880
                0xffffffff8816daa5                CSN1ActionFunction_rrd_4026158073
                0xffffffff8816daed                CSN1ActionFunction_rrd_127820280
                0xffffffff8816db35                CSN1ActionFunction_rrd_3289763382
                0xffffffff8816db7d                CSN1ActionFunction_rrd_1336578230
                0xffffffff8816dbc5                CSN1ActionFunction_rrd_1246453319
                0xffffffff8816dc0d                CSN1ActionFunction_rrd_3521060345
                0xffffffff8816dc55                CSN1ActionFunction_rrd_1067947333
                0xffffffff8816dc9d                CSN1ActionFunction_rrd_2196599466
                0xffffffff8816dcfd                CSN1ActionFunction_rrd_500936763
                0xffffffff8816dd5d                CSN1ActionFunction_rrd_206623146
                0xffffffff8816dda5                CSN1ActionFunction_rrd_3954002228
                0xffffffff8816dded                CSN1ActionFunction_rrd_3813075944
                0xffffffff8816de35                CSN1ActionFunction_rrd_4236104023
                0xffffffff8816de7d                CSN1ActionFunction_rrd_2430886602
                0xffffffff8816dec5                CSN1ActionFunction_rrd_3943667231
                0xffffffff8816df0d                CSN1ActionFunction_rrd_1023676628
                0xffffffff8816df55                CSN1ActionFunction_rrd_3179449490
                0xffffffff8816df9d                CSN1ActionFunction_rrd_701879132
                0xffffffff8816dfe5                CSN1ActionFunction_rrd_921627107
                0xffffffff8816e02d                CSN1ActionFunction_rrd_305719935
                0xffffffff8816e051                CSN1ActionFunction_rrd_2695541923
                0xffffffff8816e099                CSN1ActionFunction_rrd_869243321
                0xffffffff8816e0e1                CSN1ActionFunction_rrd_818107967
                0xffffffff8816e129                CSN1ActionFunction_rrd_1135923121
                0xffffffff8816e171                CSN1ActionFunction_rrd_802502716
                0xffffffff8816e1d1                CSN1ActionFunction_rrd_3268455810
                0xffffffff8816e231                CSN1ActionFunction_rrd_1799979658
                0xffffffff8816e279                CSN1ActionFunction_rrd_4130083733
                0xffffffff8816e2c1                CSN1ActionFunction_rrd_3768330895
                0xffffffff8816e309                CSN1ActionFunction_rrd_1512249916
                0xffffffff8816e351                CSN1ActionFunction_rrd_816369318
                0xffffffff8816e375                CSN1ActionFunction_rrd_3324313283
                0xffffffff8816e3bd                CSN1ActionFunction_rrd_2990339883
                0xffffffff8816e405                CSN1ActionFunction_rrd_3032010578
                0xffffffff8816e429                CSN1ActionFunction_rrd_1031905020
                0xffffffff8816e471                CSN1ActionFunction_rrd_4006116147
                0xffffffff8816e495                CSN1ActionFunction_rrd_418297134
                0xffffffff8816e4dd                CSN1ActionFunction_rrd_1181260475
                0xffffffff8816e501                CSN1ActionFunction_rrd_2224366378
                0xffffffff8816e549                CSN1ActionFunction_rrd_899805472
                0xffffffff8816e591                CSN1ActionFunction_rrd_3303031633
                0xffffffff8816e5b5                CSN1ActionFunction_rrd_2257836614
                0xffffffff8816e5fd                CSN1ActionFunction_rrd_2577981689
                0xffffffff8816e645                CSN1ActionFunction_rrd_2354150077
                0xffffffff8816e669                CSN1ActionFunction_rrd_940626461
                0xffffffff8816e68d                CSN1ActionFunction_rrd_1843080495
                0xffffffff8816e6ad                CSN1ActionFunction_rrd_3615734445
                0xffffffff8816e6cd                CSN1ActionFunction_rrd_2940555322
                0xffffffff8816e6fd                CSN1ActionFunction_rrd_3047440023
                0xffffffff8816e745                CSN1ActionFunction_rrd_745283224
                0xffffffff8816e791                CSN1ActionFunction_rrd_96581344
                0xffffffff8816e7a1                CSN1ActionFunction_rrd_3105487277
                0xffffffff8816e7b1                CSN1ActionFunction_rrd_3173535371
                0xffffffff8816e7c1                CSN1ActionFunction_rrd_2160226336
                0xffffffff8816e7d1                CSN1ActionFunction_rrd_14819909
                0xffffffff8816e7e1                CSN1ActionFunction_rrd_4050602733
                0xffffffff8816e7f1                CSN1ActionFunction_rrd_1285363278
                0xffffffff8816e801                CSN1ActionFunction_rrd_1184185014
                0xffffffff8816e811                CSN1ActionFunction_rrd_3307903284
                0xffffffff8816e821                CSN1ActionFunction_rrd_3365294586
                0xffffffff8816e855                CSN1ActionFunction_rrd_1410763817
                0xffffffff8816e889                CSN1ActionFunction_rrd_4004516662
                0xffffffff8816e8bd                CSN1ActionFunction_rrd_1889926130
                0xffffffff8816e8f9                CSN1ActionFunction_rrd_3360651600
                0xffffffff8816e935                CSN1ActionFunction_rrd_2287117600
                0xffffffff8816e971                CSN1ActionFunction_rrd_341599030
                0xffffffff8816e9ed                CSN1ActionFunction_rrd_2301433874
                0xffffffff8816ea69                CSN1ActionFunction_rrd_370274160
                0xffffffff8816eab1                CSN1ActionFunction_rrd_3603340544
                0xffffffff8816eaf9                CSN1ActionFunction_rrd_2490248654
                0xffffffff8816eb5d                DECODE_c_PTBF_Release_Msg
                0xffffffff8816ec25                DECODE_c_PPDCH_Release_Msg
                0xffffffff8816eca9                DECODE_c_Packet_Channel_Description
                0xffffffff8816ede1                DECODE_c_IAX_Rest_Octets
                0xffffffff8816ee85                DECODE_c_PTimeslot_Reconfigure_Msg
                0xffffffff8816f635                DECODE_c_PPwrCtrl_TA_Msg
                0xffffffff8816f865                DECODE_c_TFrqList
                0xffffffff8816f9d1                DECODE_c_TSynchInd
                0xffffffff8816fa25                DECODE_c_TStartingTime
                0xffffffff8816fa69                DECODE_c_TPowerCommandAccType
                0xffffffff8816fabd                DECODE_c_TPowerCommand
                0xffffffff8816faf9                DECODE_c_TDedicatedModeOrTbf
                0xffffffff8816fb55                DECODE_c_TCipherModeSetting
                0xffffffff8816fb91                DECODE_c_TChDesc
                0xffffffff8816fc29                DECODE_c_TCellDesc
                0xffffffff8816fc6d                DECODE_c_TSkip
                0xffffffff8816fcc9                DECODE_c_TReqRef
                0xffffffff8816fd19                DECODE_c_TFrqChnSeq
                0xffffffff8816fd69                rri_SendListAbort
                0xffffffff8816fdd9                rri_SendCellList
                0xffffffff8816ff79                rri_Send0PlmnList
                0xffffffff8816ffd5                rri_SendAPlmnList
                0xffffffff88170125                rri_SendApiPsReg
                0xffffffff881701dd                rri_SendApiReg
                0xffffffff881702f1                rri_GiveIdxBa
                0xffffffff88170319                rri_GiveCellFromBa
                0xffffffff8817035d                rri_List2BitMap
                0xffffffff88170385                rri_BitMap2BaList
                0xffffffff88170431                rri_MarkBsicAllowed
                0xffffffff881704d1                rri_DispFullSynchQ
                0xffffffff88170525                rri_DispGsmNCellL
                0xffffffff881705b9                rri_DispBa
                0xffffffff88170629                rri_NCellParElemToGsmNCellL
                0xffffffff88170679                rri_FreeGsmNCellL
                0xffffffff881706d9                rri_GsmNCellNotRec
                0xffffffff881706fd                rri_BuildSi2QGsmNCellL
                0xffffffff88170839                rri_ResetFreqList
                0xffffffff8817093d                rri_NCellParElemToBaL
                0xffffffff88170a4d                rri_BuildOrderGsmNCellL
                0xffffffff88170d51                rri_GiveIdxNCell
                0xffffffff88170db5                rri_SendBaCmplte
                0xffffffff88170df1                rri_CheckBaCmplte
                0xffffffff88170e19                rri_CompareBa
                0xffffffff88170ed5                rri_UpdateBcchRead
                0xffffffff88170f65                rri_BuildPsi3GsmNCellL
                0xffffffff881711a9                rri_ComputeBa
                0xffffffff88171351                rri_BaNotRec
                0xffffffff881713b9                rri_RmvNeedTcInfo
                0xffffffff881713d9                rri_WhichSi
                0xffffffff88171449                rri_SetNeedTcInfo
                0xffffffff88171635                rri_ResetReqTc
                0xffffffff88171665                rri_ResetBaRcvTcInfo
                0xffffffff8817174d                rri_AddNeedTcInfo
                0xffffffff88171935                rri_SetNewNeedNotRcvReq
                0xffffffff881719f1                rri_SendL1BcchCfg
                0xffffffff88171b5d                rri_RefreshBcchCfg
                0xffffffff88171c15                rri_ResetNeedTcInfo
                0xffffffff88171c51                rri_PrepCompleteBcch
                0xffffffff88171c95                rri_Switch2Bcch
                0xffffffff88171d19                rri_StopTc
                0xffffffff88171dc1                rri_RstBcchSch
                0xffffffff88171df5                rri_ResetReqInfo
                0xffffffff88171e29                rri_SetSiNotFresh
                0xffffffff88171e55                rri_CleanTmpCbchCfg
                0xffffffff88171ea9                rri_CleanCbchCfg
                0xffffffff88171ee5                rri_CleanRfl
                0xffffffff88171f2d                rri_CleanGMa
                0xffffffff88171f89                rri_CleanGMaArray
                0xffffffff88171fb5                rri_CleanGprsServ
                0xffffffff88172065                rri_FreeServP
                0xffffffff881720a5                rri_FreeCell
                0xffffffff881720fd                rri_CleanGprsCell
                0xffffffff88172169                rri_CellParInit
                0xffffffff8817217d                rri_ReselParInit
                0xffffffff881721d5                rri_ServParInit
                0xffffffff88172305                rri_NewCell
                0xffffffff88172391                rri_ReselParCopy
                0xffffffff881723a1                rri_GiveIdxMon
                0xffffffff881723c5                rri_CmpMonitorReq
                0xffffffff881723fd                rri_SavMonitorReq
                0xffffffff88172421                rri_MonCmp
                0xffffffff8817243d                rri_DispMonL
                0xffffffff881724b1                rri_UpdateSynch
                0xffffffff88172525                rri_SendPMeasCtrl
                0xffffffff881725a9                rri_SendNcMonReq
                0xffffffff881725fd                rri_Serv2Neigh
                0xffffffff88172709                rri_SynchPurge
                0xffffffff8817271d                rri_Neigh2Serv
                0xffffffff88172811                rri_ResetMonStatus
                0xffffffff8817288d                rri_NeighPending
                0xffffffff881728d1                rri_Synchronized
                0xffffffff8817292d                rri_NewSynch
                0xffffffff88172a61                rri_StopSynch
                0xffffffff88172af5                rri_RemoveBaElem
                0xffffffff88172bcd                rri_BuildMonList
                0xffffffff88172d81                rri_BuildExtMonList
                0xffffffff88172e11                rri_DelSynchQ
                0xffffffff88172e35                rri_DispSynchQ
                0xffffffff88172ef1                rrp_EncodePCCFail
                0xffffffff88172f51                rrp_EncodePResReq
                0xffffffff88173189                cos
                0xffffffff88173231                sin
                0xffffffff881732d9                SMS_DM_GetRange
                0xffffffff881732f1                netconn_err
                0xffffffff88173391                lwip_fcntl
                0xffffffff88173459                lwip_ioctl
                0xffffffff88173539                lwip_setsockopt
                0xffffffff881735fd                lwip_getsockopt
                0xffffffff8817378d                lwip_netconn_is_err_msg
                0xffffffff88173d85                lwip_netconn_do_getaddr
                0xffffffff881745d5                lwip_select
                0xffffffff8817491d                netbuf_ref
                0xffffffff8817497d                netbuf_free
                0xffffffff881749ad                netbuf_delete
                0xffffffff88174a0d                netconn_gethostbyname_ext
                0xffffffff88174af9                netconn_gethostbyname_addrtype
                0xffffffff88174b35                netconn_send
                0xffffffff88174bd5                netconn_tcp_recvd
                0xffffffff88174c2d                netconn_listen_with_backlog
                0xffffffff88174c7d                lwip_listen
                0xffffffff88174d09                netconn_disconnect
                0xffffffff88174d59                netconn_connect
                0xffffffff88174dcd                lwip_connect
                0xffffffff88174f91                netconn_bind
                0xffffffff88175065                lwip_bind
                0xffffffff88175211                netconn_getaddr
                0xffffffff88175461                lwip_getsockname
                0xffffffff88175471                lwip_getpeername
                0xffffffff881754e1                netconn_shutdown
                0xffffffff88175509                lwip_shutdown
                0xffffffff8817558d                netconn_write_vectors_partly
                0xffffffff881756b1                lwip_sendmsg
                0xffffffff881758a5                lwip_writev
                0xffffffff881758c9                netconn_write_partly
                0xffffffff881758e9                lwip_send
                0xffffffff881759a9                lwip_write
                0xffffffff881759b9                lwip_sendto
                0xffffffff88175db1                netconn_recv_tcp_pbuf_flags
                0xffffffff88175fb1                netconn_recv_udp_raw_netbuf_flags
                0xffffffff88176249                lwip_recvmsg
                0xffffffff881763b5                netconn_accept
                0xffffffff88176501                lwip_netconn_do_gethostbyname
                0xffffffff88176541                lwip_netconn_do_recv
                0xffffffff88176e1d                lwip_netconn_do_write
                0xffffffff88176e91                lwip_netconn_do_send
                0xffffffff88176f45                lwip_netconn_do_listen
                0xffffffff88177085                netconn_alloc
                0xffffffff8817712d                netconn_new_with_proto_and_callback
                0xffffffff881771fd                lwip_netconn_do_disconnect
                0xffffffff88177239                lwip_netconn_do_connect
                0xffffffff88177301                lwip_netconn_do_bind
                0xffffffff8817735d                netconn_free
                0xffffffff881773c5                netconn_delete
                0xffffffff88177419                lwip_socket
                0xffffffff88177529                lwip_close
                0xffffffff881775a5                lwip_accept
                0xffffffff88177909                lwip_netconn_do_close
                0xffffffff8817797d                lwip_netconn_do_delconn
                0xffffffff88177ba1                lwip_netconn_do_newconn
                0xffffffff88177e99                lwip_recvfrom
                0xffffffff88178069                lwip_recv
                0xffffffff8817807d                lwip_read
                0xffffffff88178095                SUL_GsmBcdToAscii
                0xffffffff88178135                SUL_gsmbcd2asciiEx
                0xffffffff88178191                SUL_hex2ascii
                0xffffffff881781e1                SUL_AsciiToGsmBcd
                0xffffffff88178281                SUL_Encode7Bit
                0xffffffff88178305                SUL_Decode7Bit
                0xffffffff8817836d                mmc_MemInit
                0xffffffff8817837d                mmc_MemFreeAll
                0xffffffff881783bd                mmc_MemMalloc
                0xffffffff88178421                tcp_bind_netif
                0xffffffff88178439                tcp_update_rcv_ann_wnd
                0xffffffff881784d9                tcp_setprio
                0xffffffff881784e1                tcp_arg
                0xffffffff881784e9                tcp_accept
                0xffffffff881784f9                tcp_next_iss
                0xffffffff88178511                tcp_debug_state_str
                0xffffffff88178521                tcp_tcp_get_tcp_addrinfo
                0xffffffff8817856d                tcp_pcbs_sane
                0xffffffff881785e1                tcp_poll
                0xffffffff88178615                tcp_err
                0xffffffff88178645                tcp_sent
                0xffffffff88178675                tcp_recv
                0xffffffff881786a5                tcp_debug_print_flags
                0xffffffff88178751                tcp_debug_print_state
                0xffffffff88178771                tcp_debug_print_pcbs
                0xffffffff88178821                tcp_debug_print
                0xffffffff88178a01                tcp_eff_send_mss_netif
                0xffffffff88178a69                tcp_recved
                0xffffffff88178af9                tcp_seg_copy
                0xffffffff88178b29                tcp_seg_free
                0xffffffff88178b51                tcp_segs_free
                0xffffffff88178b6d                tcp_pcb_purge
                0xffffffff88178c29                tcp_pcb_remove
                0xffffffff88178d81                tcp_slowtmr
                0xffffffff881792c1                tcp_abandon
                0xffffffff881794a5                tcp_abort
                0xffffffff88179541                tcp_netif_ip_addr_changed
                0xffffffff8817964d                tcp_alloc
                0xffffffff881797d9                tcp_new_ip_type
                0xffffffff8817980d                tcp_connect
                0xffffffff88179aa9                tcp_listen_with_backlog_and_err
                0xffffffff88179c39                tcp_bind
                0xffffffff8817a0b9                tcp_shutdown
                0xffffffff8817a121                tcp_close
                0xffffffff8817a15d                tcp_recv_null
                0xffffffff8817a195                tcp_process_refused_data
                0xffffffff8817a275                tcp_fasttmr
                0xffffffff8817a339                tcp_tmr
                0xffffffff8817a369                tcp_init
                0xffffffff8817a3d1                tcp_trigger_input_pcb_close
                0xffffffff8817bc85                tcp_input
                0xffffffff8817c905                tcp_rexmit
                0xffffffff8817c99d                tcp_rexmit_fast
                0xffffffff8817cb15                tcp_rst
                0xffffffff8817cd7d                tcp_enqueue_flags
                0xffffffff8817cf81                tcp_send_fin
                0xffffffff8817cff5                tcp_write
                0xffffffff8817d7d1                tcp_send_empty_ack
                0xffffffff8817d8bd                tcp_output
                0xffffffff8817df85                tcp_rexmit_rto
                0xffffffff8817e035                tcp_keepalive
                0xffffffff8817e1e5                tcp_zero_window_probe
                0xffffffff8817e461                TS_GetSIMFileName
                0xffffffff8817eedd                TS_GetEventName
                0xffffffff8817f791                udp_bind_netif
                0xffffffff8817f7a9                udp_disconnect
                0xffffffff8817f819                udp_recv
                0xffffffff8817f821                udp_debug_print
                0xffffffff8817f8ad                udp_netif_ip_addr_changed
                0xffffffff8817f9a5                udp_new
                0xffffffff8817f9d5                udp_new_ip_type
                0xffffffff8817f9f5                udp_remove
                0xffffffff8817fa2d                udp_bind
                0xffffffff8817fd65                udp_connect
                0xffffffff8817ff19                udp_sendto_if_src
                0xffffffff88180159                udp_sendto_if
                0xffffffff88180201                udp_sendto
                0xffffffff88180379                udp_send
                0xffffffff881803a1                udp_input
                0xffffffff88180989                udp_init
                0xffffffff881809ad                vpp_AudioMP3DecSetReloadFlag
                0xffffffff881809b9                vpp_AudioMP3DecSetEqParam
                0xffffffff88180a1d                vpp_AudioMP3DecSetDrcModeParam
                0xffffffff88180acd                vpp_AudioJpegDecStatus
                0xffffffff88180af1                vpp_AudioJpegDecScheduleOneFrame
                0xffffffff88180c29                vpp_AudioJpegDecClose
                0xffffffff88180c4d                vpp_AudioJpegDecOpen
                0xffffffff88180e35                vpp_AudioJpegEncStatus
                0xffffffff88180e59                vpp_AudioJpegEncScheduleOneFrame
                0xffffffff88180ee5                vpp_AudioJpegEncClose
                0xffffffff88180ef5                vpp_AudioJpegEncOpen
                0xffffffff881811b5                sndrec_endHandler
                0xffffffff881811cd                sndrec_halfHandler
                0xffffffff881811e5                sndrec_DrvHandler
                0xffffffff8818121d                Mmc_MicStartRecord
                0xffffffff88181305                sndRec_writeWaveHeader
                0xffffffff881813b5                Mmc_sndRecStop
                0xffffffff88181535                sndRec_msgHandle
                0xffffffff8818172d                Mmc_sndRecStart
                0xffffffff881818a1                get_coeffs_skip
                0xffffffff881818d1                get_coeffs_peakingEQ
                0xffffffff88181b39                get_coeffs_HPF
                0xffffffff88181d69                get_coeffs_LPF
                0xffffffff88181f91                get_coeffs_highShelf
                0xffffffff88182331                get_coeffs_lowShelf
                0xffffffff88182739                get_coeffs_for_one_band
                0xffffffff881827e1                calc_coeffs_for_voc
                0xffffffff88182999                CALL_Status
                0xffffffff88182add                CC_AsyncEventProcess
                0xffffffff88182eb5                CALL_DTMF
                0xffffffff88182f71                CALL_Answer
                0xffffffff88182fb5                CALL_HangUp
                0xffffffff88182fdd                CALL_Dial
                0xffffffff881830d5                GetCharset
                0xffffffff881830e5                GSM_7BitTo8Bit
                0xffffffff881830f9                GSM_8BitTo7Bit
                0xffffffff8818310d                LocalLanguage2UnicodeBigEndian
                0xffffffff88183159                LocalLanguage2Unicode
                0xffffffff88183171                Unicode2LocalLanguageBigEndian
                0xffffffff881831bd                Unicode2LocalLanguage
                0xffffffff881831d5                API_FS_SetUseOldVersion
                0xffffffff881831e1                UnicodeToUCS2Encoding
                0xffffffff8818320d                AsciiToUnicodeString
                0xffffffff88183281                API_FS_RealPath
                0xffffffff88183291                API_FS_CloseDir
                0xffffffff881832a1                API_FS_RewindDir
                0xffffffff881832b1                API_FS_SeekDir
                0xffffffff881832c1                API_FS_TellDir
                0xffffffff881832d1                API_FS_ReadDir_r
                0xffffffff881832e1                API_FS_OpenDir
                0xffffffff881832f1                API_FS_ReadDir
                0xffffffff88183301                API_FS_GetFSInfo
                0xffffffff881833cd                API_FS_Mkdir
                0xffffffff881833f1                FS_TCardInit
                0xffffffff88183589                API_FS_Rmdir
                0xffffffff881835ad                API_FS_ChangeDir
                0xffffffff881835f5                API_FS_GetCurDir
                0xffffffff88183625                API_FS_GetDirSize
                0xffffffff88183655                API_FS_GetFileSize
                0xffffffff8818367d                API_FS_GetFileName
                0xffffffff881836a1                API_FS_Rename
                0xffffffff881836c5                API_FS_IsEndOfFile
                0xffffffff881836e9                API_FS_Seek
                0xffffffff88183719                API_FS_Delete
                0xffffffff8818373d                API_FS_Create
                0xffffffff8818378d                API_FS_Flush
                0xffffffff881837b1                API_FS_Write
                0xffffffff881837d5                API_FS_Read
                0xffffffff881837f9                API_FS_Close
                0xffffffff8818381d                API_FS_Open
                0xffffffff8818386d                Battery_AsyncEventProcess
                0xffffffff881838f1                PM_Restart
                0xffffffff8818391d                PM_ShutDown
                0xffffffff88183949                PM_Voltage
                0xffffffff88183959                PM_SetSysMinFreq
                0xffffffff8818396d                PM_SleepMode
                0xffffffff88183995                PM_PowerEnable
                0xffffffff881839c1                Network_GetPdpContextId
                0xffffffff881839cd                Network_SetStatusChangedCallback
                0xffffffff881839d9                CheckPdpContext
                0xffffffff881839e5                Network_GetSignalQuality
                0xffffffff881839fd                GPRS_ActRsp
                0xffffffff88183a89                GetLocationPeocessData
                0xffffffff88183da5                NW_AsyncEventProcess_GetCellInfo
                0xffffffff88183f2d                Network_GetCellInfoRequst
                0xffffffff88183f8d                Network_GetIp
                0xffffffff88183ff1                AttachResult
                0xffffffff881840ad                GPRS_AsyncEventProcess
                0xffffffff881841ad                Network_AsyncEventProcess
                0xffffffff8818455d                Network_GetActiveStatus
                0xffffffff88184599                Network_StartDeactive
                0xffffffff881845e9                ApiPdpContextToCFWPdpContext
                0xffffffff881846cd                Network_StartActive
                0xffffffff881847a1                Network_GetAttachStatus
                0xffffffff881847cd                Network_StartDetach
                0xffffffff8818480d                Network_StartAttach
                0xffffffff88184845                OS_QueryCallbackTimer
                0xffffffff88184855                OS_StopCallbackTimer
                0xffffffff88184871                OS_StartCallbackTimer
                0xffffffff8818488d                OS_UnlockMutex
                0xffffffff8818489d                OS_LockMutex
                0xffffffff881848ad                OS_DeleteMutex
                0xffffffff881848bd                OS_CreateMutex
                0xffffffff881848cd                OS_ReleaseSemaphore
                0xffffffff881848e9                OS_WaitForSemaphore
                0xffffffff88184905                OS_DeleteSemaphore
                0xffffffff88184921                OS_CreateSemaphore
                0xffffffff88184931                OS_GetHeapUsageStatus
                0xffffffff88184955                OS_Free
                0xffffffff881849c1                OS_Realloc
                0xffffffff881849d1                OS_Malloc
                0xffffffff881849f9                OS_IsEventAvailable
                0xffffffff88184a15                OS_ResetEventQueue
                0xffffffff88184a31                OS_SendEvent
                0xffffffff88184a59                OS_WaitEvent
                0xffffffff88184a89                OS_SleepUs
                0xffffffff88184a99                OS_Sleep
                0xffffffff88184ab5                OS_ResumeTask
                0xffffffff88184ad1                OS_SuspendTask
                0xffffffff88184aed                OS_DeleteTask
                0xffffffff88184b09                OS_StopTask
                0xffffffff88184b19                OS_StartTask
                0xffffffff88184b29                OS_CreateTask
                0xffffffff88184b6d                TIME_SetIsAutoUpdateRtcTime
                0xffffffff88184b79                TIME_IsAutoUpdateRtcTime
                0xffffffff88184b85                TIME_SystemTime2TimeStamp
                0xffffffff88184b9d                mktime
                0xffffffff88184be1                TIME_TimeStamp2SystemTime
                0xffffffff88184bfd                TIME_GetLocalTime
                0xffffffff88184c6d                timelocal
                0xffffffff88184d0d                TIME_SetLocalTime
                0xffffffff88184da9                TIME_SetSystemTime
                0xffffffff88184dc5                TIME_SetTimeZone
                0xffffffff88184de9                TIME_SetRtcTime
                0xffffffff88184e49                TIME_GetTimeZone
                0xffffffff88184e59                TIME_GetSystemTime
                0xffffffff88184e75                TIME_GetRtcTIme
                0xffffffff88184f05                TIME_GetIime
                0xffffffff88184f15                clock
                0xffffffff88184f25                LILY_AudioSetEQ
                0xffffffff88184f45                LILY_AudioGetPlayInformation
                0xffffffff88184f7d                LILY_AudioStop
                0xffffffff88184fad                LILY_AudioResume
                0xffffffff88184fe9                LILY_AudioPause
                0xffffffff8818501d                LILY_AudioPlay
                0xffffffff88185095                SETITEMS_c_Facility_IE_Invoke
                0xffffffff88185115                SETITEMS_c_Facility_IE_Invoke_data_chargingInfo_e1_Value
                0xffffffff8818512d                SETITEMS_c_Facility_IE_Invoke_data_chargingInfo_e2_Value
                0xffffffff88185145                SETITEMS_c_Facility_IE_Invoke_data_chargingInfo_e3_Value
                0xffffffff8818515d                SETITEMS_c_Facility_IE_Invoke_data_chargingInfo_e4_Value
                0xffffffff88185175                SETITEMS_c_Facility_IE_Invoke_data_chargingInfo_e5_Value
                0xffffffff8818518d                SETITEMS_c_Facility_IE_Invoke_data_chargingInfo_e6_Value
                0xffffffff881851a5                SETITEMS_c_Facility_IE_Invoke_data_chargingInfo_e7_Value
                0xffffffff881851bd                CFW_EmodGetIMEIBCD
                0xffffffff88185271                CFW_EmodGetIMEI
                0xffffffff881852f1                CFW_EmodAudioTestEnd
                0xffffffff88185355                CFW_EmodAudioTestStart
                0xffffffff88185445                CFW_EmodOutfieldTestStart
                0xffffffff88185509                CFW_EmodOutfieldTestEnd
                0xffffffff88185619                CFW_GetCellInfo
                0xffffffff88185691                CFW_EmodOutfieldTestProc
                0xffffffff88185971                __ieee754_rem_pio2
                0xffffffff88185df9                fat_read_entries
                0xffffffff88186059                fat_write_root_entries
                0xffffffff88186235                fat_read_root_entries
                0xffffffff88186485                fat_write_entries
                0xffffffff881865e5                fat_add_root_entry
                0xffffffff881868d1                fat_add_entry
                0xffffffff88186d71                fat_delete_fatentries
                0xffffffff88186e2d                fat_remove_entry
                0xffffffff8818706d                export_get_ldnumber
                0xffffffff88187b4d                fatfs_vfs_mount
                0xffffffff88188111                fat_closedir
                0xffffffff881884d9                fat_mount
                0xffffffff88188a99                f_truncate
                0xffffffff88189189                fat_opendir
                0xffffffff88189459                f_mkdir
                0xffffffff881895d1                f_unlink
                0xffffffff88189675                f_rename
                0xffffffff88189789                f_getfree
                0xffffffff8818986d                f_sync
                0xffffffff88189921                fat_close
                0xffffffff88189945                fat_lseek
                0xffffffff88189ac1                f_write
                0xffffffff88189c7d                fat_read
                0xffffffff88189e01                fat_open
                0xffffffff8818a191                f_stat
                0xffffffff8818a1dd                fat_readdir
                0xffffffff8818a231                get_fattime
                0xffffffff8818a241                fat_wtoupper
                0xffffffff8818a2e9                ff_oem2uni
                0xffffffff8818a305                ff_uni2oem
                0xffffffff8818a321                FS_AsynGetFsInfoPrc
                0xffffffff8818a37d                FS_AsynWritePrc
                0xffffffff8818a3c1                FS_AsynReadPrc
                0xffffffff8818a3fd                BAL_AsynFsTask
                0xffffffff8818a45d                FS_AsynReadReq
                0xffffffff8818a635                icmp_time_exceeded
                0xffffffff8818a649                icmp_dest_unreach
                0xffffffff8818a65d                icmp_input
                0xffffffff8818aa19                icmp6_param_problem
                0xffffffff8818aa2d                icmp6_dest_unreach
                0xffffffff8818aa45                icmp6_input
                0xffffffff8818aba1                icmp6_time_exceeded_with_addrs
                0xffffffff8818abf9                lwip_standard_chksum
                0xffffffff8818ac65                inet_chksum
                0xffffffff8818ac81                inet_chksum_pbuf
                0xffffffff8818adad                ip6_chksum_pseudo
                0xffffffff8818ae25                inet_chksum_pseudo
                0xffffffff8818ae6d                ip_chksum_pseudo
                0xffffffff8818aea9                __kernel_cos
                0xffffffff8818b0b1                __kernel_rem_pio2
                0xffffffff8818b931                __kernel_sin
                0xffffffff8818bad1                lily_getModuleState
                0xffffffff8818baed                lily_getLilyActiveState
                0xffffffff8818bb01                checkModuleConflict
                0xffffffff8818bbad                lily_changeToState
                0xffffffff8818bbdd                lily_exitModule
                0xffffffff8818bbf5                magic_init
                0xffffffff8818bc19                SETITEMS_c_RxNpduNumList_NpduValue
                0xffffffff8818bc31                SETITEMS_c_RxNpduNumList_Nsapi
                0xffffffff8818bc49                SETITEMS_c_Packet_Paging_Request_Page_info
                0xffffffff8818bc89                SETITEMS_c_Packet_Paging_Request_Page_info_data_TMSI
                0xffffffff8818bca1                SETITEMS_c_TSkip
                0xffffffff8818bcb9                SETITEMS_c_PPwrCtrl_TA_Msg_Pwr_Ctrl_Param_GAMMA
                0xffffffff8818bcd1                SETITEMS_c_PPwrCtrl_TA_Msg_Pwr_Ctrl_Param_GAMMA_p
                0xffffffff8818bce9                SETITEMS_c_PTimeslot_Reconfigure_Msg_Dynamic_Alloc_GAMMA
                0xffffffff8818bd01                SETITEMS_c_PTimeslot_Reconfigure_Msg_Dynamic_Alloc_USF
                0xffffffff8818bd19                SETITEMS_c_PTimeslot_Reconfigure_Msg_Dynamic_Alloc_USF_p
                0xffffffff8818bd31                SETITEMS_c_PTimeslot_Reconfigure_Msg_Fixed_Alloc_Pwr_Ctrl_Param_GAMMA
                0xffffffff8818bd49                SETITEMS_c_PTimeslot_Reconfigure_Msg_Fixed_Alloc_Pwr_Ctrl_Param_GAMMA_p
                0xffffffff8818bd61                SETITEMS_c_PTimeslot_Reconfigure_Msg_Freq_Param_Dir_enc_1_GPRS_MA_ArfcnIdxList_ArfcnIdx
                0xffffffff8818bd79                SETITEMS_c_PTimeslot_Reconfigure_Msg_Freq_Param_Dir_enc_1_GPRS_MA_RflNbList_RflNb
                0xffffffff8818bd91                floor
                0xffffffff8818bee1                scalbn
                0xffffffff8818bff1                pow
                0xffffffff8818c001                sqrt
                0xffffffff8818c011                ArrayCopare
                0xffffffff8818c039                NeighborCellDataParse
                0xffffffff8818c171                CurrCellDataParse
                0xffffffff8818c6e5                disk_ioctl
                0xffffffff8818c701                disk_write
                0xffffffff8818c715                disk_read
                0xffffffff8818c729                disk_initialize
                0xffffffff8818c741                disk_status
                0xffffffff8818c759                __ieee754_pow
                0xffffffff8818d311                __ieee754_sqrt
                0xffffffff8818d4b5                fat_disk_set_device
                0xffffffff8818d4e1                fat_disk_remove_device
                0xffffffff8818d4fd                fat_disk_status
                0xffffffff8818d51d                fat_disk_initialize
                0xffffffff8818d53d                fat_disk_oem2uni
                0xffffffff8818d57d                fat_disk_uni2oem
                0xffffffff8818d5bd                fat_disk_gettime
                0xffffffff8818d609                fat_disk_ioctl
                0xffffffff8818d675                fat_disk_write
                0xffffffff8818d6b5                fat_disk_read
                0xffffffff8818d6f5                OnPlatform_SetDefaultValue
                0xffffffff8818d705                AppMain
                0xffffffff8818d715                Sdk_Init
                0xffffffff8818d745                GIZWITS_GetSocket
                0xffffffff8818d769                cloud_do_one_packet
                0xffffffff8818d7d5                GIZWITS_Close
                0xffffffff8818d851                GIZWITS_Ping
                0xffffffff8818d885                GIZWITS_DoReceive
                0xffffffff8818d8c9                GIZWITS_Send
                0xffffffff8818d955                GIZWITS_Connect
                0xffffffff8818d9a9                GIZWITS_GetConfig
                0xffffffff8818d9d5                strcasecmp
                0xffffffff8818da45                gettimeofday
                0xffffffff8818dae1                time
                0xffffffff8818db05                rint
                0xffffffff8818dc31                atol
                0xffffffff8818dc59                atoll
                0xffffffff8818dcb1                gcvt
                0xffffffff8818ddc1                HexToStr
                0xffffffff8818de39                StrToHex_noSpace
                0xffffffff8818dec5                mqtt_length2bytes
                0xffffffff8818def5                write_config
                0xffffffff8818df49                parse_config
                0xffffffff8818dfad                readn
                0xffffffff8818dfe9                set_sock_time
                0xffffffff8818e065                sock_connect_by_domain
                0xffffffff8818e1dd                writen
                0xffffffff8818e22d                log_debug
                0xffffffff8818eb3d                vsscanf
                0xffffffff8818eb5d                sscanf
                0xffffffff8818eb75                atan2
                0xffffffff8818eb85                fmod
                0xffffffff8818eb95                log
                0xffffffff8818eba5                log10
                0xffffffff8818ebb5                remainder
                0xffffffff8818ebc5                AUDIO_RecordStop
                0xffffffff8818ec89                AUDIO_LoopTestEnd
                0xffffffff8818ec9d                AUDIO_LoopTestStart
                0xffffffff8818ecd9                AUDIO_GetPlayInfo
                0xffffffff8818ece9                AUDIO_Stop
                0xffffffff8818ed01                AUDIO_Resume
                0xffffffff8818ed11                AUDIO_Pause
                0xffffffff8818ed21                AUDIO_SetEQ
                0xffffffff8818ed31                AUDIO_Play
                0xffffffff8818ee45                AUDIO_SpeakerSetVolume
                0xffffffff8818ee6d                AUDIO_SpeakerClose
                0xffffffff8818ee7d                AUDIO_SpeakerOpen
                0xffffffff8818ee8d                AUDIO_SetMode
                0xffffffff8818eea1                AUDIO_SpeakerSetMute
                0xffffffff8818eed1                AUDIO_MicSetMute
                0xffffffff8818ef0d                AUDIO_MicClose
                0xffffffff8818ef1d                AUDIO_MicOpen
                0xffffffff8818ef2d                AUDIO_RecordStart
                0xffffffff8818f029                Trace
                0xffffffff8818f081                MEMBLOCK_Trace
                0xffffffff8818f1cd                API_FotaByServer
                0xffffffff8818f385                API_FotaClean
                0xffffffff8818f3bd                API_FotaReceiveData
                0xffffffff8818f465                API_FotaInit
                0xffffffff8818f4f1                GPS_IsOpen
                0xffffffff8818f4fd                GPS_Close
                0xffffffff8818f53d                GPS_Open
                0xffffffff8818f649                ADC_Read
                0xffffffff8818f681                ADC_Close
                0xffffffff8818f691                ADC_Init
                0xffffffff8818f6a5                I2C_Close
                0xffffffff8818f6b9                I2C_ReadRawByte
                0xffffffff8818f6c9                I2C_WriteRawByte
                0xffffffff8818f6dd                I2C_WriteMem
                0xffffffff8818f709                I2C_ReadMem
                0xffffffff8818f735                I2C_Receive
                0xffffffff8818f751                I2C_Transmit
                0xffffffff8818f76d                I2C_Init
                0xffffffff8818f7e5                UART_Read
                0xffffffff8818f7e9                UART_Close
                0xffffffff8818f805                UART_Write
                0xffffffff8818f819                UART_Init
                0xffffffff8818fb6d                INFO_GetIMEI
                0xffffffff8818fb89                LBS_GetLocation
                0xffffffff88190031                MQTT_IsConnected
                0xffffffff88190041                MQTT_Publish
                0xffffffff8819007d                MQTT_Unsubscribe
                0xffffffff88190099                MQTT_Subscribe
                0xffffffff881900b5                MQTT_SetInPubCallback
                0xffffffff881900c5                MQTT_Disconnect
                0xffffffff88190115                MQTT_ClientNew
                0xffffffff88190159                MQTT_ClientDestroy
                0xffffffff88190291                MQTT_Connect
                0xffffffff88190431                SSL_Destroy
                0xffffffff881904b9                SSL_Close
                0xffffffff881904d9                SSL_Read
                0xffffffff881905ad                SSL_Write
                0xffffffff8819062d                SSL_Connect
                0xffffffff881907c5                SSL_Init
                0xffffffff881909f1                SYS_EnterCriticalSection
                0xffffffff881909fd                SYS_ExitCriticalSection
                0xffffffff88190a09                strtof
                0xffffffff88190a21                atof
                0xffffffff88190a31                atox
                0xffffffff88190a85                cJSON_Delete
                0xffffffff88190e41                cJSON_GetObjectItem
                0xffffffff881911e1                cJSON_ParseWithOpts
                0xffffffff881912d1                cJSON_Parse
                0xffffffff881912e5                cloud_push_ota
                0xffffffff8819139d                cloud_send_data
                0xffffffff8819159d                cloud_mqtt_connect
                0xffffffff881918fd                send_packet
                0xffffffff88191911                cloud_trans_data
                0xffffffff881919f1                get_one_cloud_packet
                0xffffffff88191d61                cloud_do_mqtt
                0xffffffff88191f65                cloud_mqtt_ping
                0xffffffff88192011                cloud_register_safe
                0xffffffff88192431                cloud_provision_safe
                0xffffffff881929b9                cloud_init
                0xffffffff88192be9                mbedtls_ctr_drbg_init
                0xffffffff88192dbd                mbedtls_ctr_drbg_reseed
                0xffffffff88192e41                mbedtls_ctr_drbg_seed_entropy_len
                0xffffffff88192ea5                mbedtls_ctr_drbg_seed
                0xffffffff88192ebd                mbedtls_ctr_drbg_random_with_add
                0xffffffff88192f8d                mbedtls_ctr_drbg_random
                0xffffffff88192fa1                mbedtls_ctr_drbg_free
                0xffffffff88192fd1                __ieee754_atan2
                0xffffffff881931b1                __ieee754_fmod
                0xffffffff88193401                __ieee754_log
                0xffffffff88193841                __ieee754_log10
                0xffffffff88193971                __ieee754_remainder
                0xffffffff88193b01                mbedtls_entropy_add_source
                0xffffffff88193c0d                mbedtls_entropy_func
                0xffffffff88193cd5                mbedtls_entropy_init
                0xffffffff88193d2d                mbedtls_entropy_free
                0xffffffff88193d59                mbedtls_havege_poll
                0xffffffff88193d85                mbedtls_hardclock_poll
                0xffffffff88193dbd                fotaCalcCrc
                0xffffffff88193de5                fotaCalcFileCrc
                0xffffffff88193e79                fotaContextSize
                0xffffffff88193f0d                fotaInit
                0xffffffff88193ff1                fotaInvalidate
                0xffffffff88194181                fotaDownloadFinished
                0xffffffff881941b5                fotaFlashUncacheMap
                0xffffffff881941c9                fotaFileRemove
                0xffffffff881941d9                fotaFileRenameAtomic
                0xffffffff881941e9                fotaFileRead
                0xffffffff88194221                fotaFileWrite
                0xffffffff88194259                fotaFileClose
                0xffffffff88194269                fotaFileOpen
                0xffffffff8819428d                gpsd_uart_register_rx_cb
                0xffffffff881943a5                GPS_UART_GetBytes
                0xffffffff88194589                GPS_UART_PutBytes
                0xffffffff881946ad                gpsd_uart_close
                0xffffffff88194725                gpsd_uart_set_dcb_config
                0xffffffff881948fd                gpsd_uart_open
                0xffffffff88194aad                user_uart_close
                0xffffffff88194ac9                user_uart_open
                0xffffffff88195f7d                mbedtls_havege_random
                0xffffffff88195ff1                mbedtls_havege_init
                0xffffffff88196011                mbedtls_havege_free
                0xffffffff88196029                cg_http_api_response
                0xffffffff88196221                http_dns_analysis
                0xffffffff881962c9                Http_init
                0xffffffff881964c5                Http_get
                0xffffffff88196551                mupnp_http_headerlist_get
                0xffffffff8819658d                mupnp_http_headerlist_getvalue
                0xffffffff881965a9                mupnp_http_headerlist_set
                0xffffffff881965ed                mupnp_http_headerlist_delete
                0xffffffff8819660d                mupnp_http_headerlist_new
                0xffffffff88196631                mupnp_http_packet_read_chunk
                0xffffffff881966c9                mupnp_http_packet_read_headers
                0xffffffff88196781                mupnp_http_packet_getheadervalue
                0xffffffff88196791                mupnp_http_packet_getheaderssizet
                0xffffffff881967ad                mupnp_http_packet_print
                0xffffffff881967dd                mupnp_http_packet_post
                0xffffffff881968d1                mupnp_http_packet_setheadervalue
                0xffffffff881968e1                mupnp_http_packet_sethost
                0xffffffff88196975                mupnp_http_packet_setheaderssizet
                0xffffffff881969a1                mupnp_http_packet_read_body
                0xffffffff88196b51                mupnp_http_packet_clear
                0xffffffff88196b75                mupnp_http_packet_read
                0xffffffff88196bb1                mupnp_http_packet_clean
                0xffffffff88196bcd                mupnp_http_packet_init
                0xffffffff88196be9                mupnp_http_request_setsocket
                0xffffffff88196bed                mupnp_http_request_print
                0xffffffff88196bfd                mupnp_http_request_geturi
                0xffffffff88196c0d                mupnp_http_request_getuseragent
                0xffffffff88196c1d                mupnp_http_request_getversion
                0xffffffff88196c2d                mupnp_http_request_getmethod
                0xffffffff88196c3d                mupnp_http_request_seturi
                0xffffffff88196c4d                mupnp_http_request_setuseragent
                0xffffffff88196c5d                mupnp_http_request_setversion
                0xffffffff88196c6d                mupnp_http_request_setmethod
                0xffffffff88196c7d                mupnp_http_request_clear
                0xffffffff88196cb5                mupnp_http_request_delete
                0xffffffff88196cf5                mupnp_http_request_new
                0xffffffff88196d65                mupnp_http_response_getstatuscode
                0xffffffff88196d69                mupnp_http_response_setreasonphrase
                0xffffffff88196d79                mupnp_http_response_setversion
                0xffffffff88196d89                mupnp_http_response_setstatuscode
                0xffffffff88196da9                mupnp_http_response_clear
                0xffffffff88196ddd                mupnp_http_response_read
                0xffffffff88196e9d                mupnp_http_response_delete
                0xffffffff88196ec5                mupnp_http_response_new
                0xffffffff88196f15                emqtt_num_rem_len_bytes
                0xffffffff88196f39                emqtt_parse_rem_len
                0xffffffff88196f61                emqtt_parse_msg_id
                0xffffffff88196fb9                emqtt_set_alive
                0xffffffff88196fcd                emqtt_ping
                0xffffffff88197025                emqtt_subscribe
                0xffffffff8819715d                emqtt_publish_with_qos
                0xffffffff88197341                emqtt_connect
                0xffffffff8819756d                emqtt_init_auth
                0xffffffff881975a5                emqtt_init
                0xffffffff8819761d                mupnp_list_header_init
                0xffffffff8819762d                mupnp_list_node_init
                0xffffffff8819763d                mupnp_list_insert
                0xffffffff88197651                mupnp_list_add
                0xffffffff88197669                mupnp_list_remove
                0xffffffff88197685                mupnp_list_next
                0xffffffff88197699                mupnp_list_clear
                0xffffffff881976d5                mupnp_log_set_separator
                0xffffffff88197701                mupnp_log_add_target
                0xffffffff88197789                mupnp_log_print
                0xffffffff881978b1                lwip_mqtt_client_is_connected
                0xffffffff88197919                lwip_mqtt_set_inpub_callback
                0xffffffff88197959                lwip_mqtt_disconnect
                0xffffffff881979b1                lwip_mqtt_sub_unsub
                0xffffffff88197a3d                lwip_mqtt_publish
                0xffffffff88197ae1                lwip_mqtt_connect
                0xffffffff88197c71                mbedtls_debug_set_threshold
                0xffffffff88197c95                mbedtls_debug_print_mpi
                0xffffffff88197e25                mbedtls_debug_print_ecp
                0xffffffff88197ea5                mbedtls_debug_print_ret
                0xffffffff88197f09                mbedtls_debug_print_buf
                0xffffffff88198075                mbedtls_debug_print_msg
                0xffffffff881980dd                mbedtls_debug_print_crt
                0xffffffff88198439                mqtt_client_is_connected
                0xffffffff88198551                mqtt_set_inpub_callback
                0xffffffff881986d9                mqtt_disconnect
                0xffffffff88198749                mqtt_client_connect
                0xffffffff88198fcd                mqtt_sub_unsub
                0xffffffff88199131                mqtt_publish
                0xffffffff88199609                mupnp_net_uri_clear
                0xffffffff8819965d                mupnp_net_uri_setvalue
                0xffffffff881998f5                mupnp_net_uri_delete
                0xffffffff88199951                mupnp_net_uri_new
                0xffffffff881999b5                mupnp_net_isipv6address
                0xffffffff881999dd                mbedtls_net_init
                0xffffffff881999e5                mbedtls_net_free
                0xffffffff88199a39                mbedtls_net_send
                0xffffffff88199a85                mbedtls_net_recv
                0xffffffff88199ad1                mbedtls_net_recv_timeout
                0xffffffff88199b75                mbedtls_net_connect
                0xffffffff88199c0d                mbedtls_pk_init
                0xffffffff88199c19                mbedtls_pk_info_from_type
                0xffffffff88199c31                mbedtls_pk_setup
                0xffffffff88199c6d                mbedtls_pk_can_do
                0xffffffff88199c8d                mbedtls_pk_encrypt
                0xffffffff88199cc5                mbedtls_pk_get_bitlen
                0xffffffff88199ce1                mbedtls_pk_debug
                0xffffffff88199d09                mbedtls_pk_get_name
                0xffffffff88199d1d                mbedtls_pk_get_type
                0xffffffff88199d59                mbedtls_pk_sign
                0xffffffff88199db1                mbedtls_pk_verify
                0xffffffff88199e01                mbedtls_pk_verify_ext
                0xffffffff88199eb5                mbedtls_pk_free
                0xffffffff8819aa11                mbedtls_pk_parse_key
                0xffffffff8819ac4d                mbedtls_pk_parse_subpubkey
                0xffffffff8819ad85                mbedtls_platform_set_calloc_free
                0xffffffff8819ade5                mbedtls_rsa_set_padding
                0xffffffff8819adf1                mbedtls_rsa_free
                0xffffffff8819ae6d                mbedtls_rsa_init
                0xffffffff8819af41                mbedtls_rsa_check_pubkey
                0xffffffff8819afa5                mbedtls_rsa_public
                0xffffffff8819b025                mbedtls_rsa_private
                0xffffffff8819b2f5                mbedtls_rsa_rsassa_pkcs1_v15_verify
                0xffffffff8819b4dd                mbedtls_rsa_rsassa_pss_verify_ext
                0xffffffff8819b6f9                mbedtls_rsa_rsassa_pss_verify
                0xffffffff8819b729                mbedtls_rsa_pkcs1_verify
                0xffffffff8819b775                mbedtls_rsa_rsassa_pkcs1_v15_sign
                0xffffffff8819b91d                mbedtls_rsa_rsassa_pss_sign
                0xffffffff8819baa1                mbedtls_rsa_pkcs1_sign
                0xffffffff8819baed                mbedtls_rsa_rsaes_pkcs1_v15_decrypt
                0xffffffff8819bc39                mbedtls_rsa_rsaes_oaep_decrypt
                0xffffffff8819be15                mbedtls_rsa_pkcs1_decrypt
                0xffffffff8819be6d                mbedtls_rsa_rsaes_pkcs1_v15_encrypt
                0xffffffff8819bf59                mbedtls_rsa_rsaes_oaep_encrypt
                0xffffffff8819c08d                mbedtls_rsa_pkcs1_encrypt
                0xffffffff8819c0d9                mbedtls_rsa_check_privkey
                0xffffffff8819c2e9                mbedtls_rsa_check_pub_priv
                0xffffffff8819c339                atan
                0xffffffff8819c709                mbedtls_sha512_clone
                0xffffffff8819c719                mbedtls_sha512_starts
                0xffffffff8819c831                mbedtls_sha512_process
                0xffffffff8819d91d                mbedtls_sha512_update
                0xffffffff8819d9d5                mbedtls_sha512_finish
                0xffffffff8819dc05                mbedtls_sha512_init
                0xffffffff8819dc19                mbedtls_sha512_free
                0xffffffff8819dc31                mbedtls_sha512
                0xffffffff8819dc75                mupnp_socket_startup
                0xffffffff8819dc85                mupnp_socket_cleanup
                0xffffffff8819dc95                mupnp_socket_isbound
                0xffffffff8819dca1                mupnp_socket_setid
                0xffffffff8819dca5                mupnp_socket_tosockaddrinfo
                0xffffffff8819dd25                mupnp_socket_settimeout
                0xffffffff8819dd71                mupnp_socket_write
                0xffffffff8819dde9                http_socket_read
                0xffffffff8819deed                mupnp_socket_read
                0xffffffff8819df11                mupnp_socket_readline
                0xffffffff8819dfd1                mupnp_socket_connect
                0xffffffff8819e055                mupnp_socket_close
                0xffffffff8819e105                mupnp_socket_delete
                0xffffffff8819e12d                mupnp_socket_new
                0xffffffff8819e1bd                mbedtls_ssl_update_handshake_status
                0xffffffff8819e215                mbedtls_ssl_dtls_replay_check
                0xffffffff8819e29d                mbedtls_ssl_dtls_replay_update
                0xffffffff8819e36d                mbedtls_ssl_conf_endpoint
                0xffffffff8819e385                mbedtls_ssl_conf_transport
                0xffffffff8819e3a1                mbedtls_ssl_conf_authmode
                0xffffffff8819e3bd                mbedtls_ssl_conf_rng
                0xffffffff8819e3c5                mbedtls_ssl_conf_dbg
                0xffffffff8819e3cd                mbedtls_ssl_set_bio
                0xffffffff8819e3d9                mbedtls_ssl_conf_read_timeout
                0xffffffff8819e3e1                mbedtls_ssl_conf_cert_profile
                0xffffffff8819e431                mbedtls_ssl_conf_own_cert
                0xffffffff8819e441                mbedtls_ssl_conf_ca_chain
                0xffffffff8819e449                mbedtls_ssl_conf_sig_hashes
                0xffffffff8819e44d                mbedtls_ssl_conf_max_version
                0xffffffff8819e459                mbedtls_ssl_conf_min_version
                0xffffffff8819e465                mbedtls_ssl_get_bytes_avail
                0xffffffff8819e471                mbedtls_ssl_get_verify_result
                0xffffffff8819e485                mbedtls_ssl_get_max_frag_len
                0xffffffff8819e4b5                mbedtls_ssl_pk_alg_from_sig
                0xffffffff8819e4d5                mbedtls_ssl_sig_hash_set_const_hash
                0xffffffff8819e4dd                mbedtls_ssl_md_alg_from_hash
                0xffffffff8819e4fd                mbedtls_ssl_hash_from_md_alg
                0xffffffff8819e515                mbedtls_ssl_check_curve
                0xffffffff8819e531                mbedtls_ssl_check_sig_hash
                0xffffffff8819e54d                mbedtls_ssl_write_version
                0xffffffff8819e569                mbedtls_ssl_read_version
                0xffffffff8819e5d5                mbedtls_ssl_set_timer_cb
                0xffffffff8819e5ed                mbedtls_ssl_recv_flight_completed
                0xffffffff8819e645                mbedtls_ssl_optimize_checksum
                0xffffffff8819e671                mbedtls_ssl_send_flight_completed
                0xffffffff8819ebd1                mbedtls_ssl_check_cert_usage
                0xffffffff8819ec4d                mbedtls_ssl_sig_from_pk
                0xffffffff8819ec7d                mbedtls_ssl_config_free
                0xffffffff8819ecf5                mbedtls_ssl_config_init
                0xffffffff8819ed09                mbedtls_ssl_init
                0xffffffff8819ed1d                mbedtls_ssl_session_init
                0xffffffff8819ed31                mbedtls_ssl_config_defaults
                0xffffffff8819ee55                mbedtls_ssl_session_free
                0xffffffff8819ee8d                mbedtls_ssl_handshake_free
                0xffffffff8819ef41                mbedtls_ssl_transform_free
                0xffffffff8819ef7d                mbedtls_ssl_free
                0xffffffff8819f0e5                mbedtls_ssl_handshake_wrapup
                0xffffffff8819f1c9                mbedtls_ssl_flush_output
                0xffffffff8819f321                mbedtls_ssl_set_hostname
                0xffffffff8819f42d                mbedtls_ssl_reset_checksum
                0xffffffff8819f619                mbedtls_ssl_setup
                0xffffffff8819f7a9                mbedtls_ssl_handshake_step
                0xffffffff8819f7d9                mbedtls_ssl_handshake
                0xffffffff8819f8dd                mbedtls_ssl_renegotiate
                0xffffffff8819f9e5                mbedtls_ssl_write_record
                0xffffffff881a0329                mbedtls_ssl_write
                0xffffffff881a0431                mbedtls_ssl_write_finished
                0xffffffff881a05c9                mbedtls_ssl_write_change_cipher_spec
                0xffffffff881a0649                mbedtls_ssl_write_certificate
                0xffffffff881a07ed                mbedtls_ssl_send_alert_message
                0xffffffff881a08a9                mbedtls_ssl_close_notify
                0xffffffff881a0939                mbedtls_ssl_resend
                0xffffffff881a0a5d                mbedtls_ssl_prepare_handshake_record
                0xffffffff881a0f9d                mbedtls_ssl_handle_message_type
                0xffffffff881a1059                mbedtls_ssl_fetch_input
                0xffffffff881a139d                mbedtls_ssl_read_record_layer
                0xffffffff881a2095                mbedtls_ssl_read_record
                0xffffffff881a2155                mbedtls_ssl_parse_finished
                0xffffffff881a22c9                mbedtls_ssl_parse_change_cipher_spec
                0xffffffff881a2411                mbedtls_ssl_parse_certificate
                0xffffffff881a28b9                mbedtls_ssl_read
                0xffffffff881a2bc9                mbedtls_ssl_psk_derive_premaster
                0xffffffff881a30f5                mbedtls_ssl_derive_keys
                0xffffffff881a370d                mupnp_string_getvalue
                0xffffffff881a3719                mupnp_string_length
                0xffffffff881a3729                mupnp_string_new
                0xffffffff881a3745                mupnp_string_clear
                0xffffffff881a3769                mupnp_string_setpointervalue
                0xffffffff881a3791                mupnp_string_delete
                0xffffffff881a37b1                mupnp_string_naddvalue
                0xffffffff881a381d                mupnp_string_addvalue
                0xffffffff881a3841                mupnp_string_setnvalue
                0xffffffff881a3889                mupnp_string_setvalue
                0xffffffff881a38b1                mupnp_ssizet2str
                0xffffffff881a38d5                mupnp_strstr
                0xffffffff881a38f9                mupnp_strcasecmp
                0xffffffff881a3915                mupnp_strcaseeq
                0xffffffff881a3931                mupnp_strcmp
                0xffffffff881a394d                mupnp_streq
                0xffffffff881a3969                mupnp_strlen
                0xffffffff881a397d                mupnp_strrtrim
                0xffffffff881a39c5                mupnp_strrchr
                0xffffffff881a3a11                mupnp_strchr
                0xffffffff881a3a59                mupnp_strdup
                0xffffffff881a3a8d                mupnp_string_tokenizer_hasmoretoken
                0xffffffff881a3a91                mupnp_string_tokenizer_nexttoken
                0xffffffff881a3b29                mupnp_string_tokenizer_nextalltoken
                0xffffffff881a3b51                mupnp_string_tokenizer_delete
                0xffffffff881a3b75                mupnp_string_tokenizer_new
                0xffffffff881a3bdd                mupnp_wait
                0xffffffff881a3c01                mbedtls_timing_get_timer
                0xffffffff881a3c4d                mbedtls_timing_get_delay
                0xffffffff881a3c81                mbedtls_timing_set_delay
                0xffffffff881a3c99                mbedtls_timing_hardclock
                0xffffffff881a3ce5                gmult
                0xffffffff881a3d1d                coef_add
                0xffffffff881a3d41                coef_mult
                0xffffffff881a3e85                Rcon
                0xffffffff881a3ed1                add_round_key
                0xffffffff881a3f15                mix_columns
                0xffffffff881a3f79                inv_mix_columns
                0xffffffff881a3fdd                shift_rows
                0xffffffff881a401d                inv_shift_rows
                0xffffffff881a4059                sub_bytes
                0xffffffff881a40a5                inv_sub_bytes
                0xffffffff881a40f1                sub_word
                0xffffffff881a411d                rot_word
                0xffffffff881a4135                key_expansion
                0xffffffff881a41dd                cipher
                0xffffffff881a428d                inv_cipher
                0xffffffff881a4339                aesECB128Decrypt
                0xffffffff881a43c9                aesDestroy
                0xffffffff881a4401                aesECB128Encrypt
                0xffffffff881a44c5                invSboxInit
                0xffffffff881a44f1                aesInit
                0xffffffff881a4521                sboxAssign
                0xffffffff881a4be9                invSboxAssign
                0xffffffff881a52c1                mbedtls_x509_crl_free
                0xffffffff881a5361                mbedtls_x509_crl_init
                0xffffffff881a5375                mbedtls_x509_crl_parse_der
                0xffffffff881a5729                mbedtls_x509_crl_parse
                0xffffffff881a5811                mbedtls_x509_crt_check_key_usage
                0xffffffff881a5891                mbedtls_x509_crt_free
                0xffffffff881a597d                mbedtls_x509_crt_init
                0xffffffff881a5ae5                mbedtls_x509_crt_check_extended_key_usage
                0xffffffff881a5b91                mbedtls_x509_crt_is_revoked
                0xffffffff881a6135                mbedtls_x509_crt_verify_with_profile
                0xffffffff881a62fd                mbedtls_x509_crt_verify_info
                0xffffffff881a638d                mbedtls_x509_crt_info
                0xffffffff881a6ac1                mbedtls_x509_crt_parse_der
                0xffffffff881a7125                mbedtls_x509_crt_parse
                0xffffffff881a7471                mbedtls_aes_setkey_enc
                0xffffffff881a76cd                mbedtls_internal_aes_encrypt
                0xffffffff881a7c19                mbedtls_internal_aes_decrypt
                0xffffffff881a8169                mbedtls_aes_crypt_ecb
                0xffffffff881a8189                mbedtls_aes_crypt_cfb128
                0xffffffff881a8219                mbedtls_aes_crypt_ctr
                0xffffffff881a8289                mbedtls_aes_crypt_cbc
                0xffffffff881a8349                mbedtls_aes_init
                0xffffffff881a835d                mbedtls_aes_free
                0xffffffff881a8375                mbedtls_aes_setkey_dec
                0xffffffff881a847d                altcp_arg
                0xffffffff881a8485                altcp_accept
                0xffffffff881a848d                altcp_recv
                0xffffffff881a8495                altcp_sent
                0xffffffff881a849d                altcp_poll
                0xffffffff881a84c1                altcp_err
                0xffffffff881a84c9                altcp_recved
                0xffffffff881a84e9                altcp_bind
                0xffffffff881a850d                altcp_connect
                0xffffffff881a8531                altcp_listen_with_backlog_and_err
                0xffffffff881a8551                altcp_abort
                0xffffffff881a8569                altcp_close
                0xffffffff881a8589                altcp_shutdown
                0xffffffff881a85a9                altcp_write
                0xffffffff881a85d9                altcp_output
                0xffffffff881a85f9                altcp_mss
                0xffffffff881a8615                altcp_sndbuf
                0xffffffff881a8631                altcp_sndqueuelen
                0xffffffff881a864d                altcp_nagle_disable
                0xffffffff881a8665                altcp_nagle_enable
                0xffffffff881a867d                altcp_nagle_disabled
                0xffffffff881a8699                altcp_setprio
                0xffffffff881a86b5                altcp_get_tcp_addrinfo
                0xffffffff881a86d5                altcp_get_ip
                0xffffffff881a86f1                altcp_get_port
                0xffffffff881a870d                altcp_dbg_get_tcp_state
                0xffffffff881a8729                altcp_default_bind
                0xffffffff881a874d                altcp_default_shutdown
                0xffffffff881a8769                altcp_default_output
                0xffffffff881a8785                altcp_default_sndbuf
                0xffffffff881a87a1                altcp_default_sndqueuelen
                0xffffffff881a87bd                altcp_default_nagle_disable
                0xffffffff881a87d5                altcp_default_nagle_enable
                0xffffffff881a87ed                altcp_default_nagle_disabled
                0xffffffff881a8809                altcp_default_setprio
                0xffffffff881a8825                altcp_default_get_tcp_addrinfo
                0xffffffff881a8841                altcp_default_get_ip
                0xffffffff881a885d                altcp_default_get_port
                0xffffffff881a8879                altcp_default_dbg_get_tcp_state
                0xffffffff881a8895                altcp_free
                0xffffffff881a88bd                altcp_alloc
                0xffffffff881a8ff9                altcp_tcp_new_ip_type
                0xffffffff881a9941                altcp_tls_new
                0xffffffff881a9aed                altcp_tls_free_config3
                0xffffffff881a9b41                altcp_tls_create_config_client3
                0xffffffff881a9dd1                altcp_mbedtls_free_config
                0xffffffff881a9df5                altcp_mbedtls_free
                0xffffffff881a9e2d                altcp_mbedtls_alloc_config
                0xffffffff881a9e41                altcp_mbedtls_alloc
                0xffffffff881a9e61                altcp_mbedtls_mem_init
                0xffffffff881a9ef5                mbedtls_asn1_get_len
                0xffffffff881a9fa5                mbedtls_asn1_get_tag
                0xffffffff881a9fd1                mbedtls_asn1_get_bool
                0xffffffff881aa00d                mbedtls_asn1_get_int
                0xffffffff881aa061                mbedtls_asn1_get_bitstring
                0xffffffff881aa0b9                mbedtls_asn1_get_bitstring_null
                0xffffffff881aa0f1                mbedtls_asn1_get_sequence_of
                0xffffffff881aa185                mbedtls_asn1_get_alg
                0xffffffff881aa229                mbedtls_asn1_get_alg_null
                0xffffffff881aa255                mbedtls_asn1_get_mpi
                0xffffffff881aa289                mbedtls_base64_decode
                0xffffffff881aa3d5                mbedtls_mpi_init
                0xffffffff881aa3e5                mbedtls_mpi_free
                0xffffffff881aa419                mbedtls_mpi_get_bit
                0xffffffff881aa439                mbedtls_mpi_lsb
                0xffffffff881aa475                mbedtls_mpi_bitlen
                0xffffffff881aa4c1                mbedtls_mpi_size
                0xffffffff881aa51d                mbedtls_mpi_cmp_abs
                0xffffffff881aa581                mbedtls_mpi_cmp_mpi
                0xffffffff881aa60d                mbedtls_mpi_cmp_int
                0xffffffff881aaae1                mbedtls_mpi_write_binary
                0xffffffff881aac61                mbedtls_mpi_grow
                0xffffffff881aacc9                mbedtls_mpi_shift_l
                0xffffffff881aad71                mbedtls_mpi_set_bit
                0xffffffff881aadd9                mbedtls_mpi_lset
                0xffffffff881aae25                mbedtls_mpi_shift_r
                0xffffffff881aaeb5                mbedtls_mpi_read_binary
                0xffffffff881aaf35                mbedtls_mpi_fill_random
                0xffffffff881aaf81                mbedtls_mpi_safe_cond_swap
                0xffffffff881ab041                mbedtls_mpi_safe_cond_assign
                0xffffffff881ab0d9                mbedtls_mpi_copy
                0xffffffff881ab151                mbedtls_mpi_mul_mpi
                0xffffffff881ab249                mbedtls_mpi_mul_int
                0xffffffff881ab265                mbedtls_mpi_sub_abs
                0xffffffff881ab2ed                mbedtls_mpi_gcd
                0xffffffff881ab3ed                mbedtls_mpi_add_abs
                0xffffffff881ab4a9                mbedtls_mpi_sub_mpi
                0xffffffff881ab511                mbedtls_mpi_sub_int
                0xffffffff881ab53d                mbedtls_mpi_add_mpi
                0xffffffff881ab5a5                mbedtls_mpi_add_int
                0xffffffff881ab5d1                mbedtls_mpi_shrink
                0xffffffff881ab659                mbedtls_mpi_read_string
                0xffffffff881ab7b5                mbedtls_mpi_div_mpi
                0xffffffff881abb3d                mbedtls_mpi_mod_mpi
                0xffffffff881abbb1                mbedtls_mpi_inv_mod
                0xffffffff881abe1d                mbedtls_mpi_exp_mod
                0xffffffff881ac33d                mbedtls_cipher_info_from_type
                0xffffffff881ac355                mbedtls_cipher_info_from_values
                0xffffffff881ac37d                mbedtls_cipher_setkey
                0xffffffff881ac3cd                mbedtls_cipher_reset
                0xffffffff881ac5f1                mbedtls_cipher_finish
                0xffffffff881ac6b5                mbedtls_cipher_set_padding_mode
                0xffffffff881ac73d                mbedtls_cipher_auth_decrypt
                0xffffffff881ac7c9                mbedtls_cipher_auth_encrypt
                0xffffffff881ac84d                mbedtls_cipher_update
                0xffffffff881aca59                mbedtls_cipher_set_iv
                0xffffffff881acaa5                mbedtls_cipher_crypt
                0xffffffff881acaf5                mbedtls_cipher_setup
                0xffffffff881acb3d                mbedtls_cipher_init
                0xffffffff881acb51                mbedtls_cipher_free
                0xffffffff881ad09d                mbedtls_des_free
                0xffffffff881ad0b1                mbedtls_des3_free
                0xffffffff881ad0c9                mbedtls_des_setkey
                0xffffffff881ad455                mbedtls_des_setkey_enc
                0xffffffff881ad469                mbedtls_des_setkey_dec
                0xffffffff881ad50d                mbedtls_des3_set2key_enc
                0xffffffff881ad531                mbedtls_des3_set2key_dec
                0xffffffff881ad5d1                mbedtls_des3_set3key_enc
                0xffffffff881ad5f5                mbedtls_des3_set3key_dec
                0xffffffff881ad61d                mbedtls_des_crypt_ecb
                0xffffffff881ad8a5                mbedtls_des3_crypt_ecb
                0xffffffff881addd9                mbedtls_des3_crypt_cbc
                0xffffffff881ade99                mbedtls_des_crypt_cbc
                0xffffffff881adf59                mbedtls_des3_init
                0xffffffff881adf6d                mbedtls_des_init
                0xffffffff881adfe5                mbedtls_dhm_make_public
                0xffffffff881ae0a1                mbedtls_dhm_calc_secret
                0xffffffff881ae2b5                mbedtls_dhm_read_params
                0xffffffff881ae325                mbedtls_dhm_init
                0xffffffff881ae339                mbedtls_dhm_free
                0xffffffff881ae3a9                mupnp_dictionary_delete
                0xffffffff881ae3c9                mupnp_dictionary_element_delete
                0xffffffff881ae3f9                mbedtls_ecdh_get_params
                0xffffffff881ae455                mbedtls_ecdh_read_params
                0xffffffff881ae48d                mbedtls_ecdh_free
                0xffffffff881ae4e9                mbedtls_ecdh_init
                0xffffffff881ae4fd                mbedtls_ecdh_compute_shared
                0xffffffff881ae561                mbedtls_ecdh_calc_secret
                0xffffffff881ae5c9                mbedtls_ecdh_gen_public
                0xffffffff881ae5dd                mbedtls_ecdh_make_public
                0xffffffff881ae635                mbedtls_ecdsa_free
                0xffffffff881ae645                mbedtls_ecdsa_init
                0xffffffff881ae655                mbedtls_ecdsa_from_keypair
                0xffffffff881ae709                mbedtls_ecdsa_verify
                0xffffffff881ae851                mbedtls_ecdsa_read_signature
                0xffffffff881ae8ed                mbedtls_ecdsa_sign
                0xffffffff881aea89                mbedtls_ecdsa_sign_det
                0xffffffff881aeb29                mbedtls_ecdsa_write_signature
                0xffffffff881aebe1                mbedtls_ecp_curve_list
                0xffffffff881aebed                mbedtls_ecp_grp_id_list
                0xffffffff881aec2d                mbedtls_ecp_curve_info_from_grp_id
                0xffffffff881aec51                mbedtls_ecp_curve_info_from_tls_id
                0xffffffff881aec79                mbedtls_ecp_tls_read_group
                0xffffffff881aecc5                mbedtls_ecp_group_copy
                0xffffffff881aecd5                mbedtls_ecp_is_zero
                0xffffffff881aeced                mbedtls_ecp_check_privkey
                0xffffffff881aed69                mbedtls_ecp_point_init
                0xffffffff881aed91                mbedtls_ecp_point_free
                0xffffffff881aee49                mbedtls_ecp_check_pubkey
                0xffffffff881aefed                mbedtls_ecp_copy
                0xffffffff881af4f9                mbedtls_ecp_set_zero
                0xffffffff881af8a9                mbedtls_ecp_point_read_binary
                0xffffffff881af921                mbedtls_ecp_tls_read_point
                0xffffffff881b0145                mbedtls_ecp_mul
                0xffffffff881b0639                mbedtls_ecp_gen_keypair_base
                0xffffffff881b0741                mbedtls_ecp_gen_keypair
                0xffffffff881b07e5                mbedtls_ecp_muladd
                0xffffffff881b0855                mbedtls_ecp_group_init
                0xffffffff881b0869                mbedtls_ecp_keypair_init
                0xffffffff881b0895                mbedtls_ecp_point_write_binary
                0xffffffff881b093d                mbedtls_ecp_tls_write_point
                0xffffffff881b0975                mbedtls_ecp_group_free
                0xffffffff881b09f1                mbedtls_ecp_keypair_free
                0xffffffff881b0a1d                mbedtls_ecp_check_pub_priv
                0xffffffff881b0b69                mbedtls_ecp_group_load
                0xffffffff881b2105                mbedtls_gcm_free
                0xffffffff881b2125                mbedtls_gcm_finish
                0xffffffff881b2221                mbedtls_gcm_init
                0xffffffff881b2235                mbedtls_gcm_update
                0xffffffff881b2341                mbedtls_gcm_starts
                0xffffffff881b24d5                mbedtls_gcm_crypt_and_tag
                0xffffffff881b2515                mbedtls_gcm_auth_decrypt
                0xffffffff881b2585                mbedtls_gcm_setkey
                0xffffffff881b2785                mbedtls_hmac_drbg_update
                0xffffffff881b2829                mbedtls_hmac_drbg_reseed
                0xffffffff881b28a1                mbedtls_hmac_drbg_random_with_add
                0xffffffff881b2971                mbedtls_hmac_drbg_random
                0xffffffff881b2985                mbedtls_hmac_drbg_seed_buf
                0xffffffff881b29e1                mbedtls_hmac_drbg_init
                0xffffffff881b29f5                mbedtls_hmac_drbg_free
                0xffffffff881b2a1d                mupnp_http_statuscode2reasonphrase
                0xffffffff881b2c41                mupnp_http_header_getvalue
                0xffffffff881b2c51                mupnp_http_header_getname
                0xffffffff881b2c61                mupnp_http_header_setvalue
                0xffffffff881b2c71                mupnp_http_header_setname
                0xffffffff881b2c81                mupnp_http_header_delete
                0xffffffff881b2ca9                mupnp_http_header_new
                0xffffffff881b2d05                mupnp_mbedtlssocket_connect
                0xffffffff881b301d                mbedtls_md_info_from_type
                0xffffffff881b3035                mbedtls_md_free
                0xffffffff881b3079                mbedtls_md_setup
                0xffffffff881b30d1                mbedtls_md_starts
                0xffffffff881b30f1                mbedtls_md_update
                0xffffffff881b3111                mbedtls_md_finish
                0xffffffff881b3131                mbedtls_md
                0xffffffff881b3151                mbedtls_md_hmac_update
                0xffffffff881b3175                mbedtls_md_hmac_finish
                0xffffffff881b31e1                mbedtls_md_hmac_reset
                0xffffffff881b321d                mbedtls_md_process
                0xffffffff881b323d                mbedtls_md_get_size
                0xffffffff881b3249                mbedtls_md_get_name
                0xffffffff881b3255                mbedtls_md_hmac_starts
                0xffffffff881b3335                mbedtls_md_init
                0xffffffff881b3341                mbedtls_md5_clone
                0xffffffff881b3351                mbedtls_md5_starts
                0xffffffff881b3379                mbedtls_md5_process
                0xffffffff881b4105                mbedtls_md5_update
                0xffffffff881b41a5                mbedtls_md5_finish
                0xffffffff881b4259                mbedtls_md5_init
                0xffffffff881b426d                mbedtls_md5_free
                0xffffffff881b4285                mbedtls_md5
                0xffffffff881b46a1                mbedtls_oid_get_oid_by_md
                0xffffffff881b46c5                mbedtls_oid_get_pkcs12_pbe_alg
                0xffffffff881b471d                mbedtls_oid_get_md_alg
                0xffffffff881b476d                mbedtls_oid_get_cipher_alg
                0xffffffff881b47bd                mbedtls_oid_get_ec_grp
                0xffffffff881b480d                mbedtls_oid_get_pk_alg
                0xffffffff881b4899                mbedtls_oid_get_sig_alg
                0xffffffff881b48c5                mbedtls_oid_get_sig_alg_desc
                0xffffffff881b48e5                mbedtls_oid_get_extended_key_usage
                0xffffffff881b4935                mbedtls_oid_get_x509_ext_type
                0xffffffff881b4985                mbedtls_oid_get_attr_short_name
                0xffffffff881b49e5                mbedtls_pem_free
                0xffffffff881b4a91                mbedtls_pem_init
                0xffffffff881b4c19                mbedtls_pem_read_buffer
                0xffffffff881b4fb1                mbedtls_pkcs12_derivation
                0xffffffff881b5279                mbedtls_pkcs12_pbe
                0xffffffff881b5341                mbedtls_pkcs12_pbe_sha1_rc4_128
                0xffffffff881b53a9                mbedtls_pkcs5_pbkdf2_hmac
                0xffffffff881b54a9                mbedtls_pkcs5_pbes2
                0xffffffff881b567d                mbedtls_ripemd160_clone
                0xffffffff881b568d                mbedtls_ripemd160_starts
                0xffffffff881b56bd                mbedtls_ripemd160_process
                0xffffffff881b78fd                mbedtls_ripemd160_update
                0xffffffff881b799d                mbedtls_ripemd160_finish
                0xffffffff881b7a65                mbedtls_ripemd160_init
                0xffffffff881b7a79                mbedtls_ripemd160_free
                0xffffffff881b7a91                mbedtls_ripemd160
                0xffffffff881b7ad5                mbedtls_sha1_clone
                0xffffffff881b7ae5                mbedtls_sha1_starts
                0xffffffff881b7b15                mbedtls_sha1_process
                0xffffffff881b9265                mbedtls_sha1_update
                0xffffffff881b9305                mbedtls_sha1_finish
                0xffffffff881b93cd                mbedtls_sha1_init
                0xffffffff881b93e1                mbedtls_sha1_free
                0xffffffff881b93f9                mbedtls_sha1
                0xffffffff881b943d                mbedtls_sha256_clone
                0xffffffff881b944d                mbedtls_sha256_starts
                0xffffffff881b94d9                mbedtls_sha256_process
                0xffffffff881ba1ad                mbedtls_sha256_update
                0xffffffff881ba24d                mbedtls_sha256_finish
                0xffffffff881ba351                mbedtls_sha256_init
                0xffffffff881ba365                mbedtls_sha256_free
                0xffffffff881ba37d                mbedtls_sha256
                0xffffffff881ba3c1                mbedtls_ssl_ciphersuite_from_id
                0xffffffff881ba3d9                mbedtls_ssl_list_ciphersuites
                0xffffffff881ba435                mbedtls_ssl_get_ciphersuite_name
                0xffffffff881ba451                mbedtls_ssl_get_ciphersuite_sig_pk_alg
                0xffffffff881ba46d                mbedtls_ssl_ciphersuite_uses_psk
                0xffffffff881bc149                mbedtls_ssl_handshake_client_step
                0xffffffff881bd2a1                mbedtls_x509_time_is_past
                0xffffffff881bd2a5                mbedtls_x509_time_is_future
                0xffffffff881bd2a9                mbedtls_x509_key_size_helper
                0xffffffff881bd2d5                mbedtls_x509_serial_gets
                0xffffffff881bd389                mbedtls_x509_sig_alg_gets
                0xffffffff881bd449                mbedtls_x509_dn_gets
                0xffffffff881bd555                mbedtls_x509_get_ext
                0xffffffff881bd5b5                mbedtls_x509_get_sig
                0xffffffff881bd601                mbedtls_x509_get_time
                0xffffffff881bd759                mbedtls_x509_get_name
                0xffffffff881bd881                mbedtls_x509_get_serial
                0xffffffff881bd8dd                mbedtls_x509_get_alg
                0xffffffff881bd8f9                mbedtls_x509_get_alg_null
                0xffffffff881bd915                mbedtls_x509_get_rsassa_pss_params
                0xffffffff881bdafd                mbedtls_x509_get_sig_alg
                0xffffffff881bdb89                mbedtls_arc4_setup
                0xffffffff881bdbe5                mbedtls_arc4_crypt
                0xffffffff881bdc51                mbedtls_arc4_init
                0xffffffff881bdc65                mbedtls_arc4_free
                0xffffffff881bdc7d                mbedtls_asn1_write_len
                0xffffffff881bdd69                mbedtls_asn1_write_tag
                0xffffffff881bdd85                mbedtls_asn1_write_mpi
                0xffffffff881bdeb9                mbedtls_blowfish_setkey
                0xffffffff881bdfb5                mbedtls_blowfish_crypt_ecb
                0xffffffff881be06d                mbedtls_blowfish_crypt_cfb64
                0xffffffff881be0fd                mbedtls_blowfish_crypt_ctr
                0xffffffff881be16d                mbedtls_blowfish_crypt_cbc
                0xffffffff881be22d                mbedtls_blowfish_init
                0xffffffff881be241                mbedtls_blowfish_free
                0xffffffff881be335                mbedtls_camellia_crypt_ecb
                0xffffffff881be4b5                mbedtls_camellia_crypt_cfb128
                0xffffffff881be545                mbedtls_camellia_crypt_ctr
                0xffffffff881be5b5                mbedtls_camellia_crypt_cbc
                0xffffffff881be675                mbedtls_camellia_setkey_enc
                0xffffffff881beb6d                mbedtls_camellia_init
                0xffffffff881beb81                mbedtls_camellia_free
                0xffffffff881beb99                mbedtls_camellia_setkey_dec
                0xffffffff881bec45                mbedtls_ccm_init
                0xffffffff881bef75                mbedtls_ccm_auth_decrypt
                0xffffffff881befe5                mbedtls_ccm_encrypt_and_tag
                0xffffffff881bf019                mbedtls_ccm_free
                0xffffffff881bf035                mbedtls_ccm_setkey
                0xffffffff881bf089                mbedtls_md4_clone
                0xffffffff881bf099                mbedtls_md4_starts
                0xffffffff881bf0c1                mbedtls_md4_process
                0xffffffff881bf9e9                mbedtls_md4_update
                0xffffffff881bfa89                mbedtls_md4_finish
                0xffffffff881bfb3d                mbedtls_md4_init
                0xffffffff881bfb51                mbedtls_md4_free
                0xffffffff881bfb69                mbedtls_md4

.irqsram        0xffffffff81c00280      0x2e0 load address 0xffffffff880142e0
 hex/app/SW_V2112_csdk.elf(.irqsram)
 .irqsram       0xffffffff81c00280      0x2e0 hex/app/SW_V2112_csdk.elf
                0xffffffff81c00280                _sxr_Irq_handler

.bcpu_rodata    0xffffffff88011610       0x10
 hex/app/SW_V2112_csdk.elf(.bcpu_rodata)
 .bcpu_rodata   0xffffffff88011610       0x10 hex/app/SW_V2112_csdk.elf
                0xffffffff88011610                g_spcMapAccess

.sramucbss      0xffffffffa1c08ce0      0x940
 hex/app/SW_V2112_csdk.elf(.sramucbss)
 .sramucbss     0xffffffffa1c08ce0      0x940 hex/app/SW_V2112_csdk.elf
                0xffffffffa1c08ce0                g_halMapTable
                0xffffffffa1c094c8                g_sim_data_buffer

.ram            0xffffffff82001a20       0xe0 load address 0xffffffff8801c700
 hex/app/SW_V2112_csdk.elf(.ram)
 .ram           0xffffffff82001a20       0xe0 hex/app/SW_V2112_csdk.elf
                0xffffffff82001a20                _ram_special_cached_start
                0xffffffff82001a20                _ram_txt_start
                0xffffffff82001a21                hal_SysSoftResetNoFlash
                0xffffffff82001a45                hal_SysSoftReset
                0xffffffff82001a81                hal_SysRestart
                0xffffffff82001ab9                hal_GetVocDma
                0xffffffff82001abd                hal_VocStateActive
                0xffffffff82001ad1                hal_DmaDone

.bcpu_rotext    0xffffffff88011100      0x510
 hex/app/SW_V2112_csdk.elf(.bcpu_rotext)
 .bcpu_rotext   0xffffffff88011100      0x510 hex/app/SW_V2112_csdk.elf
                0xffffffff88011101                bcpu_main
                0xffffffff880114d1                patch_Open
                0xffffffff88011535                patch_GetLocation
                0xffffffff8801155d                patch_Enable
                0xffffffff88011581                patch_ReplaceFunction

.mailbox        0xffffffffa1b00580      0x280
 hex/app/SW_V2112_csdk.elf(.mailbox)
 .mailbox       0xffffffffa1b00580      0x280 hex/app/SW_V2112_csdk.elf
                0xffffffffa1b00580                g_mailbox
                0xffffffffa1b00580                _dualport_sram_romed_mbx_start

.spi_reg_debug  0xffffffffa2000000      0x980
 hex/app/SW_V2112_csdk.elf(.spi_reg_debug)
 .spi_reg_debug
                0xffffffffa2000000      0x980 hex/app/SW_V2112_csdk.elf
                0xffffffffa2000000                g_rfdXcvRegValue
                0xffffffffa2000000                _spi_reg_debug_start
                0xffffffffa2000500                g_abbSpiRegValue
                0xffffffffa2000840                g_pmdSpiRegValue

.bbsram_patch_data
                0xffffffff81987870       0x30 load address 0xffffffff88012690
 hex/app/SW_V2112_csdk.elf(.bbsram_patch_data)
 .bbsram_patch_data
                0xffffffff81987870       0x30 hex/app/SW_V2112_csdk.elf
                0xffffffff81987870                Copy_ChModeSaic
                0xffffffff81987870                _bb_sram_patch_data_start
                0xffffffff81987874                Rx_q_CCHSaic
                0xffffffff81987894                Rx_CS_Saic
                0xffffffff81987898                decodedUsfSaic
                0xffffffff8198789c                gUsfDistance
                0xffffffff8198789e                gDistance_max
                0xffffffff819878a0                _bb_sram_patch_data_end

.main_entry_section
                0xffffffff88013e80      0x460
 hex/app/SW_V2112_csdk.elf(.main_entry_section)
 .main_entry_section
                0xffffffff88013e80      0x460 hex/app/SW_V2112_csdk.elf
                0xffffffff88013e80                _code_base
                0xffffffff88013e80                boot_LoaderEnter
                0xffffffff88013ebc                boot_FlashProgrammed
                0xffffffff88013ed8                boot_BreakBootMain
                0xffffffff88013f0c                boot_Loader
                0xffffffff880142e0                _board_config_start
                0xffffffff880142e0                _board_config_end

.ramtext        0xffffffff82001b00    0x15100 load address 0xffffffff8801c7e0
 hex/app/SW_V2112_csdk.elf(.ramtext)
 .ramtext       0xffffffff82001b00    0x15100 hex/app/SW_V2112_csdk.elf
                0xffffffff82001b00                _ram_cached_txt_start
                0xffffffff82001b01                hal_AifSetSideTone
                0xffffffff82001b11                hal_AifStopPlay
                0xffffffff82001b59                hal_AifStopRecord
                0xffffffff82001ba1                hal_AifIrqHandler
                0xffffffff82001c09                hal_AifPause
                0xffffffff82001c2d                hal_AifTonePause
                0xffffffff82001c51                hal_AifSideToneGainDb2Val
                0xffffffff82001c71                hal_AifEnFMRecNewPath
                0xffffffff82001ee9                clkInitAIF
                0xffffffff82001f15                hal_AifTone
                0xffffffff820020ed                hal_AifRecordStream
                0xffffffff82002171                hal_AifPlayStream
                0xffffffff820021e5                hal_AifClose
                0xffffffff8200231d                hal_AifOpen
                0xffffffff820025b1                hal_AIFSetTxStb
                0xffffffff820025d9                hal_AnaGpadcSetCalibData
                0xffffffff8200260d                hal_AnaGpadcSleep
                0xffffffff82002699                hal_AnaGpadcGetRaw
                0xffffffff820027d1                hal_AnaGpadcGpadc2Volt
                0xffffffff820028c1                hal_AnaGpadcGet
                0xffffffff82002929                hal_AnaGpadcWakeUp
                0xffffffff82002939                hal_AnaGpadcClose
                0xffffffff82002959                hal_AnaGpadcOpen
                0xffffffff820029a1                hal_ComregsSetSnapCfg
                0xffffffff820029b5                hal_ComregsIrqHandler
                0xffffffff82002a01                hal_ComregsXcpuIrqClearCause
                0xffffffff82002a39                hal_ComregsGetMask
                0xffffffff82002a9d                hal_ComregsSetIrqHandler
                0xffffffff82002ad5                hal_ConfigFmIo
                0xffffffff82002b89                hal_BoardSetupGeneral
                0xffffffff82002dbd                hal_BoardSetup
                0xffffffff82002df1                hal_BoardConfigClk32k
                0xffffffff82002e41                hal_DbgSignalSpyCfg
                0xffffffff82002e45                hal_DbgTriggerBcpuDebugIrq
                0xffffffff82002e61                hal_DbgFatalTrigger
                0xffffffff82002e79                hal_DbgPalFillTrace
                0xffffffff82002ef5                hal_DbgPalFlushTrace
                0xffffffff82002fb5                hal_DmaReadFcs
                0xffffffff82002fdd                clkInitDMA
                0xffffffff82003009                hal_DmaIrqHandler
                0xffffffff82003045                hal_DmaStart
                0xffffffff82003105                hal_DmaFcsStart
                0xffffffff820031e1                hal_DmaGeaStart
                0xffffffff820032f9                clkInitHOST_UART
                0xffffffff82003325                hal_HstRamClientIdle
                0xffffffff820034e9                clkInitPWM
                0xffffffff82003515                hal_PwmResourceMgmt
                0xffffffff8200357d                hal_PwlSelLevel
                0xffffffff82003625                hal_PwlGlow
                0xffffffff82003679                hal_BuzzStop
                0xffffffff82003691                hal_BuzzStart
                0xffffffff82003739                abb_SpiRegValueInit
                0xffffffff82003755                abb_RegisterSpiRegCheckFunc
                0xffffffff8200377d                hal_AbbRegWrite
                0xffffffff820037b5                hal_AbbRegRead
                0xffffffff820037f5                abb_SpiRegCheck
                0xffffffff820038b5                hal_AbbIspiRead
                0xffffffff820038cd                hal_SimGetRegConfig
                0xffffffff820038d9                hal_SimGetRegClkDiv
                0xffffffff820038e5                hal_SimGetRegTimes
                0xffffffff820038f1                hal_SimGetRegChFilt
                0xffffffff820038fd                hal_SimGetRegIntMask
                0xffffffff82003909                hal_SimGetRegIntCause
                0xffffffff82003915                hal_SimGetRegRxCnt
                0xffffffff82003921                hal_SimGetRegStatus
                0xffffffff8200392d                hal_simParseReg
                0xffffffff82003975                hal_SimUpdateDivider
                0xffffffff82003a59                hal_SimGetDataConvFormat
                0xffffffff82003a79                hal_SimSetDataConvFormat
                0xffffffff82003aa5                hal_SimRegReset
                0xffffffff82003ac5                hal_SimGetClkStatus
                0xffffffff82003ad9                hal_SimGetClkStopStatus
                0xffffffff82003af5                hal_SimEnableSci
                0xffffffff82003b19                hal_SimDisableSci
                0xffffffff82003b2d                hal_SimPowerDown
                0xffffffff82003b49                hal_SimSetClockStopMode
                0xffffffff82003b81                hal_SimSetWorkWaitingTime
                0xffffffff82003ba5                hal_SimSetEtuDuration
                0xffffffff82003c39                hal_SimGetNumRxBytes
                0xffffffff82003c45                hal_SimIrqSetHandler
                0xffffffff82003c51                hal_SimIrqSetMask
                0xffffffff82003c85                clkInitSIM
                0xffffffff82003cd5                hal_SimIrqHandler
                0xffffffff82003f79                hal_SimDMAReleaseIFC
                0xffffffff82003fa1                hal_SimDelayAfterEpps
                0xffffffff82004011                hal_SimReset
                0xffffffff82004099                hal_SimTxByteRxByte
                0xffffffff820041d9                hal_SimCheckClockStatus
                0xffffffff82004209                hal_SimOpen
                0xffffffff82004285                hal_SimDeactive
                0xffffffff820042ed                hal_hstTraceSetRxProc
                0xffffffff8200440d                hal_HstTraceSetFnStamp
                0xffffffff8200440d                hal_TraceDualSetFnStamp
                0xffffffff820044ed                hal_TraceDualDataFilled
                0xffffffff820044ed                hal_HstTraceDataFilled
                0xffffffff82004539                hal_HstTraceSetDdrEnabled
                0xffffffff82004539                hal_TraceDualSetDdrEnabled
                0xffffffff820045e5                hal_TraceDualIdleCheck
                0xffffffff820045e5                hal_HstTraceIdleCheck
                0xffffffff820046ed                hal_HstTraceSetTxEnabled
                0xffffffff820046ed                hal_TraceDualSetTxEnabled
                0xffffffff82004741                hal_TraceDualSetRxEnabled
                0xffffffff82004741                hal_HstTraceSetRxEnabled
                0xffffffff8200474d                hal_TraceDualTxFlush
                0xffffffff8200474d                hal_HstTraceTxFlush
                0xffffffff820047c1                hal_HstTraceFetch
                0xffffffff820047c1                hal_TraceDualFetch
                0xffffffff82004899                hal_HstTraceOpen
                0xffffffff82004899                hal_TraceDualOpen
                0xffffffff820049dd                hal_TraceDualRequestData
                0xffffffff820049dd                hal_HstTraceRequestData
                0xffffffff82004a55                hal_TraceDualOutput
                0xffffffff82004a55                hal_HstTraceOutput
                0xffffffff82004ab9                hal_HstTraceRequestDataTick
                0xffffffff82004ab9                hal_TraceDualRequestDataTick
                0xffffffff82004b41                hal_SysStartBcpu
                0xffffffff82004b89                hal_SysDdrIsHighFreq
                0xffffffff82004b95                hal_SysSetupSystemClock
                0xffffffff82004bf1                hal_SysGetThermal_cal
                0xffffffff82004c11                hal_SysClkInit
                0xffffffff82004c35                hal_SysAuxClkOut
                0xffffffff82004c75                hal_SysGetResetCause
                0xffffffff82004cd1                hal_SysUsbHostEnable
                0xffffffff82004cdd                hal_SysProcessHostMonitor
                0xffffffff82004d11                hal_Sys32kClkOut
                0xffffffff82004d61                hal_SysGetMetalId
                0xffffffff82004d71                hal_SysGetChipId
                0xffffffff82004d81                hal_SysInvalidateCache
                0xffffffff82004d9d                hal_SysSetVocClock
                0xffffffff82005061                hal_SysSetBBClock
                0xffffffff82005281                hal_BootEnterMonitor
                0xffffffff820052b5                hal_SysShutdown
                0xffffffff820052fd                hal_SysGetFreq
                0xffffffff82005351                hal_SysRequestDdrHighFreq
                0xffffffff82005421                hal_SysProcessIdle
                0xffffffff82005465                hal_SysSetActiveSimCount
                0xffffffff82005495                hal_SysSetTcuWrapValue
                0xffffffff820054f9                hal_CipherKcInit
                0xffffffff82005515                hal_DbgPxtsOpen
                0xffffffff820055cd                hal_DbgAssert
                0xffffffff82005641                hal_FintIrqSetHandler
                0xffffffff8200564d                hal_FintIrqSetMask
                0xffffffff82005669                GPIO_GetConfig
                0xffffffff820056f5                GPIO_Close
                0xffffffff8200571d                GPIO_Get
                0xffffffff8200574d                GPIO_GetLevel
                0xffffffff82005781                GPIO_Set
                0xffffffff820057b5                GPIO_SetLevel
                0xffffffff820057f9                GPIO_Init
                0xffffffff82005a2d                hal_IspiUpdateDivider
                0xffffffff82005a6d                hal_IspiOpen
                0xffffffff82005ab9                hal_LpsOpen
                0xffffffff82005b05                hal_LpsInvalidateCalib
                0xffffffff82005b15                hal_LpsForceOsTimAlignEnable
                0xffffffff82005b3d                hal_LpsSetCallback
                0xffffffff82005b49                hal_LpsGetElapsedFrames
                0xffffffff82005b79                hal_LpsFrameSkipping
                0xffffffff82005b95                hal_LpsIrqHandler
                0xffffffff82005bd1                hal_LpsReady
                0xffffffff82005c41                hal_LpsSleep
                0xffffffff82005d91                hal_LpsSkipFrame
                0xffffffff82005ea9                hal_LpsResumeFrame
                0xffffffff82005f99                hal_Open
                0xffffffff82006101                hal_RfspiClose
                0xffffffff8200611d                hal_RfspiGetStatus
                0xffffffff820061a9                hal_RfspiDigRfRead
                0xffffffff820062bd                hal_RfspiNewSingleCmd
                0xffffffff820062d9                hal_RfspiImmReadWriteAvail
                0xffffffff82006319                hal_RfspiImmWrite
                0xffffffff82006609                hal_RfspiIrqHandler
                0xffffffff82006649                hal_RfspiUpdateDivider
                0xffffffff820066d5                hal_RfspiConfigure
                0xffffffff82006851                hal_RfspiSendCmd
                0xffffffff820068d5                hal_RfspiOpen
                0xffffffff8200693d                hal_SpiClearRxDmaDone
                0xffffffff82006951                hal_SpiClearTxDmaDone
                0xffffffff82006965                hal_SpiClose
                0xffffffff82006e91                clkInitSPI2
                0xffffffff82006ebd                clkInitSPI1
                0xffffffff82006ee9                hal_SpiIrqHandler
                0xffffffff82006f75                hal_SpiIrqSetMask
                0xffffffff82007011                hal_SpiIrqSetHandler
                0xffffffff82007079                hal_SpiRxDmaDone
                0xffffffff82007121                hal_SpiTxFinished
                0xffffffff82007199                hal_SpiTxDmaDone
                0xffffffff82007285                hal_SpiUpdateDivider
                0xffffffff8200734d                hal_SpiUpdateAllDividers
                0xffffffff820073a1                hal_SpiOpen
                0xffffffff8200787d                hal_SpiFlushFifos
                0xffffffff820078b5                hal_SpiGetData
                0xffffffff820079bd                hal_SpiSendData
                0xffffffff82007ae9                hal_SpiTxIfcChannelRelease
                0xffffffff82007b19                hal_SpiRxIfcChannelRelease
                0xffffffff82007b49                hal_SpiDeActivateCs
                0xffffffff82007c81                hal_SpiActivateCs
                0xffffffff82007f11                SPI_FlushFIFOs
                0xffffffff82007f39                SPI_ClearRxDmaDone
                0xffffffff82007f61                SPI_ClearTxDmaDone
                0xffffffff82007f89                SPI_IsRxDmaDone
                0xffffffff82007fc5                SPI_IsTxDmaDone
                0xffffffff82008001                SPI_IsTxDone
                0xffffffff8200803d                SPI_Read
                0xffffffff8200807d                SPI_Write
                0xffffffff820080bd                SPI_SetIrqMask
                0xffffffff82008131                SPI_SetIrqHandler
                0xffffffff82008199                SPI_Close
                0xffffffff820081d9                SPI_Init
                0xffffffff820083d9                hal_SoftAbort
                0xffffffff820083f8                sxr_TaskSetUp
                0xffffffff82008420                sxr_TaskFirst
                0xffffffff82008464                sxr_JobSetUp
                0xffffffff82008491                hal_IfcOpen
                0xffffffff82008595                hal_IfcGetChannel
                0xffffffff82008605                hal_IfcGetTc
                0xffffffff82008661                hal_IfcChannelIsFifoEmpty
                0xffffffff820086c1                hal_IfcChannelFlush
                0xffffffff82008721                hal_IfcChannelRelease
                0xffffffff8200877d                hal_IfcTransferStart
                0xffffffff820088f1                hal_TcuOpen
                0xffffffff820088fd                hal_TcuStart
                0xffffffff82008921                hal_TcuStop
                0xffffffff82008939                hal_TcuGetCount
                0xffffffff82008945                hal_TcuIrqSetHandler
                0xffffffff82008959                hal_TcuIrqSetMask
                0xffffffff82008989                hal_TcuIrqHandler
                0xffffffff82008a0d                hal_TimWatchDogKeepAlive
                0xffffffff82008a29                hal_TimWatchDogClose
                0xffffffff82008a39                hal_TimTickIrqHandler
                0xffffffff82008a5d                hal_TimTickGetVal
                0xffffffff82008a69                hal_TimTickStart
                0xffffffff82008a85                hal_TimTickIrqSetMask
                0xffffffff82008a9d                hal_TimChangeExpirationTime
                0xffffffff82008ad9                hal_TimGetElapsedTime
                0xffffffff82008b09                hal_TimSetExpirationTime
                0xffffffff82008b5d                hal_TimTimersIrqHandler
                0xffffffff82008b6d                hal_TimeWdRecover
                0xffffffff82008bc1                hal_TimTickOpen
                0xffffffff82008c05                hal_TickIrqHandler
                0xffffffff82008c35                hal_TimWatchDogSetPeriod
                0xffffffff82008c71                hal_TimWatchDogOpen
                0xffffffff82008ccc                pal_assert_string_0
                0xffffffff82008d08                pal_assert_string_1
                0xffffffff82008d38                pal_assert_string_2
                0xffffffff82008d58                pal_assert_string_3
                0xffffffff82008d84                pal_assert_string_4
                0xffffffff82008da4                pal_assert_string_5
                0xffffffff82008dc8                pal_assert_string_6
                0xffffffff82008de4                pal_assert_string_7
                0xffffffff82008e04                pal_assert_string_8
                0xffffffff82008e20                pal_assert_string_9
                0xffffffff82008e4c                pal_assert_string_13
                0xffffffff82008e6c                pal_assert_string_14
                0xffffffff82008e8c                pal_assert_string_15
                0xffffffff82008ec4                pal_assert_string_16
                0xffffffff82008ee8                pal_assert_string_17
                0xffffffff82008f10                pal_assert_string_18
                0xffffffff82008f54                palSizeFromCs
                0xffffffff82008f58                palSizeFromCSD
                0xffffffff82008f91                pal_RfWakeUp
                0xffffffff82008f95                palTimersSkippedUpdate
                0xffffffff82009011                palWinInit
                0xffffffff82009041                palFrameInit
                0xffffffff82009099                pal_CalibGetDcOffset
                0xffffffff820090c5                pal_SetPcsFlag
                0xffffffff820090d5                pal_GetTriBandSearchSupport
                0xffffffff820090e1                pal_SetUSF
                0xffffffff820090e5                pal_EnableSaic
                0xffffffff82009109                pal_LimitMaxTxPower
                0xffffffff82009121                palHwInit
                0xffffffff82009249                palCommonInit
                0xffffffff8200930d                palSetRamps_calib
                0xffffffff820096b9                palStartBcpu
                0xffffffff820097a5                pal_Sleep
                0xffffffff820097b9                pal_StopTch
                0xffffffff82009801                pal_SetTchLoop
                0xffffffff8200984d                pal_GetDtx
                0xffffffff8200989d                pal_SetDtx
                0xffffffff820098e9                pal_RetrieveCurrentAMRCfg
                0xffffffff82009981                pal_ChangeTchMode
                0xffffffff82009a49                pal_StartTch
                0xffffffff82009b0d                pal_StopCiphering
                0xffffffff82009b4d                pal_RxBufferCfg
                0xffffffff82009c15                pal_SetGsmCounters
                0xffffffff82009c81                pal_RfSleep
                0xffffffff82009c95                pal_GetElapsedTime
                0xffffffff82009ce5                pal_FintResume
                0xffffffff82009d49                pal_FintSuspend
                0xffffffff82009dd9                pal_GprsCiphering
                0xffffffff82009e99                pal_StartCiphering
                0xffffffff82009f4d                pal_CalibSetTxWin
                0xffffffff8200a091                pal_Initialisation
                0xffffffff8200a1ad                pal_SetUsrVectorMsk
                0xffffffff8200a225                pal_SetUsrVector
                0xffffffff8200a2a9                pal_Open
                0xffffffff8200a675                sxr_ReleaseMutex
                0xffffffff8200a775                sxr_TakeMutex
                0xffffffff8200a825                sxr_InitQueue
                0xffffffff8200a89d                sxr_FreeQueueEnv
                0xffffffff8200a8c9                sxr_QueueGetFirst
                0xffffffff8200a919                sxr_QueueGetLast
                0xffffffff8200a9a5                sxr_QueueGetNext
                0xffffffff8200aa25                sxr_QueueGetCur
                0xffffffff8200aa69                sxr_QueueGet
                0xffffffff8200aafd                sxr_QueueRmvFirst
                0xffffffff8200ab75                sxr_QueueGetCurPos
                0xffffffff8200abc1                sxr_QueueSetCurPos
                0xffffffff8200ac31                sxr_QueueGetLoad
                0xffffffff8200ac49                sxr_QueueGetName
                0xffffffff8200ac61                sxr_CheckQueue
                0xffffffff8200ad89                sxr_CheckAllQueues
                0xffffffff8200ada5                sxr_QueueRmvCur
                0xffffffff8200ae55                sxr_QueuePurge
                0xffffffff8200aee9                sxr_QueueRmv
                0xffffffff8200af55                sxr_QueueRmvLast
                0xffffffff8200b025                sxr_FreeQueue
                0xffffffff8200b0c1                _sxr_NewQueue
                0xffffffff8200b1c9                _sxr_QueueSorted
                0xffffffff8200b2a1                _sxr_QueueNext
                0xffffffff8200b369                _sxr_QueueLast
                0xffffffff8200b3b1                _sxr_QueueFirst
                0xffffffff8200b435                sxr_SbxHot
                0xffffffff8200b459                sxr_RmvTaskFromSbx
                0xffffffff8200b4c9                sxr_RmvMsgFromMbx
                0xffffffff8200b5dd                sxr_RmvAllMsgFromMbx
                0xffffffff8200b631                sxr_CheckMsgInMbx
                0xffffffff8200b6cd                sxr_WakeupFirstTaskFromQueue
                0xffffffff8200b731                sxr_TaskWaitToQueue
                0xffffffff8200b821                sxr_WaitEx
                0xffffffff8200bb35                sxr_Wait
                0xffffffff8200bb4d                sxr_TakeSemaphore
                0xffffffff8200bb99                sxr_Send
                0xffffffff8200bdf1                sxr_ReleaseSemaphore
                0xffffffff8200be69                sxr_DeleteComplexTimer
                0xffffffff8200bfd9                sxr_DeleteTimer
                0xffffffff8200bff1                _sxr_StopFunctionTimer
                0xffffffff8200c059                sxr_DeleteTimerEx
                0xffffffff8200c1c9                _sxr_StopFunctionTimer2
                0xffffffff8200c201                sxr_IsTimerSet
                0xffffffff8200c265                sxr_NextTimerQuery
                0xffffffff8200c305                sxr_TimerQuery
                0xffffffff8200c3a9                sxs_ExistTimer
                0xffffffff8200c3cd                sxr_TimerExQuery
                0xffffffff8200c471                sxr_Tampax
                0xffffffff8200c651                sxr_SetTimer
                0xffffffff8200c879                sxr_StartMbxTimer
                0xffffffff8200c89d                _sxr_StartFunctionTimer
                0xffffffff8200c8fd                sxr_StopMbxTimer
                0xffffffff8200c965                sxs_StopAllTimer
                0xffffffff8200c9b1                sxs_StopTimer
                0xffffffff8200c9fd                sxs_StartTimer
                0xffffffff8200ca4d                sxr_EnterScSchedule
                0xffffffff8200ca91                sxr_RmvFromSuspendedQueue
                0xffffffff8200cb11                sxr_RunNextTask
                0xffffffff8200cc69                sxr_SuspendTask
                0xffffffff8200cd09                sxr_ScheduleIdle
                0xffffffff8200cddd                sxr_ExitScSchedule
                0xffffffff8200ce69                sxr_WakeUpTask
                0xffffffff8200cfb9                sxr_ResumeTask
                0xffffffff8200d009                sxr_StopTask
                0xffffffff8200d17d                sxr_StartTask
                0xffffffff8200d235                sxr_GenPrbs
                0xffffffff8200d271                _sxr_Random
                0xffffffff8200d305                sxr_ComputeFcsM
                0xffffffff8200d375                sxr_ComputeMedian_u16
                0xffffffff8200d3f5                sxr_ComputeMedian_s16
                0xffffffff8200d47d                sxr_Sleep
                0xffffffff8200d519                sxr_ComputeFcs
                0xffffffff8200d57d                sxr_RandomInit
                0xffffffff8200d5a8                sxr_MsbToLsb
                0xffffffff8200d6a8                sxr_FcsTab
                0xffffffff8200daa9                sxr_UsrMalloc
                0xffffffff8200dbb1                _sxr_UsrFree
                0xffffffff8200dc81                sxs_SetTraceEnabled
                0xffffffff8200dc8d                sxs_Dump
                0xffffffff8200dea9                sxs_vprintf
                0xffffffff8200df75                sxs_fprintf
                0xffffffff8200e02d                sxs_BackTrace
                0xffffffff8200e13d                sxs_Raise
                0xffffffff8200e1f9                sxs_IoInit
                0xffffffff8200e210                sxs_Boot
                0xffffffff8200e215                sxr_GetActiveJob
                0xffffffff8200e221                sxr_GetJobState
                0xffffffff8200e23d                sxr_NextFrameClear
                0xffffffff8200e325                JobSwap_SpyAfter
                0xffffffff8200e37d                JobSwap_SpyBefore
                0xffffffff8200e3d9                sxr_ChkJob
                0xffffffff8200e515                sxs_CheckStkJb
                0xffffffff8200e571                sxr_CheckJob
                0xffffffff8200e5b5                sxr_GetJobParam
                0xffffffff8200e601                sxr_StartJob
                0xffffffff8200e741                sxr_FreeJob
                0xffffffff8200e855                sxr_NewJob
                0xffffffff8200e99d                sxr_JbSdInit
                0xffffffff8200ea61                _sxr_NewHeap
                0xffffffff8200ea99                sxr_MemTrackAlloc
                0xffffffff8200eaed                sxr_MemTrackFree
                0xffffffff8200eb45                sxr_MemoryAlertDispatchRegistration
                0xffffffff8200eb51                sxr_ChkHp
                0xffffffff8200ecad                sxr_CheckCluster
                0xffffffff8200ed5d                sxr_GetRelativeRemainingSize
                0xffffffff8200ee01                sxr_GetAbsoluteRemainingSize
                0xffffffff8200ee8d                sxr_NewCluster
                0xffffffff8200ef79                sxr_MutexInit
                0xffffffff8200efad                sxr_ChkMutex
                0xffffffff8200f045                sxr_CheckMutex
                0xffffffff8200f0ad                sxr_FreeMutex
                0xffffffff8200f131                sxr_NewMutex
                0xffffffff8200f199                sxs_RmcCtxInit
                0xffffffff8200f19d                sxs_SetTraceLevel
                0xffffffff8200f1bd                sxs_InitRmc
                0xffffffff8200f1e1                sxs_PrcsRmtData
                0xffffffff8200f4fd                sxr_SbxInit
                0xffffffff8200f585                sxr_SetRmtMbx
                0xffffffff8200f5c1                sxr_SetRxTxRmtMsg
                0xffffffff8200f5d5                sxr_SbxRxMsg
                0xffffffff8200f5f1                sxr_GetSbxInfo
                0xffffffff8200f67d                sxr_ChkSbx
                0xffffffff8200f73d                sxr_CheckSbx
                0xffffffff8200f759                sxr_FreeMailBox
                0xffffffff8200f7b5                sxr_FreeSemaphore
                0xffffffff8200f80d                sxr_NewMailBox
                0xffffffff8200f871                sxr_NewSemaphore
                0xffffffff8200f8cd                sxs_SpyEnable
                0xffffffff8200f8e9                sxs_UsrSpyEnable
                0xffffffff8200f91d                sxs_SpyDispatchRegistration
                0xffffffff8200f951                sxs_SpyData
                0xffffffff8200fb95                sxr_CheckTimer
                0xffffffff8200fc49                sxr_InitTimer
                0xffffffff8200fd21                sxr_TkSdInit
                0xffffffff8200fd7d                sxr_GetCurrentTaskId
                0xffffffff8200fd9d                sxr_GetCurrentTaskDesc
                0xffffffff8200fdbd                sxr_SchedulingStarted
                0xffffffff8200fe11                sxr_GetTaskName
                0xffffffff8200fe35                sxr_GetTaskState
                0xffffffff8200fe4d                sxr_GetStackMaxUsage
                0xffffffff8200fe89                sxr_GetTkPcInStack
                0xffffffff8200fe8d                sxs_CheckPendingTk
                0xffffffff8200fef1                sxr_ChkTask
                0xffffffff8200ffdd                sxs_CheckStkTk
                0xffffffff82010035                sxr_CheckTask
                0xffffffff82010071                sxr_StartScheduling
                0xffffffff820100d5                sxr_FreeTask
                0xffffffff8201016d                sxr_NewTask
                0xffffffff82010231                sxr_NewUsrCluster
                0xffffffff820103a9                xcv_SetStableVolt
                0xffffffff820103ad                rfd_XcvLimitMaxTxPower
                0xffffffff820103b1                rfd_XcvGetAfcDacOffset
                0xffffffff820103c9                rfd_XcvGetCdacOffset
                0xffffffff820103d5                rfd_XcvSetAfcDacOffset
                0xffffffff820103e5                rfd_XcvSetCdacOffset
                0xffffffff820103f1                rfd_XcvFrameInit
                0xffffffff82010401                rfd_XcvCalibGetDefault
                0xffffffff8201040d                rfd_XcvCalibUpdateValues
                0xffffffff82010411                rfd_XcvCalibCalcAfcGain
                0xffffffff82010451                rfd_XcvCalibCalcAfcGainChangeDAC
                0xffffffff82010499                rfd_XcvCalibCalcAfcFreqChangeDAC
                0xffffffff820104b9                rfd_XcvCalibSetILoss
                0xffffffff820105e1                rfd_XcvCalibSetPaRamp
                0xffffffff82010605                rfd_XcvRegValueInit
                0xffffffff82010621                rfd_RegisterXcvRegCheckFunc
                0xffffffff8201064d                rfd_XcvRegForceWriteSingle
                0xffffffff82010689                rfd_XcvRegForceWrite
                0xffffffff820106c1                rfd_XcvGetParameters
                0xffffffff82010725                rfd_XcvRegForceRead
                0xffffffff82010761                rfd_XcvRegCheckAll
                0xffffffff820107f9                rfd_XcvRegCheck
                0xffffffff82010821                rfd_XcvCalibSetChangeDAC
                0xffffffff8201085d                rfd_XcvCalibSetAfcBoundChangeDAC
                0xffffffff820108f1                rfd_XcvCalibSetAfcBound
                0xffffffff8201098d                rfd_XcvCalibXtalFreqOffset
                0xffffffff82010afd                rfd_XcvCalibResetValues
                0xffffffff82010bb9                rfd_XcvOpen
                0xffffffff82010cb9                rfd_XcvReadChipId
                0xffffffff82010d05                rfd_XcvRfInit
                0xffffffff8201124c                AgcTab_EGSM
                0xffffffff820113cc                AgcTab_DCS
                0xffffffff8201154c                xcv_calib_default
                0xffffffff820116e9                rfd_PaGetParameters
                0xffffffff820116f5                rfd_SwGetParameters
                0xffffffff82011701                rfd_SwOpen
                0xffffffff82011705                rfd_PaCalibGetDefault
                0xffffffff82011711                rfd_PaCalibUpdateValues
                0xffffffff82011715                rfd_PaCalibResetValues
                0xffffffff82011721                rfd_SwCalibGetDefault
                0xffffffff8201172d                rfd_SwCalibUpdateValues
                0xffffffff82011731                rfd_SwCalibResetValues
                0xffffffff82011b6d                rfd_PaCalibPaProfile
                0xffffffff82011e01                rfd_PaCalibfastPaProfile
                0xffffffff82012029                rfd_PaCalibInit
                0xffffffff82012091                rfd_PaOpen
                0xffffffff820120a8                pa_default_calib
                0xffffffff820132d4                sw_default_calib
                0xffffffff82013355                pmd_TemperatureVolt2Degree
                0xffffffff82013375                pmd_GetHighActivityVoltOffset
                0xffffffff820133f5                pmd_ChargerSmallCurrent
                0xffffffff82013419                pmd_SetChargerVfb
                0xffffffff8201348d                pmd_ChargerSetBgLpMode
                0xffffffff82013575                pmd_PmuChargerPlugout
                0xffffffff82013591                pmd_PmuChargerPlugin
                0xffffffff820135ad                pmd_GetChargerHwStatus
                0xffffffff820135d9                pmd_ForceChargerFinished
                0xffffffff82013625                pmd_PmuSetChargeCurrent
                0xffffffff820136c5                pmd_GetGpadcChargerLevel
                0xffffffff820136f9                pmd_GetGpadcTemperatureLevel
                0xffffffff82013715                pmd_GetGpadcTemperatureSW
                0xffffffff82013789                pmd_PmuInitCharger
                0xffffffff8201392d                pmd_RestoreChargerAtPowerOff
                0xffffffff82013960                gc_pmdChargerProcCfg
                0xffffffff82013970                gc_pmdChargerProcOps
                0xffffffff820139a9                pmd_IsOpen
                0xffffffff820139b5                pmd_SetPowerMode
                0xffffffff820139b9                pmd_EnableClk4mAvdd3InLpMode
                0xffffffff82013a11                pmd_ConfigureRfLowPower
                0xffffffff82013a35                pmd_GetCoreVoltageRequest
                0xffffffff82013a41                pmd_GetBatteryGpadcChannel
                0xffffffff82013a51                pmd_GetScreenAntiFlickerVolt
                0xffffffff82013a79                pmd_SpeakerPaCpLowOutput
                0xffffffff82013a85                pmd_IsSpeakerDouble
                0xffffffff82013a89                pmd_TsdTscEnabled
                0xffffffff82013a99                pmd_SpiRegValueInit
                0xffffffff82013ab5                pmd_GetEarpieceGpadcChannel
                0xffffffff82013ac5                pmd_GpadcChannelEnabled
                0xffffffff82013aed                pmd_SetAuxClockStatusHandler
                0xffffffff82013af9                pmd_EarDetectDelay
                0xffffffff82013b65                pmd_EarDetectHandler
                0xffffffff82013bf5                pmd_RegisterSpiRegCheckFunc
                0xffffffff82013c39                pmd_RDAWrite
                0xffffffff82013c55                pmd_GpadcDisable
                0xffffffff82013c8d                pmd_GpadcEnableChannel
                0xffffffff82013cdd                pmd_GpadcSetInterval
                0xffffffff82013d21                pmd_ResetTouch
                0xffffffff82013d7d                pmd_SpeakerPaRestoreMode
                0xffffffff82013dd1                pmd_EnableScreenAntiFlicker
                0xffffffff82013e39                pmd_SetMmcVoltage
                0xffffffff82013e81                pmd_TsdEnableTsc
                0xffffffff82013ec9                pmd_SpeakerPaPostEnable
                0xffffffff82013ef1                pmd_SpeakerPaPreEnable
                0xffffffff82013f1d                pmd_InitSpeakerPa
                0xffffffff82013f59                pmd_SetVa24Buck2Voltage
                0xffffffff82013f89                pmd_InitCoreVoltage
                0xffffffff82013f99                pmd_RegHpDetectSettingSet
                0xffffffff82013fe1                pmd_RegIrqSettingClr
                0xffffffff8201401d                pmd_IrqHandler
                0xffffffff8201404d                pmd_SpiRegCheck
                0xffffffff820140cd                pmd_InitTouchScreen
                0xffffffff820141e1                pmd_SpeakerPaSelectChannel
                0xffffffff820142dd                pmd_EnableOpalLdo
                0xffffffff8201446d                pmd_InitRdaPmu
                0xffffffff820145f1                pmd_SetCoreVoltageDelayed
                0xffffffff82014611                pmd_SetLevel
                0xffffffff820149a5                pmd_FourSimSetVoltageClass
                0xffffffff82014b45                pmd_EnablePower
                0xffffffff82014ce9                pmd_UsbDownloadByMicDetect
                0xffffffff82014dc1                pmd_SelectSimCard
                0xffffffff82014e59                pmd_Open
                0xffffffff8201518d                __pack_f
                0xffffffff82015251                __pack_d
                0xffffffff820153f5                __unpack_f
                0xffffffff82015471                __unpack_d
                0xffffffff8201565d                __subsf3
                0xffffffff820156a1                __addsf3
                0xffffffff820156dd                __mulsf3
                0xffffffff820157d9                __gtsf2
                0xffffffff8201581d                __gesf2
                0xffffffff82015861                __ltsf2
                0xffffffff820158a5                __floatsisf
                0xffffffff82015901                __extendsfdf2
                0xffffffff8201592c                __thenan_sf
                0xffffffff82015ba5                __subdf3
                0xffffffff82015bed                __adddf3
                0xffffffff82015c31                __muldf3
                0xffffffff82015de9                __divdf3
                0xffffffff82015f21                __eqdf2
                0xffffffff82015f69                __nedf2
                0xffffffff82015fb1                __gtdf2
                0xffffffff82015ff9                __gedf2
                0xffffffff82016041                __ltdf2
                0xffffffff82016089                __ledf2
                0xffffffff820160d1                __floatsidf
                0xffffffff82016149                __make_dp
                0xffffffff82016169                __truncdfsf2
                0xffffffff820161a8                __thenan_df
                0xffffffff820161c1                __floatunsidf
                0xffffffff82016259                __fpcmp_parts_f
                0xffffffff820162bd                __make_fp
                0xffffffff820162d5                __fpcmp_parts_d
                0xffffffff8201634d                __lshrdi3
                0xffffffff82016389                __ashldi3
                0xffffffff820163c9                __fixunsdfsi
                0xffffffff82016419                __divdi3
                0xffffffff820167e1                __udivdi3
                0xffffffff82016b5d                __fixdfsi
                0xffffffff82016bc1                __clzsi2

.bootbss        0xffffffff820568b0       0x10
 hex/app/SW_V2112_csdk.elf(.bootbss)
 .bootbss       0xffffffff820568b0       0x10 hex/app/SW_V2112_csdk.elf
                0xffffffff820568b0                g_memdFlashBaseAddress
LOAD hex/app/app.elf
LOAD hex/app/SW_V2112_csdk.elf
OUTPUT(C:/GPRS_C_SDK/hex/app/app_BASE_csdk_debug.elf elf32-littlemips)

.comment        0x0000000000000000       0x56
 .comment       0x0000000000000000       0x56 hex/app/SW_V2112_csdk.elf
 .comment       0x0000000000000000       0x25 hex/app/app.elf

.reginfo        0x0000000000000000       0x18
 .reginfo       0x0000000000000000       0x18 hex/app/app.elf

.gnu.attributes
                0x0000000000000000       0x10
 .gnu.attributes
                0x0000000000000000       0x10 hex/app/app.elf

.debug_aranges  0x0000000000000000    0x19b48
 .debug_aranges
                0x0000000000000000    0x19ae8 hex/app/SW_V2112_csdk.elf
 .debug_aranges
                0x0000000000019ae8       0x60 hex/app/app.elf

.debug_pubnames
                0x0000000000000000    0x5f87c
 .debug_pubnames
                0x0000000000000000    0x5f7b6 hex/app/SW_V2112_csdk.elf
 .debug_pubnames
                0x000000000005f7b6       0xc6 hex/app/app.elf

.debug_info     0x0000000000000000   0x506b29
 .debug_info    0x0000000000000000   0x4fe037 hex/app/SW_V2112_csdk.elf
 .debug_info    0x00000000004fe037     0x8af2 hex/app/app.elf

.debug_abbrev   0x0000000000000000    0x66240
 .debug_abbrev  0x0000000000000000    0x65e21 hex/app/SW_V2112_csdk.elf
 .debug_abbrev  0x0000000000065e21      0x41f hex/app/app.elf

.debug_line     0x0000000000000000    0xcecbd
 .debug_line    0x0000000000000000    0xce7e9 hex/app/SW_V2112_csdk.elf
 .debug_line    0x00000000000ce7e9      0x4d4 hex/app/app.elf

.debug_frame    0x0000000000000000    0x4aa00
 .debug_frame   0x0000000000000000    0x4a944 hex/app/SW_V2112_csdk.elf
 .debug_frame   0x000000000004a944       0xbc hex/app/app.elf

.debug_str      0x0000000000000000    0xa6555
 .debug_str     0x0000000000000000    0xa6433 hex/app/SW_V2112_csdk.elf
 .debug_str     0x00000000000a6433      0x122 hex/app/app.elf
                                       0x3cc0 (size before relaxing)

.debug_loc      0x0000000000000000   0x164618
 .debug_loc     0x0000000000000000   0x164539 hex/app/SW_V2112_csdk.elf
 .debug_loc     0x0000000000164539       0xdf hex/app/app.elf

.debug_ranges   0x0000000000000000       0x50
 .debug_ranges  0x0000000000000000       0x50 hex/app/app.elf
